Archive member included to satisfy reference by file (symbol)

kernel/libinstrumentables.a.p/generic_src_cpu_cpu.c.o
                              (--whole-archive)
kernel/libinstrumentables.a.p/generic_src_ddi_ddi.c.o
                              (--whole-archive)
kernel/libinstrumentables.a.p/generic_src_interrupt_interrupt.c.o
                              (--whole-archive)
kernel/libinstrumentables.a.p/generic_src_main_kinit.c.o
                              (--whole-archive)
kernel/libinstrumentables.a.p/generic_src_main_main.c.o
                              (--whole-archive)
kernel/libinstrumentables.a.p/generic_src_mm_as.c.o
                              (--whole-archive)
kernel/libinstrumentables.a.p/generic_src_mm_frame.c.o
                              (--whole-archive)
kernel/libinstrumentables.a.p/generic_src_mm_page.c.o
                              (--whole-archive)
kernel/libinstrumentables.a.p/generic_src_mm_slab.c.o
                              (--whole-archive)
kernel/libinstrumentables.a.p/generic_src_mm_tlb.c.o
                              (--whole-archive)
kernel/libinstrumentables.a.p/generic_src_proc_current.c.o
                              (--whole-archive)
kernel/libinstrumentables.a.p/generic_src_sysinfo_sysinfo.c.o
                              (--whole-archive)
kernel/libinstrumentables.a.p/generic_src_console_kconsole.c.o
                              (--whole-archive)
kernel/libnoninstrumentables.a.p/meson-generated_memmap_struct.h.check.c.o
                              (--whole-archive)
kernel/libnoninstrumentables.a.p/meson-generated_context_struct.h.check.c.o
                              (--whole-archive)
kernel/libnoninstrumentables.a.p/meson-generated_istate_struct.h.check.c.o
                              (--whole-archive)
kernel/libnoninstrumentables.a.p/meson-generated_kseg_struct.h.check.c.o
                              (--whole-archive)
kernel/libnoninstrumentables.a.p/meson-generated_multiboot_memmap_struct.h.check.c.o
                              (--whole-archive)
kernel/libnoninstrumentables.a.p/meson-generated_multiboot_info_struct.h.check.c.o
                              (--whole-archive)
kernel/libnoninstrumentables.a.p/arch_amd64_src_amd64.c.o
                              (--whole-archive)
kernel/libnoninstrumentables.a.p/arch_amd64_src_asm.S.o
                              (--whole-archive)
kernel/libnoninstrumentables.a.p/arch_amd64_src_bios_bios.c.o
                              (--whole-archive)
kernel/libnoninstrumentables.a.p/arch_amd64_src_boot_memmap.c.o
                              (--whole-archive)
kernel/libnoninstrumentables.a.p/arch_amd64_src_boot_multiboot2.S.o
                              (--whole-archive)
kernel/libnoninstrumentables.a.p/arch_amd64_src_boot_multiboot.S.o
                              (--whole-archive)
kernel/libnoninstrumentables.a.p/arch_amd64_src_context.S.o
                              (--whole-archive)
kernel/libnoninstrumentables.a.p/arch_amd64_src_cpu_cpu.c.o
                              (--whole-archive)
kernel/libnoninstrumentables.a.p/arch_amd64_src_ddi_ddi.c.o
                              (--whole-archive)
kernel/libnoninstrumentables.a.p/arch_amd64_src_debug_stacktrace_asm.S.o
                              (--whole-archive)
kernel/libnoninstrumentables.a.p/arch_amd64_src_debug_stacktrace.c.o
                              (--whole-archive)
kernel/libnoninstrumentables.a.p/arch_amd64_src_delay.S.o
                              (--whole-archive)
kernel/libnoninstrumentables.a.p/arch_amd64_src_drivers_i8254.c.o
                              (--whole-archive)
kernel/libnoninstrumentables.a.p/arch_amd64_src_fpu_context.c.o
                              (--whole-archive)
kernel/libnoninstrumentables.a.p/arch_amd64_src_interrupt.c.o
                              (--whole-archive)
kernel/libnoninstrumentables.a.p/arch_amd64_src_kseg.c.o
                              (--whole-archive)
kernel/libnoninstrumentables.a.p/arch_amd64_src_mm_as.c.o
                              (--whole-archive)
kernel/libnoninstrumentables.a.p/arch_amd64_src_mm_frame.c.o
                              (--whole-archive)
kernel/libnoninstrumentables.a.p/arch_amd64_src_mm_km.c.o
                              (--whole-archive)
kernel/libnoninstrumentables.a.p/arch_amd64_src_mm_page.c.o
                              (--whole-archive)
kernel/libnoninstrumentables.a.p/arch_amd64_src_mm_tlb.c.o
                              (--whole-archive)
kernel/libnoninstrumentables.a.p/arch_amd64_src_pm.c.o
                              (--whole-archive)
kernel/libnoninstrumentables.a.p/arch_amd64_src_proc_scheduler.c.o
                              (--whole-archive)
kernel/libnoninstrumentables.a.p/arch_amd64_src_proc_task.c.o
                              (--whole-archive)
kernel/libnoninstrumentables.a.p/arch_amd64_src_proc_thread.c.o
                              (--whole-archive)
kernel/libnoninstrumentables.a.p/arch_amd64_src_smc.c.o
                              (--whole-archive)
kernel/libnoninstrumentables.a.p/arch_amd64_src_syscall.c.o
                              (--whole-archive)
kernel/libnoninstrumentables.a.p/arch_amd64_src_userspace.c.o
                              (--whole-archive)
kernel/libnoninstrumentables.a.p/arch_amd64_src_vreg.c.o
                              (--whole-archive)
kernel/libnoninstrumentables.a.p/arch_amd64_src_smp_apic.c.o
                              (--whole-archive)
kernel/libnoninstrumentables.a.p/arch_amd64_src_smp_ap.S.o
                              (--whole-archive)
kernel/libnoninstrumentables.a.p/arch_amd64_src_smp_ipi.c.o
                              (--whole-archive)
kernel/libnoninstrumentables.a.p/arch_amd64_src_smp_mps.c.o
                              (--whole-archive)
kernel/libnoninstrumentables.a.p/arch_amd64_src_smp_smp.c.o
                              (--whole-archive)
kernel/libnoninstrumentables.a.p/genarch_src_acpi_acpi.c.o
                              (--whole-archive)
kernel/libnoninstrumentables.a.p/genarch_src_acpi_madt.c.o
                              (--whole-archive)
kernel/libnoninstrumentables.a.p/genarch_src_mm_page_pt.c.o
                              (--whole-archive)
kernel/libnoninstrumentables.a.p/genarch_src_mm_as_pt.c.o
                              (--whole-archive)
kernel/libnoninstrumentables.a.p/genarch_src_fb_font-8x16.c.o
                              (--whole-archive)
kernel/libnoninstrumentables.a.p/genarch_src_fb_fb.c.o
                              (--whole-archive)
kernel/libnoninstrumentables.a.p/genarch_src_fb_bfb.c.o
                              (--whole-archive)
kernel/libnoninstrumentables.a.p/genarch_src_drivers_i8042_i8042.c.o
                              (--whole-archive)
kernel/libnoninstrumentables.a.p/genarch_src_drivers_i8259_i8259.c.o
                              (--whole-archive)
kernel/libnoninstrumentables.a.p/genarch_src_drivers_ns16550_ns16550.c.o
                              (--whole-archive)
kernel/libnoninstrumentables.a.p/genarch_src_drivers_pl011_pl011.c.o
                              (--whole-archive)
kernel/libnoninstrumentables.a.p/genarch_src_kbrd_kbrd.c.o
                              (--whole-archive)
kernel/libnoninstrumentables.a.p/genarch_src_kbrd_scanc_pc.c.o
                              (--whole-archive)
kernel/libnoninstrumentables.a.p/genarch_src_srln_srln.c.o
                              (--whole-archive)
kernel/libnoninstrumentables.a.p/genarch_src_multiboot_common.c.o
                              (--whole-archive)
kernel/libnoninstrumentables.a.p/genarch_src_multiboot_multiboot.c.o
                              (--whole-archive)
kernel/libnoninstrumentables.a.p/genarch_src_multiboot_multiboot2.c.o
                              (--whole-archive)
kernel/libnoninstrumentables.a.p/genarch_src_drivers_ega_ega.c.o
                              (--whole-archive)
kernel/libnoninstrumentables.a.p/genarch_src_ddi_ddi-bitmap.c.o
                              (--whole-archive)
kernel/libnoninstrumentables.a.p/generic_common_adt_bitmap.c.o
                              (--whole-archive)
kernel/libnoninstrumentables.a.p/generic_common_adt_hash_table.c.o
                              (--whole-archive)
kernel/libnoninstrumentables.a.p/generic_common_adt_list.c.o
                              (--whole-archive)
kernel/libnoninstrumentables.a.p/generic_common_adt_odict.c.o
                              (--whole-archive)
kernel/libnoninstrumentables.a.p/generic_common_printf_printf_core.c.o
                              (--whole-archive)
kernel/libnoninstrumentables.a.p/generic_common_stdc_calloc.c.o
                              (--whole-archive)
kernel/libnoninstrumentables.a.p/generic_common_stdc_ctype.c.o
                              (--whole-archive)
kernel/libnoninstrumentables.a.p/generic_common_stdc_mem.c.o
                              (--whole-archive)
kernel/libnoninstrumentables.a.p/generic_common_gsort.c.o
                              (--whole-archive)
kernel/libnoninstrumentables.a.p/generic_common_str.c.o
                              (--whole-archive)
kernel/libnoninstrumentables.a.p/generic_common_str_error.c.o
                              (--whole-archive)
kernel/libnoninstrumentables.a.p/generic_common_strtol.c.o
                              (--whole-archive)
kernel/libnoninstrumentables.a.p/generic_src_cap_cap.c.o
                              (--whole-archive)
kernel/libnoninstrumentables.a.p/generic_src_console_chardev.c.o
                              (--whole-archive)
kernel/libnoninstrumentables.a.p/generic_src_console_console.c.o
                              (--whole-archive)
kernel/libnoninstrumentables.a.p/generic_src_console_prompt.c.o
                              (--whole-archive)
kernel/libnoninstrumentables.a.p/generic_src_cpu_cpu_mask.c.o
                              (--whole-archive)
kernel/libnoninstrumentables.a.p/generic_src_ddi_irq.c.o
                              (--whole-archive)
kernel/libnoninstrumentables.a.p/generic_src_debug_line.c.o
                              (--whole-archive)
kernel/libnoninstrumentables.a.p/generic_src_debug_names.c.o
                              (--whole-archive)
kernel/libnoninstrumentables.a.p/generic_src_debug_panic.c.o
                              (--whole-archive)
kernel/libnoninstrumentables.a.p/generic_src_debug_profile.c.o
                              (--whole-archive)
kernel/libnoninstrumentables.a.p/generic_src_debug_sections.c.o
                              (--whole-archive)
kernel/libnoninstrumentables.a.p/generic_src_debug_stacktrace.c.o
                              (--whole-archive)
kernel/libnoninstrumentables.a.p/generic_src_debug_symtab.c.o
                              (--whole-archive)
kernel/libnoninstrumentables.a.p/generic_src_debug_util.c.o
                              (--whole-archive)
kernel/libnoninstrumentables.a.p/generic_src_ipc_event.c.o
                              (--whole-archive)
kernel/libnoninstrumentables.a.p/generic_src_ipc_ipc.c.o
                              (--whole-archive)
kernel/libnoninstrumentables.a.p/generic_src_ipc_ipcrsc.c.o
                              (--whole-archive)
kernel/libnoninstrumentables.a.p/generic_src_ipc_irq.c.o
                              (--whole-archive)
kernel/libnoninstrumentables.a.p/generic_src_ipc_ops_conctmeto.c.o
                              (--whole-archive)
kernel/libnoninstrumentables.a.p/generic_src_ipc_ops_concttome.c.o
                              (--whole-archive)
kernel/libnoninstrumentables.a.p/generic_src_ipc_ops_dataread.c.o
                              (--whole-archive)
kernel/libnoninstrumentables.a.p/generic_src_ipc_ops_datawrite.c.o
                              (--whole-archive)
kernel/libnoninstrumentables.a.p/generic_src_ipc_ops_debug.c.o
                              (--whole-archive)
kernel/libnoninstrumentables.a.p/generic_src_ipc_ops_pagein.c.o
                              (--whole-archive)
kernel/libnoninstrumentables.a.p/generic_src_ipc_ops_sharein.c.o
                              (--whole-archive)
kernel/libnoninstrumentables.a.p/generic_src_ipc_ops_shareout.c.o
                              (--whole-archive)
kernel/libnoninstrumentables.a.p/generic_src_ipc_ops_stchngath.c.o
                              (--whole-archive)
kernel/libnoninstrumentables.a.p/generic_src_ipc_sysipc.c.o
                              (--whole-archive)
kernel/libnoninstrumentables.a.p/generic_src_ipc_sysipc_ops.c.o
                              (--whole-archive)
kernel/libnoninstrumentables.a.p/generic_src_lib_elf.c.o
                              (--whole-archive)
kernel/libnoninstrumentables.a.p/generic_src_lib_halt.c.o
                              (--whole-archive)
kernel/libnoninstrumentables.a.p/generic_src_lib_mem.c.o
                              (--whole-archive)
kernel/libnoninstrumentables.a.p/generic_src_lib_ra.c.o
                              (--whole-archive)
kernel/libnoninstrumentables.a.p/generic_src_lib_rd.c.o
                              (--whole-archive)
kernel/libnoninstrumentables.a.p/generic_src_lib_ubsan.c.o
                              (--whole-archive)
kernel/libnoninstrumentables.a.p/generic_src_log_log.c.o
                              (--whole-archive)
kernel/libnoninstrumentables.a.p/generic_src_main_shutdown.c.o
                              (--whole-archive)
kernel/libnoninstrumentables.a.p/generic_src_main_uinit.c.o
                              (--whole-archive)
kernel/libnoninstrumentables.a.p/generic_src_main_version.c.o
                              (--whole-archive)
kernel/libnoninstrumentables.a.p/generic_src_mm_backend_anon.c.o
                              (--whole-archive)
kernel/libnoninstrumentables.a.p/generic_src_mm_backend_elf.c.o
                              (--whole-archive)
kernel/libnoninstrumentables.a.p/generic_src_mm_backend_phys.c.o
                              (--whole-archive)
kernel/libnoninstrumentables.a.p/generic_src_mm_backend_user.c.o
                              (--whole-archive)
kernel/libnoninstrumentables.a.p/generic_src_mm_km.c.o
                              (--whole-archive)
kernel/libnoninstrumentables.a.p/generic_src_mm_malloc.c.o
                              (--whole-archive)
kernel/libnoninstrumentables.a.p/generic_src_mm_reserve.c.o
                              (--whole-archive)
kernel/libnoninstrumentables.a.p/generic_src_printf_printf.c.o
                              (--whole-archive)
kernel/libnoninstrumentables.a.p/generic_src_printf_snprintf.c.o
                              (--whole-archive)
kernel/libnoninstrumentables.a.p/generic_src_printf_vprintf.c.o
                              (--whole-archive)
kernel/libnoninstrumentables.a.p/generic_src_printf_vsnprintf.c.o
                              (--whole-archive)
kernel/libnoninstrumentables.a.p/generic_src_proc_program.c.o
                              (--whole-archive)
kernel/libnoninstrumentables.a.p/generic_src_proc_scheduler.c.o
                              (--whole-archive)
kernel/libnoninstrumentables.a.p/generic_src_proc_task.c.o
                              (--whole-archive)
kernel/libnoninstrumentables.a.p/generic_src_proc_thread.c.o
                              (--whole-archive)
kernel/libnoninstrumentables.a.p/generic_src_security_perm.c.o
                              (--whole-archive)
kernel/libnoninstrumentables.a.p/generic_src_smp_ipi.c.o
                              (--whole-archive)
kernel/libnoninstrumentables.a.p/generic_src_smp_smp.c.o
                              (--whole-archive)
kernel/libnoninstrumentables.a.p/generic_src_synch_condvar.c.o
                              (--whole-archive)
kernel/libnoninstrumentables.a.p/generic_src_synch_irq_spinlock.c.o
                              (--whole-archive)
kernel/libnoninstrumentables.a.p/generic_src_synch_mutex.c.o
                              (--whole-archive)
kernel/libnoninstrumentables.a.p/generic_src_synch_semaphore.c.o
                              (--whole-archive)
kernel/libnoninstrumentables.a.p/generic_src_synch_smc.c.o
                              (--whole-archive)
kernel/libnoninstrumentables.a.p/generic_src_synch_spinlock.c.o
                              (--whole-archive)
kernel/libnoninstrumentables.a.p/generic_src_synch_syswaitq.c.o
                              (--whole-archive)
kernel/libnoninstrumentables.a.p/generic_src_synch_waitq.c.o
                              (--whole-archive)
kernel/libnoninstrumentables.a.p/generic_src_syscall_copy.c.o
                              (--whole-archive)
kernel/libnoninstrumentables.a.p/generic_src_syscall_syscall.c.o
                              (--whole-archive)
kernel/libnoninstrumentables.a.p/generic_src_sysinfo_stats.c.o
                              (--whole-archive)
kernel/libnoninstrumentables.a.p/generic_src_time_clock.c.o
                              (--whole-archive)
kernel/libnoninstrumentables.a.p/generic_src_time_delay.c.o
                              (--whole-archive)
kernel/libnoninstrumentables.a.p/generic_src_time_timeout.c.o
                              (--whole-archive)
kernel/libnoninstrumentables.a.p/generic_src_console_cmd.c.o
                              (--whole-archive)
kernel/libnoninstrumentables.a.p/generic_src_ipc_kbox.c.o
                              (--whole-archive)
kernel/libnoninstrumentables.a.p/generic_src_udebug_udebug.c.o
                              (--whole-archive)
kernel/libnoninstrumentables.a.p/generic_src_udebug_udebug_ops.c.o
                              (--whole-archive)
kernel/libnoninstrumentables.a.p/generic_src_udebug_udebug_ipc.c.o
                              (--whole-archive)
kernel/libnoninstrumentables.a.p/test_test.c.o
                              (--whole-archive)
kernel/libnoninstrumentables.a.p/test_atomic_atomic1.c.o
                              (--whole-archive)
kernel/libnoninstrumentables.a.p/test_fault_fault1.c.o
                              (--whole-archive)
kernel/libnoninstrumentables.a.p/test_mm_falloc1.c.o
                              (--whole-archive)
kernel/libnoninstrumentables.a.p/test_mm_falloc2.c.o
                              (--whole-archive)
kernel/libnoninstrumentables.a.p/test_mm_mapping1.c.o
                              (--whole-archive)
kernel/libnoninstrumentables.a.p/test_mm_slab1.c.o
                              (--whole-archive)
kernel/libnoninstrumentables.a.p/test_mm_slab2.c.o
                              (--whole-archive)
kernel/libnoninstrumentables.a.p/test_synch_semaphore1.c.o
                              (--whole-archive)
kernel/libnoninstrumentables.a.p/test_synch_semaphore2.c.o
                              (--whole-archive)
kernel/libnoninstrumentables.a.p/test_print_print1.c.o
                              (--whole-archive)
kernel/libnoninstrumentables.a.p/test_print_print2.c.o
                              (--whole-archive)
kernel/libnoninstrumentables.a.p/test_print_print3.c.o
                              (--whole-archive)
kernel/libnoninstrumentables.a.p/test_print_print4.c.o
                              (--whole-archive)
kernel/libnoninstrumentables.a.p/test_print_print5.c.o
                              (--whole-archive)
kernel/libnoninstrumentables.a.p/test_thread_thread1.c.o
                              (--whole-archive)
kernel/libnoninstrumentables.a.p/test_debug_mips1_skip.c.o
                              (--whole-archive)
kernel/libnoninstrumentables.a.p/test_mm_purge1_skip.c.o
                              (--whole-archive)

Discarded input sections

 .text          0x0000000000000000        0x0 kernel/libinstrumentables.a.p/generic_src_cpu_cpu.c.o
 .data          0x0000000000000000        0x0 kernel/libinstrumentables.a.p/generic_src_cpu_cpu.c.o
 .bss           0x0000000000000000        0x0 kernel/libinstrumentables.a.p/generic_src_cpu_cpu.c.o
 .text          0x0000000000000000        0x0 kernel/libinstrumentables.a.p/generic_src_ddi_ddi.c.o
 .data          0x0000000000000000        0x0 kernel/libinstrumentables.a.p/generic_src_ddi_ddi.c.o
 .bss           0x0000000000000000        0x0 kernel/libinstrumentables.a.p/generic_src_ddi_ddi.c.o
 .text          0x0000000000000000        0x0 kernel/libinstrumentables.a.p/generic_src_interrupt_interrupt.c.o
 .data          0x0000000000000000        0x0 kernel/libinstrumentables.a.p/generic_src_interrupt_interrupt.c.o
 .bss           0x0000000000000000        0x0 kernel/libinstrumentables.a.p/generic_src_interrupt_interrupt.c.o
 .text          0x0000000000000000        0x0 kernel/libinstrumentables.a.p/generic_src_main_kinit.c.o
 .data          0x0000000000000000        0x0 kernel/libinstrumentables.a.p/generic_src_main_kinit.c.o
 .bss           0x0000000000000000        0x0 kernel/libinstrumentables.a.p/generic_src_main_kinit.c.o
 .text          0x0000000000000000        0x0 kernel/libinstrumentables.a.p/generic_src_main_main.c.o
 .data          0x0000000000000000        0x0 kernel/libinstrumentables.a.p/generic_src_main_main.c.o
 .bss           0x0000000000000000        0x0 kernel/libinstrumentables.a.p/generic_src_main_main.c.o
 .text          0x0000000000000000        0x0 kernel/libinstrumentables.a.p/generic_src_mm_as.c.o
 .data          0x0000000000000000        0x0 kernel/libinstrumentables.a.p/generic_src_mm_as.c.o
 .bss           0x0000000000000000        0x0 kernel/libinstrumentables.a.p/generic_src_mm_as.c.o
 .text.as_hold  0x0000000000000000       0x51 kernel/libinstrumentables.a.p/generic_src_mm_as.c.o
 .text.as_pagemap_initialize
                0x0000000000000000       0x18 kernel/libinstrumentables.a.p/generic_src_mm_as.c.o
 .text.as_pagemap_finalize
                0x0000000000000000       0x53 kernel/libinstrumentables.a.p/generic_src_mm_as.c.o
 .text.as_pagemap_first
                0x0000000000000000       0x16 kernel/libinstrumentables.a.p/generic_src_mm_as.c.o
 .text.as_pagemap_next
                0x0000000000000000       0x1d kernel/libinstrumentables.a.p/generic_src_mm_as.c.o
 .text.as_pagemap_remove
                0x0000000000000000       0x2c kernel/libinstrumentables.a.p/generic_src_mm_as.c.o
 .text.page_table_create
                0x0000000000000000       0x69 kernel/libinstrumentables.a.p/generic_src_mm_as.c.o
 .text.page_table_destroy
                0x0000000000000000       0x6a kernel/libinstrumentables.a.p/generic_src_mm_as.c.o
 .rodata.as_print.str1.8
                0x0000000000000000       0x2b kernel/libinstrumentables.a.p/generic_src_mm_as.c.o
 .text.as_print
                0x0000000000000000       0x93 kernel/libinstrumentables.a.p/generic_src_mm_as.c.o
 .text          0x0000000000000000        0x0 kernel/libinstrumentables.a.p/generic_src_mm_frame.c.o
 .data          0x0000000000000000        0x0 kernel/libinstrumentables.a.p/generic_src_mm_frame.c.o
 .bss           0x0000000000000000        0x0 kernel/libinstrumentables.a.p/generic_src_mm_frame.c.o
 .text.zone_merge
                0x0000000000000000      0x2ff kernel/libinstrumentables.a.p/generic_src_mm_frame.c.o
 .text.zone_conf_size
                0x0000000000000000       0x21 kernel/libinstrumentables.a.p/generic_src_mm_frame.c.o
 .text          0x0000000000000000        0x0 kernel/libinstrumentables.a.p/generic_src_mm_page.c.o
 .data          0x0000000000000000        0x0 kernel/libinstrumentables.a.p/generic_src_mm_page.c.o
 .bss           0x0000000000000000        0x0 kernel/libinstrumentables.a.p/generic_src_mm_page.c.o
 .text.page_mapping_update
                0x0000000000000000       0xe2 kernel/libinstrumentables.a.p/generic_src_mm_page.c.o
 .rodata.__func__.1
                0x0000000000000000       0x14 kernel/libinstrumentables.a.p/generic_src_mm_page.c.o
 .text          0x0000000000000000        0x0 kernel/libinstrumentables.a.p/generic_src_mm_slab.c.o
 .data          0x0000000000000000        0x0 kernel/libinstrumentables.a.p/generic_src_mm_slab.c.o
 .bss           0x0000000000000000        0x0 kernel/libinstrumentables.a.p/generic_src_mm_slab.c.o
 .text          0x0000000000000000        0x0 kernel/libinstrumentables.a.p/generic_src_mm_tlb.c.o
 .data          0x0000000000000000        0x0 kernel/libinstrumentables.a.p/generic_src_mm_tlb.c.o
 .bss           0x0000000000000000        0x0 kernel/libinstrumentables.a.p/generic_src_mm_tlb.c.o
 .text.tlb_shootdown_ipi_send
                0x0000000000000000        0xf kernel/libinstrumentables.a.p/generic_src_mm_tlb.c.o
 .text          0x0000000000000000        0x0 kernel/libinstrumentables.a.p/generic_src_proc_current.c.o
 .data          0x0000000000000000        0x0 kernel/libinstrumentables.a.p/generic_src_proc_current.c.o
 .bss           0x0000000000000000        0x0 kernel/libinstrumentables.a.p/generic_src_proc_current.c.o
 .text          0x0000000000000000        0x0 kernel/libinstrumentables.a.p/generic_src_sysinfo_sysinfo.c.o
 .data          0x0000000000000000        0x0 kernel/libinstrumentables.a.p/generic_src_sysinfo_sysinfo.c.o
 .bss           0x0000000000000000        0x0 kernel/libinstrumentables.a.p/generic_src_sysinfo_sysinfo.c.o
 .text.sysinfo_set_item_gen_val
                0x0000000000000000       0x93 kernel/libinstrumentables.a.p/generic_src_sysinfo_sysinfo.c.o
 .text.sysinfo_set_item_undefined
                0x0000000000000000       0x71 kernel/libinstrumentables.a.p/generic_src_sysinfo_sysinfo.c.o
 .text          0x0000000000000000        0x0 kernel/libinstrumentables.a.p/generic_src_console_kconsole.c.o
 .data          0x0000000000000000        0x0 kernel/libinstrumentables.a.p/generic_src_console_kconsole.c.o
 .bss           0x0000000000000000        0x0 kernel/libinstrumentables.a.p/generic_src_console_kconsole.c.o
 .text          0x0000000000000000        0x0 kernel/libnoninstrumentables.a.p/meson-generated_memmap_struct.h.check.c.o
 .data          0x0000000000000000        0x0 kernel/libnoninstrumentables.a.p/meson-generated_memmap_struct.h.check.c.o
 .bss           0x0000000000000000        0x0 kernel/libnoninstrumentables.a.p/meson-generated_memmap_struct.h.check.c.o
 .debug_line    0x0000000000000000        0x0 kernel/libnoninstrumentables.a.p/meson-generated_memmap_struct.h.check.c.o
 .debug_str     0x0000000000000000      0x162 kernel/libnoninstrumentables.a.p/meson-generated_memmap_struct.h.check.c.o
 .debug_line_str
                0x0000000000000000       0x54 kernel/libnoninstrumentables.a.p/meson-generated_memmap_struct.h.check.c.o
 .comment       0x0000000000000000       0x13 kernel/libnoninstrumentables.a.p/meson-generated_memmap_struct.h.check.c.o
 .text          0x0000000000000000        0x0 kernel/libnoninstrumentables.a.p/meson-generated_context_struct.h.check.c.o
 .data          0x0000000000000000        0x0 kernel/libnoninstrumentables.a.p/meson-generated_context_struct.h.check.c.o
 .bss           0x0000000000000000        0x0 kernel/libnoninstrumentables.a.p/meson-generated_context_struct.h.check.c.o
 .debug_line    0x0000000000000000        0x0 kernel/libnoninstrumentables.a.p/meson-generated_context_struct.h.check.c.o
 .debug_str     0x0000000000000000      0x162 kernel/libnoninstrumentables.a.p/meson-generated_context_struct.h.check.c.o
 .debug_line_str
                0x0000000000000000       0x55 kernel/libnoninstrumentables.a.p/meson-generated_context_struct.h.check.c.o
 .comment       0x0000000000000000       0x13 kernel/libnoninstrumentables.a.p/meson-generated_context_struct.h.check.c.o
 .text          0x0000000000000000        0x0 kernel/libnoninstrumentables.a.p/meson-generated_istate_struct.h.check.c.o
 .data          0x0000000000000000        0x0 kernel/libnoninstrumentables.a.p/meson-generated_istate_struct.h.check.c.o
 .bss           0x0000000000000000        0x0 kernel/libnoninstrumentables.a.p/meson-generated_istate_struct.h.check.c.o
 .debug_line    0x0000000000000000        0x0 kernel/libnoninstrumentables.a.p/meson-generated_istate_struct.h.check.c.o
 .debug_str     0x0000000000000000      0x162 kernel/libnoninstrumentables.a.p/meson-generated_istate_struct.h.check.c.o
 .debug_line_str
                0x0000000000000000       0x54 kernel/libnoninstrumentables.a.p/meson-generated_istate_struct.h.check.c.o
 .comment       0x0000000000000000       0x13 kernel/libnoninstrumentables.a.p/meson-generated_istate_struct.h.check.c.o
 .text          0x0000000000000000        0x0 kernel/libnoninstrumentables.a.p/meson-generated_kseg_struct.h.check.c.o
 .data          0x0000000000000000        0x0 kernel/libnoninstrumentables.a.p/meson-generated_kseg_struct.h.check.c.o
 .bss           0x0000000000000000        0x0 kernel/libnoninstrumentables.a.p/meson-generated_kseg_struct.h.check.c.o
 .debug_line    0x0000000000000000        0x0 kernel/libnoninstrumentables.a.p/meson-generated_kseg_struct.h.check.c.o
 .debug_str     0x0000000000000000      0x162 kernel/libnoninstrumentables.a.p/meson-generated_kseg_struct.h.check.c.o
 .debug_line_str
                0x0000000000000000       0x52 kernel/libnoninstrumentables.a.p/meson-generated_kseg_struct.h.check.c.o
 .comment       0x0000000000000000       0x13 kernel/libnoninstrumentables.a.p/meson-generated_kseg_struct.h.check.c.o
 .text          0x0000000000000000        0x0 kernel/libnoninstrumentables.a.p/meson-generated_multiboot_memmap_struct.h.check.c.o
 .data          0x0000000000000000        0x0 kernel/libnoninstrumentables.a.p/meson-generated_multiboot_memmap_struct.h.check.c.o
 .bss           0x0000000000000000        0x0 kernel/libnoninstrumentables.a.p/meson-generated_multiboot_memmap_struct.h.check.c.o
 .debug_line    0x0000000000000000        0x0 kernel/libnoninstrumentables.a.p/meson-generated_multiboot_memmap_struct.h.check.c.o
 .debug_str     0x0000000000000000      0x162 kernel/libnoninstrumentables.a.p/meson-generated_multiboot_memmap_struct.h.check.c.o
 .debug_line_str
                0x0000000000000000       0x5e kernel/libnoninstrumentables.a.p/meson-generated_multiboot_memmap_struct.h.check.c.o
 .comment       0x0000000000000000       0x13 kernel/libnoninstrumentables.a.p/meson-generated_multiboot_memmap_struct.h.check.c.o
 .text          0x0000000000000000        0x0 kernel/libnoninstrumentables.a.p/meson-generated_multiboot_info_struct.h.check.c.o
 .data          0x0000000000000000        0x0 kernel/libnoninstrumentables.a.p/meson-generated_multiboot_info_struct.h.check.c.o
 .bss           0x0000000000000000        0x0 kernel/libnoninstrumentables.a.p/meson-generated_multiboot_info_struct.h.check.c.o
 .debug_line    0x0000000000000000        0x0 kernel/libnoninstrumentables.a.p/meson-generated_multiboot_info_struct.h.check.c.o
 .debug_str     0x0000000000000000      0x162 kernel/libnoninstrumentables.a.p/meson-generated_multiboot_info_struct.h.check.c.o
 .debug_line_str
                0x0000000000000000       0x5c kernel/libnoninstrumentables.a.p/meson-generated_multiboot_info_struct.h.check.c.o
 .comment       0x0000000000000000       0x13 kernel/libnoninstrumentables.a.p/meson-generated_multiboot_info_struct.h.check.c.o
 .text          0x0000000000000000        0x0 kernel/libnoninstrumentables.a.p/arch_amd64_src_amd64.c.o
 .data          0x0000000000000000        0x0 kernel/libnoninstrumentables.a.p/arch_amd64_src_amd64.c.o
 .bss           0x0000000000000000        0x0 kernel/libnoninstrumentables.a.p/arch_amd64_src_amd64.c.o
 .data          0x0000000000000000        0x0 kernel/libnoninstrumentables.a.p/arch_amd64_src_asm.S.o
 .bss           0x0000000000000000        0x0 kernel/libnoninstrumentables.a.p/arch_amd64_src_asm.S.o
 .text          0x0000000000000000        0x0 kernel/libnoninstrumentables.a.p/arch_amd64_src_bios_bios.c.o
 .data          0x0000000000000000        0x0 kernel/libnoninstrumentables.a.p/arch_amd64_src_bios_bios.c.o
 .bss           0x0000000000000000        0x0 kernel/libnoninstrumentables.a.p/arch_amd64_src_bios_bios.c.o
 .text          0x0000000000000000        0x0 kernel/libnoninstrumentables.a.p/arch_amd64_src_boot_memmap.c.o
 .data          0x0000000000000000        0x0 kernel/libnoninstrumentables.a.p/arch_amd64_src_boot_memmap.c.o
 .bss           0x0000000000000000        0x0 kernel/libnoninstrumentables.a.p/arch_amd64_src_boot_memmap.c.o
 .text          0x0000000000000000        0x0 kernel/libnoninstrumentables.a.p/arch_amd64_src_boot_multiboot2.S.o
 .data          0x0000000000000000        0x0 kernel/libnoninstrumentables.a.p/arch_amd64_src_boot_multiboot2.S.o
 .bss           0x0000000000000000        0x0 kernel/libnoninstrumentables.a.p/arch_amd64_src_boot_multiboot2.S.o
 .text          0x0000000000000000        0x0 kernel/libnoninstrumentables.a.p/arch_amd64_src_boot_multiboot.S.o
 .data          0x0000000000000000        0x0 kernel/libnoninstrumentables.a.p/arch_amd64_src_boot_multiboot.S.o
 .bss           0x0000000000000000        0x0 kernel/libnoninstrumentables.a.p/arch_amd64_src_boot_multiboot.S.o
 .data          0x0000000000000000        0x0 kernel/libnoninstrumentables.a.p/arch_amd64_src_context.S.o
 .bss           0x0000000000000000        0x0 kernel/libnoninstrumentables.a.p/arch_amd64_src_context.S.o
 .text          0x0000000000000000        0x0 kernel/libnoninstrumentables.a.p/arch_amd64_src_cpu_cpu.c.o
 .data          0x0000000000000000        0x0 kernel/libnoninstrumentables.a.p/arch_amd64_src_cpu_cpu.c.o
 .bss           0x0000000000000000        0x0 kernel/libnoninstrumentables.a.p/arch_amd64_src_cpu_cpu.c.o
 .text          0x0000000000000000        0x0 kernel/libnoninstrumentables.a.p/arch_amd64_src_ddi_ddi.c.o
 .data          0x0000000000000000        0x0 kernel/libnoninstrumentables.a.p/arch_amd64_src_ddi_ddi.c.o
 .bss           0x0000000000000000        0x0 kernel/libnoninstrumentables.a.p/arch_amd64_src_ddi_ddi.c.o
 .data          0x0000000000000000        0x0 kernel/libnoninstrumentables.a.p/arch_amd64_src_debug_stacktrace_asm.S.o
 .bss           0x0000000000000000        0x0 kernel/libnoninstrumentables.a.p/arch_amd64_src_debug_stacktrace_asm.S.o
 .text          0x0000000000000000        0x0 kernel/libnoninstrumentables.a.p/arch_amd64_src_debug_stacktrace.c.o
 .data          0x0000000000000000        0x0 kernel/libnoninstrumentables.a.p/arch_amd64_src_debug_stacktrace.c.o
 .bss           0x0000000000000000        0x0 kernel/libnoninstrumentables.a.p/arch_amd64_src_debug_stacktrace.c.o
 .data          0x0000000000000000        0x0 kernel/libnoninstrumentables.a.p/arch_amd64_src_delay.S.o
 .bss           0x0000000000000000        0x0 kernel/libnoninstrumentables.a.p/arch_amd64_src_delay.S.o
 .text          0x0000000000000000        0x0 kernel/libnoninstrumentables.a.p/arch_amd64_src_drivers_i8254.c.o
 .data          0x0000000000000000        0x0 kernel/libnoninstrumentables.a.p/arch_amd64_src_drivers_i8254.c.o
 .bss           0x0000000000000000        0x0 kernel/libnoninstrumentables.a.p/arch_amd64_src_drivers_i8254.c.o
 .text          0x0000000000000000        0x0 kernel/libnoninstrumentables.a.p/arch_amd64_src_fpu_context.c.o
 .data          0x0000000000000000        0x0 kernel/libnoninstrumentables.a.p/arch_amd64_src_fpu_context.c.o
 .bss           0x0000000000000000        0x0 kernel/libnoninstrumentables.a.p/arch_amd64_src_fpu_context.c.o
 .text          0x0000000000000000        0x0 kernel/libnoninstrumentables.a.p/arch_amd64_src_interrupt.c.o
 .data          0x0000000000000000        0x0 kernel/libnoninstrumentables.a.p/arch_amd64_src_interrupt.c.o
 .bss           0x0000000000000000        0x0 kernel/libnoninstrumentables.a.p/arch_amd64_src_interrupt.c.o
 .text          0x0000000000000000        0x0 kernel/libnoninstrumentables.a.p/arch_amd64_src_kseg.c.o
 .data          0x0000000000000000        0x0 kernel/libnoninstrumentables.a.p/arch_amd64_src_kseg.c.o
 .bss           0x0000000000000000        0x0 kernel/libnoninstrumentables.a.p/arch_amd64_src_kseg.c.o
 .text          0x0000000000000000        0x0 kernel/libnoninstrumentables.a.p/arch_amd64_src_mm_as.c.o
 .data          0x0000000000000000        0x0 kernel/libnoninstrumentables.a.p/arch_amd64_src_mm_as.c.o
 .bss           0x0000000000000000        0x0 kernel/libnoninstrumentables.a.p/arch_amd64_src_mm_as.c.o
 .text          0x0000000000000000        0x0 kernel/libnoninstrumentables.a.p/arch_amd64_src_mm_frame.c.o
 .data          0x0000000000000000        0x0 kernel/libnoninstrumentables.a.p/arch_amd64_src_mm_frame.c.o
 .bss           0x0000000000000000        0x0 kernel/libnoninstrumentables.a.p/arch_amd64_src_mm_frame.c.o
 .text          0x0000000000000000        0x0 kernel/libnoninstrumentables.a.p/arch_amd64_src_mm_km.c.o
 .data          0x0000000000000000        0x0 kernel/libnoninstrumentables.a.p/arch_amd64_src_mm_km.c.o
 .bss           0x0000000000000000        0x0 kernel/libnoninstrumentables.a.p/arch_amd64_src_mm_km.c.o
 .text          0x0000000000000000        0x0 kernel/libnoninstrumentables.a.p/arch_amd64_src_mm_page.c.o
 .data          0x0000000000000000        0x0 kernel/libnoninstrumentables.a.p/arch_amd64_src_mm_page.c.o
 .bss           0x0000000000000000        0x0 kernel/libnoninstrumentables.a.p/arch_amd64_src_mm_page.c.o
 .text          0x0000000000000000        0x0 kernel/libnoninstrumentables.a.p/arch_amd64_src_mm_tlb.c.o
 .data          0x0000000000000000        0x0 kernel/libnoninstrumentables.a.p/arch_amd64_src_mm_tlb.c.o
 .bss           0x0000000000000000        0x0 kernel/libnoninstrumentables.a.p/arch_amd64_src_mm_tlb.c.o
 .text          0x0000000000000000        0x0 kernel/libnoninstrumentables.a.p/arch_amd64_src_pm.c.o
 .data          0x0000000000000000        0x0 kernel/libnoninstrumentables.a.p/arch_amd64_src_pm.c.o
 .bss           0x0000000000000000        0x0 kernel/libnoninstrumentables.a.p/arch_amd64_src_pm.c.o
 .text.gdt_tss_setbase
                0x0000000000000000       0x3f kernel/libnoninstrumentables.a.p/arch_amd64_src_pm.c.o
 .text.idt_setoffset
                0x0000000000000000       0x37 kernel/libnoninstrumentables.a.p/arch_amd64_src_pm.c.o
 .text.tss_initialize
                0x0000000000000000       0x11 kernel/libnoninstrumentables.a.p/arch_amd64_src_pm.c.o
 .text          0x0000000000000000        0x0 kernel/libnoninstrumentables.a.p/arch_amd64_src_proc_scheduler.c.o
 .data          0x0000000000000000        0x0 kernel/libnoninstrumentables.a.p/arch_amd64_src_proc_scheduler.c.o
 .bss           0x0000000000000000        0x0 kernel/libnoninstrumentables.a.p/arch_amd64_src_proc_scheduler.c.o
 .text          0x0000000000000000        0x0 kernel/libnoninstrumentables.a.p/arch_amd64_src_proc_task.c.o
 .data          0x0000000000000000        0x0 kernel/libnoninstrumentables.a.p/arch_amd64_src_proc_task.c.o
 .bss           0x0000000000000000        0x0 kernel/libnoninstrumentables.a.p/arch_amd64_src_proc_task.c.o
 .text          0x0000000000000000        0x0 kernel/libnoninstrumentables.a.p/arch_amd64_src_proc_thread.c.o
 .data          0x0000000000000000        0x0 kernel/libnoninstrumentables.a.p/arch_amd64_src_proc_thread.c.o
 .bss           0x0000000000000000        0x0 kernel/libnoninstrumentables.a.p/arch_amd64_src_proc_thread.c.o
 .text          0x0000000000000000        0x0 kernel/libnoninstrumentables.a.p/arch_amd64_src_smc.c.o
 .data          0x0000000000000000        0x0 kernel/libnoninstrumentables.a.p/arch_amd64_src_smc.c.o
 .bss           0x0000000000000000        0x0 kernel/libnoninstrumentables.a.p/arch_amd64_src_smc.c.o
 .text          0x0000000000000000        0x0 kernel/libnoninstrumentables.a.p/arch_amd64_src_syscall.c.o
 .data          0x0000000000000000        0x0 kernel/libnoninstrumentables.a.p/arch_amd64_src_syscall.c.o
 .bss           0x0000000000000000        0x0 kernel/libnoninstrumentables.a.p/arch_amd64_src_syscall.c.o
 .text          0x0000000000000000        0x0 kernel/libnoninstrumentables.a.p/arch_amd64_src_userspace.c.o
 .data          0x0000000000000000        0x0 kernel/libnoninstrumentables.a.p/arch_amd64_src_userspace.c.o
 .bss           0x0000000000000000        0x0 kernel/libnoninstrumentables.a.p/arch_amd64_src_userspace.c.o
 .text          0x0000000000000000        0x0 kernel/libnoninstrumentables.a.p/arch_amd64_src_vreg.c.o
 .data          0x0000000000000000        0x0 kernel/libnoninstrumentables.a.p/arch_amd64_src_vreg.c.o
 .bss           0x0000000000000000        0x0 kernel/libnoninstrumentables.a.p/arch_amd64_src_vreg.c.o
 .text          0x0000000000000000        0x0 kernel/libnoninstrumentables.a.p/arch_amd64_src_smp_apic.c.o
 .data          0x0000000000000000        0x0 kernel/libnoninstrumentables.a.p/arch_amd64_src_smp_apic.c.o
 .bss           0x0000000000000000        0x0 kernel/libnoninstrumentables.a.p/arch_amd64_src_smp_apic.c.o
 .text.l_apic_send_custom_ipi
                0x0000000000000000       0x70 kernel/libnoninstrumentables.a.p/arch_amd64_src_smp_apic.c.o
 .text.io_apic_read
                0x0000000000000000       0x17 kernel/libnoninstrumentables.a.p/arch_amd64_src_smp_apic.c.o
 .text.io_apic_write
                0x0000000000000000       0x17 kernel/libnoninstrumentables.a.p/arch_amd64_src_smp_apic.c.o
 .text.io_apic_change_ioredtbl
                0x0000000000000000       0x7a kernel/libnoninstrumentables.a.p/arch_amd64_src_smp_apic.c.o
 .text          0x0000000000000000        0x0 kernel/libnoninstrumentables.a.p/arch_amd64_src_smp_ap.S.o
 .data          0x0000000000000000        0x0 kernel/libnoninstrumentables.a.p/arch_amd64_src_smp_ap.S.o
 .bss           0x0000000000000000        0x0 kernel/libnoninstrumentables.a.p/arch_amd64_src_smp_ap.S.o
 .text          0x0000000000000000        0x0 kernel/libnoninstrumentables.a.p/arch_amd64_src_smp_ipi.c.o
 .data          0x0000000000000000        0x0 kernel/libnoninstrumentables.a.p/arch_amd64_src_smp_ipi.c.o
 .bss           0x0000000000000000        0x0 kernel/libnoninstrumentables.a.p/arch_amd64_src_smp_ipi.c.o
 .text          0x0000000000000000        0x0 kernel/libnoninstrumentables.a.p/arch_amd64_src_smp_mps.c.o
 .data          0x0000000000000000        0x0 kernel/libnoninstrumentables.a.p/arch_amd64_src_smp_mps.c.o
 .bss           0x0000000000000000        0x0 kernel/libnoninstrumentables.a.p/arch_amd64_src_smp_mps.c.o
 .text          0x0000000000000000        0x0 kernel/libnoninstrumentables.a.p/arch_amd64_src_smp_smp.c.o
 .data          0x0000000000000000        0x0 kernel/libnoninstrumentables.a.p/arch_amd64_src_smp_smp.c.o
 .bss           0x0000000000000000        0x0 kernel/libnoninstrumentables.a.p/arch_amd64_src_smp_smp.c.o
 .text          0x0000000000000000        0x0 kernel/libnoninstrumentables.a.p/genarch_src_acpi_acpi.c.o
 .data          0x0000000000000000        0x0 kernel/libnoninstrumentables.a.p/genarch_src_acpi_acpi.c.o
 .bss           0x0000000000000000        0x0 kernel/libnoninstrumentables.a.p/genarch_src_acpi_acpi.c.o
 .text.acpi_sdt_check
                0x0000000000000000      0x31a kernel/libnoninstrumentables.a.p/genarch_src_acpi_acpi.c.o
 .text          0x0000000000000000        0x0 kernel/libnoninstrumentables.a.p/genarch_src_acpi_madt.c.o
 .data          0x0000000000000000        0x0 kernel/libnoninstrumentables.a.p/genarch_src_acpi_madt.c.o
 .bss           0x0000000000000000        0x0 kernel/libnoninstrumentables.a.p/genarch_src_acpi_madt.c.o
 .bss.madt_io_apic_entries
                0x0000000000000000        0x8 kernel/libnoninstrumentables.a.p/genarch_src_acpi_madt.c.o
 .bss.madt_l_apic_entries
                0x0000000000000000        0x8 kernel/libnoninstrumentables.a.p/genarch_src_acpi_madt.c.o
 .text          0x0000000000000000        0x0 kernel/libnoninstrumentables.a.p/genarch_src_mm_page_pt.c.o
 .data          0x0000000000000000        0x0 kernel/libnoninstrumentables.a.p/genarch_src_mm_page_pt.c.o
 .bss           0x0000000000000000        0x0 kernel/libnoninstrumentables.a.p/genarch_src_mm_page_pt.c.o
 .text          0x0000000000000000        0x0 kernel/libnoninstrumentables.a.p/genarch_src_mm_as_pt.c.o
 .data          0x0000000000000000        0x0 kernel/libnoninstrumentables.a.p/genarch_src_mm_as_pt.c.o
 .bss           0x0000000000000000        0x0 kernel/libnoninstrumentables.a.p/genarch_src_mm_as_pt.c.o
 .text          0x0000000000000000        0x0 kernel/libnoninstrumentables.a.p/genarch_src_fb_font-8x16.c.o
 .data          0x0000000000000000        0x0 kernel/libnoninstrumentables.a.p/genarch_src_fb_font-8x16.c.o
 .bss           0x0000000000000000        0x0 kernel/libnoninstrumentables.a.p/genarch_src_fb_font-8x16.c.o
 .text          0x0000000000000000        0x0 kernel/libnoninstrumentables.a.p/genarch_src_fb_fb.c.o
 .data          0x0000000000000000        0x0 kernel/libnoninstrumentables.a.p/genarch_src_fb_fb.c.o
 .bss           0x0000000000000000        0x0 kernel/libnoninstrumentables.a.p/genarch_src_fb_fb.c.o
 .text          0x0000000000000000        0x0 kernel/libnoninstrumentables.a.p/genarch_src_fb_bfb.c.o
 .data          0x0000000000000000        0x0 kernel/libnoninstrumentables.a.p/genarch_src_fb_bfb.c.o
 .bss           0x0000000000000000        0x0 kernel/libnoninstrumentables.a.p/genarch_src_fb_bfb.c.o
 .text          0x0000000000000000        0x0 kernel/libnoninstrumentables.a.p/genarch_src_drivers_i8042_i8042.c.o
 .data          0x0000000000000000        0x0 kernel/libnoninstrumentables.a.p/genarch_src_drivers_i8042_i8042.c.o
 .bss           0x0000000000000000        0x0 kernel/libnoninstrumentables.a.p/genarch_src_drivers_i8042_i8042.c.o
 .text          0x0000000000000000        0x0 kernel/libnoninstrumentables.a.p/genarch_src_drivers_i8259_i8259.c.o
 .data          0x0000000000000000        0x0 kernel/libnoninstrumentables.a.p/genarch_src_drivers_i8259_i8259.c.o
 .bss           0x0000000000000000        0x0 kernel/libnoninstrumentables.a.p/genarch_src_drivers_i8259_i8259.c.o
 .text          0x0000000000000000        0x0 kernel/libnoninstrumentables.a.p/genarch_src_drivers_ns16550_ns16550.c.o
 .data          0x0000000000000000        0x0 kernel/libnoninstrumentables.a.p/genarch_src_drivers_ns16550_ns16550.c.o
 .bss           0x0000000000000000        0x0 kernel/libnoninstrumentables.a.p/genarch_src_drivers_ns16550_ns16550.c.o
 .text          0x0000000000000000        0x0 kernel/libnoninstrumentables.a.p/genarch_src_drivers_pl011_pl011.c.o
 .data          0x0000000000000000        0x0 kernel/libnoninstrumentables.a.p/genarch_src_drivers_pl011_pl011.c.o
 .bss           0x0000000000000000        0x0 kernel/libnoninstrumentables.a.p/genarch_src_drivers_pl011_pl011.c.o
 .text.pl011_uart_claim
                0x0000000000000000        0xb kernel/libnoninstrumentables.a.p/genarch_src_drivers_pl011_pl011.c.o
 .text.pl011_uart_irq_handler
                0x0000000000000000       0xd5 kernel/libnoninstrumentables.a.p/genarch_src_drivers_pl011_pl011.c.o
 .text.pl011_uart_putuchar
                0x0000000000000000      0x11b kernel/libnoninstrumentables.a.p/genarch_src_drivers_pl011_pl011.c.o
 .rodata.pl011_uart_init.str1.1
                0x0000000000000000       0x31 kernel/libnoninstrumentables.a.p/genarch_src_drivers_pl011_pl011.c.o
 .rodata.pl011_uart_init.str1.8
                0x0000000000000000       0x37 kernel/libnoninstrumentables.a.p/genarch_src_drivers_pl011_pl011.c.o
 .text.pl011_uart_init
                0x0000000000000000      0x168 kernel/libnoninstrumentables.a.p/genarch_src_drivers_pl011_pl011.c.o
 .rodata.pl011_uart_input_wire.str1.1
                0x0000000000000000        0x6 kernel/libnoninstrumentables.a.p/genarch_src_drivers_pl011_pl011.c.o
 .text.pl011_uart_input_wire
                0x0000000000000000       0xa8 kernel/libnoninstrumentables.a.p/genarch_src_drivers_pl011_pl011.c.o
 .rodata.__func__.0
                0x0000000000000000       0x16 kernel/libnoninstrumentables.a.p/genarch_src_drivers_pl011_pl011.c.o
 .rodata.__func__.1
                0x0000000000000000       0x10 kernel/libnoninstrumentables.a.p/genarch_src_drivers_pl011_pl011.c.o
 .data.pl011_uart_ops
                0x0000000000000000       0x20 kernel/libnoninstrumentables.a.p/genarch_src_drivers_pl011_pl011.c.o
 .text          0x0000000000000000        0x0 kernel/libnoninstrumentables.a.p/genarch_src_kbrd_kbrd.c.o
 .data          0x0000000000000000        0x0 kernel/libnoninstrumentables.a.p/genarch_src_kbrd_kbrd.c.o
 .bss           0x0000000000000000        0x0 kernel/libnoninstrumentables.a.p/genarch_src_kbrd_kbrd.c.o
 .text          0x0000000000000000        0x0 kernel/libnoninstrumentables.a.p/genarch_src_kbrd_scanc_pc.c.o
 .data          0x0000000000000000        0x0 kernel/libnoninstrumentables.a.p/genarch_src_kbrd_scanc_pc.c.o
 .bss           0x0000000000000000        0x0 kernel/libnoninstrumentables.a.p/genarch_src_kbrd_scanc_pc.c.o
 .text          0x0000000000000000        0x0 kernel/libnoninstrumentables.a.p/genarch_src_srln_srln.c.o
 .data          0x0000000000000000        0x0 kernel/libnoninstrumentables.a.p/genarch_src_srln_srln.c.o
 .bss           0x0000000000000000        0x0 kernel/libnoninstrumentables.a.p/genarch_src_srln_srln.c.o
 .text          0x0000000000000000        0x0 kernel/libnoninstrumentables.a.p/genarch_src_multiboot_common.c.o
 .data          0x0000000000000000        0x0 kernel/libnoninstrumentables.a.p/genarch_src_multiboot_common.c.o
 .bss           0x0000000000000000        0x0 kernel/libnoninstrumentables.a.p/genarch_src_multiboot_common.c.o
 .text          0x0000000000000000        0x0 kernel/libnoninstrumentables.a.p/genarch_src_multiboot_multiboot.c.o
 .data          0x0000000000000000        0x0 kernel/libnoninstrumentables.a.p/genarch_src_multiboot_multiboot.c.o
 .bss           0x0000000000000000        0x0 kernel/libnoninstrumentables.a.p/genarch_src_multiboot_multiboot.c.o
 .text          0x0000000000000000        0x0 kernel/libnoninstrumentables.a.p/genarch_src_multiboot_multiboot2.c.o
 .data          0x0000000000000000        0x0 kernel/libnoninstrumentables.a.p/genarch_src_multiboot_multiboot2.c.o
 .bss           0x0000000000000000        0x0 kernel/libnoninstrumentables.a.p/genarch_src_multiboot_multiboot2.c.o
 .text          0x0000000000000000        0x0 kernel/libnoninstrumentables.a.p/genarch_src_drivers_ega_ega.c.o
 .data          0x0000000000000000        0x0 kernel/libnoninstrumentables.a.p/genarch_src_drivers_ega_ega.c.o
 .bss           0x0000000000000000        0x0 kernel/libnoninstrumentables.a.p/genarch_src_drivers_ega_ega.c.o
 .text          0x0000000000000000        0x0 kernel/libnoninstrumentables.a.p/genarch_src_ddi_ddi-bitmap.c.o
 .data          0x0000000000000000        0x0 kernel/libnoninstrumentables.a.p/genarch_src_ddi_ddi-bitmap.c.o
 .bss           0x0000000000000000        0x0 kernel/libnoninstrumentables.a.p/genarch_src_ddi_ddi-bitmap.c.o
 .text          0x0000000000000000        0x0 kernel/libnoninstrumentables.a.p/generic_common_adt_bitmap.c.o
 .data          0x0000000000000000        0x0 kernel/libnoninstrumentables.a.p/generic_common_adt_bitmap.c.o
 .bss           0x0000000000000000        0x0 kernel/libnoninstrumentables.a.p/generic_common_adt_bitmap.c.o
 .text          0x0000000000000000        0x0 kernel/libnoninstrumentables.a.p/generic_common_adt_hash_table.c.o
 .data          0x0000000000000000        0x0 kernel/libnoninstrumentables.a.p/generic_common_adt_hash_table.c.o
 .bss           0x0000000000000000        0x0 kernel/libnoninstrumentables.a.p/generic_common_adt_hash_table.c.o
 .text.alloc_table.part.0
                0x0000000000000000       0x41 kernel/libnoninstrumentables.a.p/generic_common_adt_hash_table.c.o
 .text.hash_table_empty
                0x0000000000000000       0x56 kernel/libnoninstrumentables.a.p/generic_common_adt_hash_table.c.o
 .text.hash_table_size
                0x0000000000000000       0x52 kernel/libnoninstrumentables.a.p/generic_common_adt_hash_table.c.o
 .text.hash_table_clear
                0x0000000000000000       0x9e kernel/libnoninstrumentables.a.p/generic_common_adt_hash_table.c.o
 .rodata.hash_table_insert_unique.str1.8
                0x0000000000000000       0x45 kernel/libnoninstrumentables.a.p/generic_common_adt_hash_table.c.o
 .text.hash_table_insert_unique
                0x0000000000000000      0x182 kernel/libnoninstrumentables.a.p/generic_common_adt_hash_table.c.o
 .text.hash_table_remove
                0x0000000000000000      0x159 kernel/libnoninstrumentables.a.p/generic_common_adt_hash_table.c.o
 .rodata.hash_table_apply.str1.1
                0x0000000000000000        0x2 kernel/libnoninstrumentables.a.p/generic_common_adt_hash_table.c.o
 .text.hash_table_apply
                0x0000000000000000      0x178 kernel/libnoninstrumentables.a.p/generic_common_adt_hash_table.c.o
 .rodata.__func__.0
                0x0000000000000000       0x11 kernel/libnoninstrumentables.a.p/generic_common_adt_hash_table.c.o
 .rodata.__func__.2
                0x0000000000000000       0x12 kernel/libnoninstrumentables.a.p/generic_common_adt_hash_table.c.o
 .rodata.__func__.5
                0x0000000000000000       0x19 kernel/libnoninstrumentables.a.p/generic_common_adt_hash_table.c.o
 .rodata.__func__.8
                0x0000000000000000       0x11 kernel/libnoninstrumentables.a.p/generic_common_adt_hash_table.c.o
 .rodata.__func__.9
                0x0000000000000000       0x10 kernel/libnoninstrumentables.a.p/generic_common_adt_hash_table.c.o
 .rodata.__func__.10
                0x0000000000000000       0x11 kernel/libnoninstrumentables.a.p/generic_common_adt_hash_table.c.o
 .rodata.__func__.13
                0x0000000000000000        0xc kernel/libnoninstrumentables.a.p/generic_common_adt_hash_table.c.o
 .text          0x0000000000000000        0x0 kernel/libnoninstrumentables.a.p/generic_common_adt_list.c.o
 .data          0x0000000000000000        0x0 kernel/libnoninstrumentables.a.p/generic_common_adt_list.c.o
 .bss           0x0000000000000000        0x0 kernel/libnoninstrumentables.a.p/generic_common_adt_list.c.o
 .text.list_member
                0x0000000000000000       0x37 kernel/libnoninstrumentables.a.p/generic_common_adt_list.c.o
 .text.list_count
                0x0000000000000000       0x26 kernel/libnoninstrumentables.a.p/generic_common_adt_list.c.o
 .text          0x0000000000000000        0x0 kernel/libnoninstrumentables.a.p/generic_common_adt_odict.c.o
 .data          0x0000000000000000        0x0 kernel/libnoninstrumentables.a.p/generic_common_adt_odict.c.o
 .bss           0x0000000000000000        0x0 kernel/libnoninstrumentables.a.p/generic_common_adt_odict.c.o
 .rodata.odict_validate_tree.str1.8
                0x0000000000000000       0x25 kernel/libnoninstrumentables.a.p/generic_common_adt_odict.c.o
 .rodata.odict_validate_tree.str1.1
                0x0000000000000000       0x85 kernel/libnoninstrumentables.a.p/generic_common_adt_odict.c.o
 .text.odict_validate_tree
                0x0000000000000000      0x1a0 kernel/libnoninstrumentables.a.p/generic_common_adt_odict.c.o
 .rodata.odict_print_tree.str1.1
                0x0000000000000000        0xd kernel/libnoninstrumentables.a.p/generic_common_adt_odict.c.o
 .text.odict_print_tree
                0x0000000000000000      0xb0b kernel/libnoninstrumentables.a.p/generic_common_adt_odict.c.o
 .text.odict_validate
                0x0000000000000000      0x34b kernel/libnoninstrumentables.a.p/generic_common_adt_odict.c.o
 .text.odict_key_update
                0x0000000000000000       0x5d kernel/libnoninstrumentables.a.p/generic_common_adt_odict.c.o
 .text.odlink_used
                0x0000000000000000        0xd kernel/libnoninstrumentables.a.p/generic_common_adt_odict.c.o
 .text.odict_prev
                0x0000000000000000       0x24 kernel/libnoninstrumentables.a.p/generic_common_adt_odict.c.o
 .text.odict_find_eq_last
                0x0000000000000000       0xad kernel/libnoninstrumentables.a.p/generic_common_adt_odict.c.o
 .text.odict_find_geq
                0x0000000000000000       0x9e kernel/libnoninstrumentables.a.p/generic_common_adt_odict.c.o
 .text.odict_find_gt
                0x0000000000000000       0xdb kernel/libnoninstrumentables.a.p/generic_common_adt_odict.c.o
 .text          0x0000000000000000        0x0 kernel/libnoninstrumentables.a.p/generic_common_printf_printf_core.c.o
 .data          0x0000000000000000        0x0 kernel/libnoninstrumentables.a.p/generic_common_printf_printf_core.c.o
 .bss           0x0000000000000000        0x0 kernel/libnoninstrumentables.a.p/generic_common_printf_printf_core.c.o
 .text          0x0000000000000000        0x0 kernel/libnoninstrumentables.a.p/generic_common_stdc_calloc.c.o
 .data          0x0000000000000000        0x0 kernel/libnoninstrumentables.a.p/generic_common_stdc_calloc.c.o
 .bss           0x0000000000000000        0x0 kernel/libnoninstrumentables.a.p/generic_common_stdc_calloc.c.o
 .text          0x0000000000000000        0x0 kernel/libnoninstrumentables.a.p/generic_common_stdc_ctype.c.o
 .data          0x0000000000000000        0x0 kernel/libnoninstrumentables.a.p/generic_common_stdc_ctype.c.o
 .bss           0x0000000000000000        0x0 kernel/libnoninstrumentables.a.p/generic_common_stdc_ctype.c.o
 .text.isalpha  0x0000000000000000       0x14 kernel/libnoninstrumentables.a.p/generic_common_stdc_ctype.c.o
 .text.isalnum  0x0000000000000000       0x25 kernel/libnoninstrumentables.a.p/generic_common_stdc_ctype.c.o
 .text.isblank  0x0000000000000000       0x17 kernel/libnoninstrumentables.a.p/generic_common_stdc_ctype.c.o
 .text.iscntrl  0x0000000000000000       0x17 kernel/libnoninstrumentables.a.p/generic_common_stdc_ctype.c.o
 .text.isprint  0x0000000000000000       0x21 kernel/libnoninstrumentables.a.p/generic_common_stdc_ctype.c.o
 .text.isgraph  0x0000000000000000       0x28 kernel/libnoninstrumentables.a.p/generic_common_stdc_ctype.c.o
 .text.ispunct  0x0000000000000000       0x66 kernel/libnoninstrumentables.a.p/generic_common_stdc_ctype.c.o
 .text.isxdigit
                0x0000000000000000       0x24 kernel/libnoninstrumentables.a.p/generic_common_stdc_ctype.c.o
 .text.tolower  0x0000000000000000       0x14 kernel/libnoninstrumentables.a.p/generic_common_stdc_ctype.c.o
 .text.toupper  0x0000000000000000       0x14 kernel/libnoninstrumentables.a.p/generic_common_stdc_ctype.c.o
 .text          0x0000000000000000        0x0 kernel/libnoninstrumentables.a.p/generic_common_stdc_mem.c.o
 .data          0x0000000000000000        0x0 kernel/libnoninstrumentables.a.p/generic_common_stdc_mem.c.o
 .bss           0x0000000000000000        0x0 kernel/libnoninstrumentables.a.p/generic_common_stdc_mem.c.o
 .text.memcmp   0x0000000000000000       0x34 kernel/libnoninstrumentables.a.p/generic_common_stdc_mem.c.o
 .text.memchr   0x0000000000000000       0x31 kernel/libnoninstrumentables.a.p/generic_common_stdc_mem.c.o
 .text          0x0000000000000000        0x0 kernel/libnoninstrumentables.a.p/generic_common_gsort.c.o
 .data          0x0000000000000000        0x0 kernel/libnoninstrumentables.a.p/generic_common_gsort.c.o
 .bss           0x0000000000000000        0x0 kernel/libnoninstrumentables.a.p/generic_common_gsort.c.o
 .text          0x0000000000000000        0x0 kernel/libnoninstrumentables.a.p/generic_common_str.c.o
 .data          0x0000000000000000        0x0 kernel/libnoninstrumentables.a.p/generic_common_str.c.o
 .bss           0x0000000000000000        0x0 kernel/libnoninstrumentables.a.p/generic_common_str.c.o
 .rodata.str_to_wstr.part.0.str1.1
                0x0000000000000000        0x9 kernel/libnoninstrumentables.a.p/generic_common_str.c.o
 .text.str_to_wstr.part.0
                0x0000000000000000       0x41 kernel/libnoninstrumentables.a.p/generic_common_str.c.o
 .text.str_decode.constprop.0
                0x0000000000000000       0xf3 kernel/libnoninstrumentables.a.p/generic_common_str.c.o
 .text.str_decode_reverse
                0x0000000000000000      0x14a kernel/libnoninstrumentables.a.p/generic_common_str.c.o
 .text.wstr_size
                0x0000000000000000       0x20 kernel/libnoninstrumentables.a.p/generic_common_str.c.o
 .text.str_nsize
                0x0000000000000000       0x2d kernel/libnoninstrumentables.a.p/generic_common_str.c.o
 .text.wstr_nsize
                0x0000000000000000       0x38 kernel/libnoninstrumentables.a.p/generic_common_str.c.o
 .text.wstr_nlength
                0x0000000000000000       0x29 kernel/libnoninstrumentables.a.p/generic_common_str.c.o
 .text.chr_width
                0x0000000000000000        0xb kernel/libnoninstrumentables.a.p/generic_common_str.c.o
 .text.str_width
                0x0000000000000000      0x126 kernel/libnoninstrumentables.a.p/generic_common_str.c.o
 .text.str_casecmp
                0x0000000000000000      0x1aa kernel/libnoninstrumentables.a.p/generic_common_str.c.o
 .text.str_lcasecmp
                0x0000000000000000      0x1ce kernel/libnoninstrumentables.a.p/generic_common_str.c.o
 .text.str_test_prefix
                0x0000000000000000      0x28a kernel/libnoninstrumentables.a.p/generic_common_str.c.o
 .text.str_suffix
                0x0000000000000000       0xab kernel/libnoninstrumentables.a.p/generic_common_str.c.o
 .text.str_append
                0x0000000000000000       0x2c kernel/libnoninstrumentables.a.p/generic_common_str.c.o
 .text.spascii_to_str
                0x0000000000000000       0xe4 kernel/libnoninstrumentables.a.p/generic_common_str.c.o
 .text.utf16_to_str
                0x0000000000000000      0x207 kernel/libnoninstrumentables.a.p/generic_common_str.c.o
 .text.str_to_utf16
                0x0000000000000000      0x207 kernel/libnoninstrumentables.a.p/generic_common_str.c.o
 .text.utf16_wsize
                0x0000000000000000       0x1c kernel/libnoninstrumentables.a.p/generic_common_str.c.o
 .text.wstr_to_astr
                0x0000000000000000      0x2cf kernel/libnoninstrumentables.a.p/generic_common_str.c.o
 .text.str_to_wstr
                0x0000000000000000      0x179 kernel/libnoninstrumentables.a.p/generic_common_str.c.o
 .text.str_to_awstr
                0x0000000000000000      0x2ba kernel/libnoninstrumentables.a.p/generic_common_str.c.o
 .text.str_str  0x0000000000000000      0x25b kernel/libnoninstrumentables.a.p/generic_common_str.c.o
 .text.str_rtrim
                0x0000000000000000      0x1c7 kernel/libnoninstrumentables.a.p/generic_common_str.c.o
 .text.str_ltrim
                0x0000000000000000      0x162 kernel/libnoninstrumentables.a.p/generic_common_str.c.o
 .text.str_rchr
                0x0000000000000000      0x16d kernel/libnoninstrumentables.a.p/generic_common_str.c.o
 .text.str_dup  0x0000000000000000       0x60 kernel/libnoninstrumentables.a.p/generic_common_str.c.o
 .text.str_tok  0x0000000000000000      0x365 kernel/libnoninstrumentables.a.p/generic_common_str.c.o
 .rodata.__func__.0
                0x0000000000000000        0xc kernel/libnoninstrumentables.a.p/generic_common_str.c.o
 .rodata.__func__.1
                0x0000000000000000        0xd kernel/libnoninstrumentables.a.p/generic_common_str.c.o
 .rodata.__func__.2
                0x0000000000000000        0xd kernel/libnoninstrumentables.a.p/generic_common_str.c.o
 .rodata.__func__.4
                0x0000000000000000        0xf kernel/libnoninstrumentables.a.p/generic_common_str.c.o
 .text          0x0000000000000000        0x0 kernel/libnoninstrumentables.a.p/generic_common_str_error.c.o
 .data          0x0000000000000000        0x0 kernel/libnoninstrumentables.a.p/generic_common_str_error.c.o
 .bss           0x0000000000000000        0x0 kernel/libnoninstrumentables.a.p/generic_common_str_error.c.o
 .text          0x0000000000000000        0x0 kernel/libnoninstrumentables.a.p/generic_common_strtol.c.o
 .data          0x0000000000000000        0x0 kernel/libnoninstrumentables.a.p/generic_common_strtol.c.o
 .bss           0x0000000000000000        0x0 kernel/libnoninstrumentables.a.p/generic_common_strtol.c.o
 .text.strtol   0x0000000000000000       0x4b kernel/libnoninstrumentables.a.p/generic_common_strtol.c.o
 .text.strtoul  0x0000000000000000       0x27 kernel/libnoninstrumentables.a.p/generic_common_strtol.c.o
 .text.strtoll  0x0000000000000000       0x4b kernel/libnoninstrumentables.a.p/generic_common_strtol.c.o
 .text.strtoull
                0x0000000000000000       0x27 kernel/libnoninstrumentables.a.p/generic_common_strtol.c.o
 .text.strtoimax
                0x0000000000000000       0x4b kernel/libnoninstrumentables.a.p/generic_common_strtol.c.o
 .text.strtoumax
                0x0000000000000000       0x27 kernel/libnoninstrumentables.a.p/generic_common_strtol.c.o
 .text.atoi     0x0000000000000000      0x1df kernel/libnoninstrumentables.a.p/generic_common_strtol.c.o
 .text.atol     0x0000000000000000      0x203 kernel/libnoninstrumentables.a.p/generic_common_strtol.c.o
 .text.atoll    0x0000000000000000      0x203 kernel/libnoninstrumentables.a.p/generic_common_strtol.c.o
 .text.str_uint8_t
                0x0000000000000000      0x104 kernel/libnoninstrumentables.a.p/generic_common_strtol.c.o
 .text.str_uint16_t
                0x0000000000000000      0x104 kernel/libnoninstrumentables.a.p/generic_common_strtol.c.o
 .text.str_uint32_t
                0x0000000000000000      0x104 kernel/libnoninstrumentables.a.p/generic_common_strtol.c.o
 .text.str_int64_t
                0x0000000000000000       0xf8 kernel/libnoninstrumentables.a.p/generic_common_strtol.c.o
 .text.str_size_t
                0x0000000000000000       0xdc kernel/libnoninstrumentables.a.p/generic_common_strtol.c.o
 .rodata.__func__.0
                0x0000000000000000        0xb kernel/libnoninstrumentables.a.p/generic_common_strtol.c.o
 .rodata.__func__.1
                0x0000000000000000        0xc kernel/libnoninstrumentables.a.p/generic_common_strtol.c.o
 .rodata.__func__.3
                0x0000000000000000        0xd kernel/libnoninstrumentables.a.p/generic_common_strtol.c.o
 .rodata.__func__.4
                0x0000000000000000        0xd kernel/libnoninstrumentables.a.p/generic_common_strtol.c.o
 .rodata.__func__.5
                0x0000000000000000        0xc kernel/libnoninstrumentables.a.p/generic_common_strtol.c.o
 .text          0x0000000000000000        0x0 kernel/libnoninstrumentables.a.p/generic_src_cap_cap.c.o
 .data          0x0000000000000000        0x0 kernel/libnoninstrumentables.a.p/generic_src_cap_cap.c.o
 .bss           0x0000000000000000        0x0 kernel/libnoninstrumentables.a.p/generic_src_cap_cap.c.o
 .text.cap_revoke
                0x0000000000000000      0x112 kernel/libnoninstrumentables.a.p/generic_src_cap_cap.c.o
 .text          0x0000000000000000        0x0 kernel/libnoninstrumentables.a.p/generic_src_console_chardev.c.o
 .data          0x0000000000000000        0x0 kernel/libnoninstrumentables.a.p/generic_src_console_chardev.c.o
 .bss           0x0000000000000000        0x0 kernel/libnoninstrumentables.a.p/generic_src_console_chardev.c.o
 .text          0x0000000000000000        0x0 kernel/libnoninstrumentables.a.p/generic_src_console_console.c.o
 .data          0x0000000000000000        0x0 kernel/libnoninstrumentables.a.p/generic_src_console_console.c.o
 .bss           0x0000000000000000        0x0 kernel/libnoninstrumentables.a.p/generic_src_console_console.c.o
 .text.grab_console
                0x0000000000000000       0x8f kernel/libnoninstrumentables.a.p/generic_src_console_console.c.o
 .text          0x0000000000000000        0x0 kernel/libnoninstrumentables.a.p/generic_src_console_prompt.c.o
 .data          0x0000000000000000        0x0 kernel/libnoninstrumentables.a.p/generic_src_console_prompt.c.o
 .bss           0x0000000000000000        0x0 kernel/libnoninstrumentables.a.p/generic_src_console_prompt.c.o
 .text          0x0000000000000000        0x0 kernel/libnoninstrumentables.a.p/generic_src_cpu_cpu_mask.c.o
 .data          0x0000000000000000        0x0 kernel/libnoninstrumentables.a.p/generic_src_cpu_cpu_mask.c.o
 .bss           0x0000000000000000        0x0 kernel/libnoninstrumentables.a.p/generic_src_cpu_cpu_mask.c.o
 .rodata.cpu_mask_count.part.0.str1.1
                0x0000000000000000       0x2e kernel/libnoninstrumentables.a.p/generic_src_cpu_cpu_mask.c.o
 .rodata.cpu_mask_count.part.0.str1.8
                0x0000000000000000       0x30 kernel/libnoninstrumentables.a.p/generic_src_cpu_cpu_mask.c.o
 .text.cpu_mask_count.part.0
                0x0000000000000000       0x41 kernel/libnoninstrumentables.a.p/generic_src_cpu_cpu_mask.c.o
 .rodata.cpu_mask_none.part.0.str1.1
                0x0000000000000000        0x5 kernel/libnoninstrumentables.a.p/generic_src_cpu_cpu_mask.c.o
 .text.cpu_mask_none.part.0
                0x0000000000000000       0x41 kernel/libnoninstrumentables.a.p/generic_src_cpu_cpu_mask.c.o
 .text.cpu_mask_size
                0x0000000000000000       0x18 kernel/libnoninstrumentables.a.p/generic_src_cpu_cpu_mask.c.o
 .text.cpu_mask_active
                0x0000000000000000      0x22f kernel/libnoninstrumentables.a.p/generic_src_cpu_cpu_mask.c.o
 .rodata.cpu_mask_all.str1.1
                0x0000000000000000        0xd kernel/libnoninstrumentables.a.p/generic_src_cpu_cpu_mask.c.o
 .text.cpu_mask_all
                0x0000000000000000      0x177 kernel/libnoninstrumentables.a.p/generic_src_cpu_cpu_mask.c.o
 .text.cpu_mask_none
                0x0000000000000000       0xfe kernel/libnoninstrumentables.a.p/generic_src_cpu_cpu_mask.c.o
 .text.cpu_mask_set
                0x0000000000000000       0x19 kernel/libnoninstrumentables.a.p/generic_src_cpu_cpu_mask.c.o
 .text.cpu_mask_reset
                0x0000000000000000       0x19 kernel/libnoninstrumentables.a.p/generic_src_cpu_cpu_mask.c.o
 .text.cpu_mask_is_set
                0x0000000000000000       0x17 kernel/libnoninstrumentables.a.p/generic_src_cpu_cpu_mask.c.o
 .text.cpu_mask_is_none
                0x0000000000000000       0x3f kernel/libnoninstrumentables.a.p/generic_src_cpu_cpu_mask.c.o
 .rodata.__func__.0
                0x0000000000000000        0xe kernel/libnoninstrumentables.a.p/generic_src_cpu_cpu_mask.c.o
 .rodata.__func__.1
                0x0000000000000000        0xf kernel/libnoninstrumentables.a.p/generic_src_cpu_cpu_mask.c.o
 .rodata.cst8   0x0000000000000000        0x8 kernel/libnoninstrumentables.a.p/generic_src_cpu_cpu_mask.c.o
 .text          0x0000000000000000        0x0 kernel/libnoninstrumentables.a.p/generic_src_ddi_irq.c.o
 .data          0x0000000000000000        0x0 kernel/libnoninstrumentables.a.p/generic_src_ddi_irq.c.o
 .bss           0x0000000000000000        0x0 kernel/libnoninstrumentables.a.p/generic_src_ddi_irq.c.o
 .text          0x0000000000000000        0x0 kernel/libnoninstrumentables.a.p/generic_src_debug_line.c.o
 .data          0x0000000000000000        0x0 kernel/libnoninstrumentables.a.p/generic_src_debug_line.c.o
 .bss           0x0000000000000000        0x0 kernel/libnoninstrumentables.a.p/generic_src_debug_line.c.o
 .text          0x0000000000000000        0x0 kernel/libnoninstrumentables.a.p/generic_src_debug_names.c.o
 .data          0x0000000000000000        0x0 kernel/libnoninstrumentables.a.p/generic_src_debug_names.c.o
 .bss           0x0000000000000000        0x0 kernel/libnoninstrumentables.a.p/generic_src_debug_names.c.o
 .text.dw_access_name
                0x0000000000000000       0x1c kernel/libnoninstrumentables.a.p/generic_src_debug_names.c.o
 .text.dw_at_name
                0x0000000000000000       0x1c kernel/libnoninstrumentables.a.p/generic_src_debug_names.c.o
 .text.dw_ate_name
                0x0000000000000000       0x1c kernel/libnoninstrumentables.a.p/generic_src_debug_names.c.o
 .text.dw_cc_name
                0x0000000000000000       0x1c kernel/libnoninstrumentables.a.p/generic_src_debug_names.c.o
 .text.dw_cfa_name
                0x0000000000000000       0x1c kernel/libnoninstrumentables.a.p/generic_src_debug_names.c.o
 .text.dw_defaulted_name
                0x0000000000000000       0x1c kernel/libnoninstrumentables.a.p/generic_src_debug_names.c.o
 .text.dw_ds_name
                0x0000000000000000       0x1c kernel/libnoninstrumentables.a.p/generic_src_debug_names.c.o
 .text.dw_dsc_name
                0x0000000000000000       0x17 kernel/libnoninstrumentables.a.p/generic_src_debug_names.c.o
 .text.dw_end_name
                0x0000000000000000       0x1c kernel/libnoninstrumentables.a.p/generic_src_debug_names.c.o
 .text.dw_id_name
                0x0000000000000000       0x1c kernel/libnoninstrumentables.a.p/generic_src_debug_names.c.o
 .text.dw_idx_name
                0x0000000000000000       0x1c kernel/libnoninstrumentables.a.p/generic_src_debug_names.c.o
 .text.dw_inl_name
                0x0000000000000000       0x1c kernel/libnoninstrumentables.a.p/generic_src_debug_names.c.o
 .text.dw_lang_name
                0x0000000000000000       0x1c kernel/libnoninstrumentables.a.p/generic_src_debug_names.c.o
 .text.dw_lle_name
                0x0000000000000000       0x1c kernel/libnoninstrumentables.a.p/generic_src_debug_names.c.o
 .text.dw_macro_name
                0x0000000000000000       0x1c kernel/libnoninstrumentables.a.p/generic_src_debug_names.c.o
 .text.dw_op_name
                0x0000000000000000       0x1c kernel/libnoninstrumentables.a.p/generic_src_debug_names.c.o
 .text.dw_ord_name
                0x0000000000000000       0x17 kernel/libnoninstrumentables.a.p/generic_src_debug_names.c.o
 .text.dw_rle_name
                0x0000000000000000       0x1c kernel/libnoninstrumentables.a.p/generic_src_debug_names.c.o
 .text.dw_tag_name
                0x0000000000000000       0x1c kernel/libnoninstrumentables.a.p/generic_src_debug_names.c.o
 .text.dw_ut_name
                0x0000000000000000       0x1c kernel/libnoninstrumentables.a.p/generic_src_debug_names.c.o
 .text.dw_virtuality_name
                0x0000000000000000       0x1c kernel/libnoninstrumentables.a.p/generic_src_debug_names.c.o
 .text.dw_vis_name
                0x0000000000000000       0x1c kernel/libnoninstrumentables.a.p/generic_src_debug_names.c.o
 .rodata.dw_rle_names
                0x0000000000000000       0x40 kernel/libnoninstrumentables.a.p/generic_src_debug_names.c.o
 .rodata.dw_cfa_names
                0x0000000000000000       0xb8 kernel/libnoninstrumentables.a.p/generic_src_debug_names.c.o
 .rodata.dw_macro_names
                0x0000000000000000       0x68 kernel/libnoninstrumentables.a.p/generic_src_debug_names.c.o
 .rodata.dw_defaulted_names
                0x0000000000000000       0x18 kernel/libnoninstrumentables.a.p/generic_src_debug_names.c.o
 .rodata.dw_idx_names
                0x0000000000000000       0x30 kernel/libnoninstrumentables.a.p/generic_src_debug_names.c.o
 .rodata.dw_dsc_names
                0x0000000000000000       0x10 kernel/libnoninstrumentables.a.p/generic_src_debug_names.c.o
 .rodata.dw_ord_names
                0x0000000000000000       0x10 kernel/libnoninstrumentables.a.p/generic_src_debug_names.c.o
 .rodata.dw_inl_names
                0x0000000000000000       0x20 kernel/libnoninstrumentables.a.p/generic_src_debug_names.c.o
 .rodata.dw_id_names
                0x0000000000000000       0x20 kernel/libnoninstrumentables.a.p/generic_src_debug_names.c.o
 .rodata.dw_lang_names
                0x0000000000000000      0x130 kernel/libnoninstrumentables.a.p/generic_src_debug_names.c.o
 .rodata.dw_virtuality_names
                0x0000000000000000       0x18 kernel/libnoninstrumentables.a.p/generic_src_debug_names.c.o
 .rodata.dw_vis_names
                0x0000000000000000       0x20 kernel/libnoninstrumentables.a.p/generic_src_debug_names.c.o
 .rodata.dw_end_names
                0x0000000000000000       0x18 kernel/libnoninstrumentables.a.p/generic_src_debug_names.c.o
 .rodata.dw_ds_names
                0x0000000000000000       0x30 kernel/libnoninstrumentables.a.p/generic_src_debug_names.c.o
 .rodata.dw_lle_names
                0x0000000000000000       0x48 kernel/libnoninstrumentables.a.p/generic_src_debug_names.c.o
 .rodata.dw_op_names
                0x0000000000000000      0x550 kernel/libnoninstrumentables.a.p/generic_src_debug_names.c.o
 .rodata.str1.8
                0x0000000000000000       0x40 kernel/libnoninstrumentables.a.p/generic_src_debug_names.c.o
 .rodata.dw_tag_names
                0x0000000000000000      0x260 kernel/libnoninstrumentables.a.p/generic_src_debug_names.c.o
 .rodata.dw_ut_names
                0x0000000000000000       0x38 kernel/libnoninstrumentables.a.p/generic_src_debug_names.c.o
 .rodata.dw_cc_names
                0x0000000000000000       0x30 kernel/libnoninstrumentables.a.p/generic_src_debug_names.c.o
 .rodata.dw_ate_names
                0x0000000000000000       0x98 kernel/libnoninstrumentables.a.p/generic_src_debug_names.c.o
 .rodata.dw_at_names
                0x0000000000000000      0x468 kernel/libnoninstrumentables.a.p/generic_src_debug_names.c.o
 .rodata.dw_access_names
                0x0000000000000000       0x20 kernel/libnoninstrumentables.a.p/generic_src_debug_names.c.o
 .text          0x0000000000000000        0x0 kernel/libnoninstrumentables.a.p/generic_src_debug_panic.c.o
 .data          0x0000000000000000        0x0 kernel/libnoninstrumentables.a.p/generic_src_debug_panic.c.o
 .bss           0x0000000000000000        0x0 kernel/libnoninstrumentables.a.p/generic_src_debug_panic.c.o
 .text          0x0000000000000000        0x0 kernel/libnoninstrumentables.a.p/generic_src_debug_profile.c.o
 .data          0x0000000000000000        0x0 kernel/libnoninstrumentables.a.p/generic_src_debug_profile.c.o
 .bss           0x0000000000000000        0x0 kernel/libnoninstrumentables.a.p/generic_src_debug_profile.c.o
 .debug_line    0x0000000000000000        0x0 kernel/libnoninstrumentables.a.p/generic_src_debug_profile.c.o
 .debug_str     0x0000000000000000      0x162 kernel/libnoninstrumentables.a.p/generic_src_debug_profile.c.o
 .debug_line_str
                0x0000000000000000       0x46 kernel/libnoninstrumentables.a.p/generic_src_debug_profile.c.o
 .comment       0x0000000000000000       0x13 kernel/libnoninstrumentables.a.p/generic_src_debug_profile.c.o
 .text          0x0000000000000000        0x0 kernel/libnoninstrumentables.a.p/generic_src_debug_sections.c.o
 .data          0x0000000000000000        0x0 kernel/libnoninstrumentables.a.p/generic_src_debug_sections.c.o
 .bss           0x0000000000000000        0x0 kernel/libnoninstrumentables.a.p/generic_src_debug_sections.c.o
 .text          0x0000000000000000        0x0 kernel/libnoninstrumentables.a.p/generic_src_debug_stacktrace.c.o
 .data          0x0000000000000000        0x0 kernel/libnoninstrumentables.a.p/generic_src_debug_stacktrace.c.o
 .bss           0x0000000000000000        0x0 kernel/libnoninstrumentables.a.p/generic_src_debug_stacktrace.c.o
 .text          0x0000000000000000        0x0 kernel/libnoninstrumentables.a.p/generic_src_debug_symtab.c.o
 .data          0x0000000000000000        0x0 kernel/libnoninstrumentables.a.p/generic_src_debug_symtab.c.o
 .bss           0x0000000000000000        0x0 kernel/libnoninstrumentables.a.p/generic_src_debug_symtab.c.o
 .text          0x0000000000000000        0x0 kernel/libnoninstrumentables.a.p/generic_src_debug_util.c.o
 .data          0x0000000000000000        0x0 kernel/libnoninstrumentables.a.p/generic_src_debug_util.c.o
 .bss           0x0000000000000000        0x0 kernel/libnoninstrumentables.a.p/generic_src_debug_util.c.o
 .text.print_block
                0x0000000000000000       0x2a kernel/libnoninstrumentables.a.p/generic_src_debug_util.c.o
 .text          0x0000000000000000        0x0 kernel/libnoninstrumentables.a.p/generic_src_ipc_event.c.o
 .data          0x0000000000000000        0x0 kernel/libnoninstrumentables.a.p/generic_src_ipc_event.c.o
 .bss           0x0000000000000000        0x0 kernel/libnoninstrumentables.a.p/generic_src_ipc_event.c.o
 .text.event_task_set_unmask_callback
                0x0000000000000000       0x9b kernel/libnoninstrumentables.a.p/generic_src_ipc_event.c.o
 .rodata.__func__.2
                0x0000000000000000       0x1f kernel/libnoninstrumentables.a.p/generic_src_ipc_event.c.o
 .text          0x0000000000000000        0x0 kernel/libnoninstrumentables.a.p/generic_src_ipc_ipc.c.o
 .data          0x0000000000000000        0x0 kernel/libnoninstrumentables.a.p/generic_src_ipc_ipc.c.o
 .bss           0x0000000000000000        0x0 kernel/libnoninstrumentables.a.p/generic_src_ipc_ipc.c.o
 .text          0x0000000000000000        0x0 kernel/libnoninstrumentables.a.p/generic_src_ipc_ipcrsc.c.o
 .data          0x0000000000000000        0x0 kernel/libnoninstrumentables.a.p/generic_src_ipc_ipcrsc.c.o
 .bss           0x0000000000000000        0x0 kernel/libnoninstrumentables.a.p/generic_src_ipc_ipcrsc.c.o
 .text.phone_dealloc
                0x0000000000000000       0x62 kernel/libnoninstrumentables.a.p/generic_src_ipc_ipcrsc.c.o
 .text          0x0000000000000000        0x0 kernel/libnoninstrumentables.a.p/generic_src_ipc_irq.c.o
 .data          0x0000000000000000        0x0 kernel/libnoninstrumentables.a.p/generic_src_ipc_irq.c.o
 .bss           0x0000000000000000        0x0 kernel/libnoninstrumentables.a.p/generic_src_ipc_irq.c.o
 .text.ipc_irq_send_msg
                0x0000000000000000      0x11e kernel/libnoninstrumentables.a.p/generic_src_ipc_irq.c.o
 .text          0x0000000000000000        0x0 kernel/libnoninstrumentables.a.p/generic_src_ipc_ops_conctmeto.c.o
 .data          0x0000000000000000        0x0 kernel/libnoninstrumentables.a.p/generic_src_ipc_ops_conctmeto.c.o
 .bss           0x0000000000000000        0x0 kernel/libnoninstrumentables.a.p/generic_src_ipc_ops_conctmeto.c.o
 .text          0x0000000000000000        0x0 kernel/libnoninstrumentables.a.p/generic_src_ipc_ops_concttome.c.o
 .data          0x0000000000000000        0x0 kernel/libnoninstrumentables.a.p/generic_src_ipc_ops_concttome.c.o
 .bss           0x0000000000000000        0x0 kernel/libnoninstrumentables.a.p/generic_src_ipc_ops_concttome.c.o
 .text          0x0000000000000000        0x0 kernel/libnoninstrumentables.a.p/generic_src_ipc_ops_dataread.c.o
 .data          0x0000000000000000        0x0 kernel/libnoninstrumentables.a.p/generic_src_ipc_ops_dataread.c.o
 .bss           0x0000000000000000        0x0 kernel/libnoninstrumentables.a.p/generic_src_ipc_ops_dataread.c.o
 .text          0x0000000000000000        0x0 kernel/libnoninstrumentables.a.p/generic_src_ipc_ops_datawrite.c.o
 .data          0x0000000000000000        0x0 kernel/libnoninstrumentables.a.p/generic_src_ipc_ops_datawrite.c.o
 .bss           0x0000000000000000        0x0 kernel/libnoninstrumentables.a.p/generic_src_ipc_ops_datawrite.c.o
 .text          0x0000000000000000        0x0 kernel/libnoninstrumentables.a.p/generic_src_ipc_ops_debug.c.o
 .data          0x0000000000000000        0x0 kernel/libnoninstrumentables.a.p/generic_src_ipc_ops_debug.c.o
 .bss           0x0000000000000000        0x0 kernel/libnoninstrumentables.a.p/generic_src_ipc_ops_debug.c.o
 .text          0x0000000000000000        0x0 kernel/libnoninstrumentables.a.p/generic_src_ipc_ops_pagein.c.o
 .data          0x0000000000000000        0x0 kernel/libnoninstrumentables.a.p/generic_src_ipc_ops_pagein.c.o
 .bss           0x0000000000000000        0x0 kernel/libnoninstrumentables.a.p/generic_src_ipc_ops_pagein.c.o
 .text          0x0000000000000000        0x0 kernel/libnoninstrumentables.a.p/generic_src_ipc_ops_sharein.c.o
 .data          0x0000000000000000        0x0 kernel/libnoninstrumentables.a.p/generic_src_ipc_ops_sharein.c.o
 .bss           0x0000000000000000        0x0 kernel/libnoninstrumentables.a.p/generic_src_ipc_ops_sharein.c.o
 .text          0x0000000000000000        0x0 kernel/libnoninstrumentables.a.p/generic_src_ipc_ops_shareout.c.o
 .data          0x0000000000000000        0x0 kernel/libnoninstrumentables.a.p/generic_src_ipc_ops_shareout.c.o
 .bss           0x0000000000000000        0x0 kernel/libnoninstrumentables.a.p/generic_src_ipc_ops_shareout.c.o
 .text          0x0000000000000000        0x0 kernel/libnoninstrumentables.a.p/generic_src_ipc_ops_stchngath.c.o
 .data          0x0000000000000000        0x0 kernel/libnoninstrumentables.a.p/generic_src_ipc_ops_stchngath.c.o
 .bss           0x0000000000000000        0x0 kernel/libnoninstrumentables.a.p/generic_src_ipc_ops_stchngath.c.o
 .text          0x0000000000000000        0x0 kernel/libnoninstrumentables.a.p/generic_src_ipc_sysipc.c.o
 .data          0x0000000000000000        0x0 kernel/libnoninstrumentables.a.p/generic_src_ipc_sysipc.c.o
 .bss           0x0000000000000000        0x0 kernel/libnoninstrumentables.a.p/generic_src_ipc_sysipc.c.o
 .text          0x0000000000000000        0x0 kernel/libnoninstrumentables.a.p/generic_src_ipc_sysipc_ops.c.o
 .data          0x0000000000000000        0x0 kernel/libnoninstrumentables.a.p/generic_src_ipc_sysipc_ops.c.o
 .bss           0x0000000000000000        0x0 kernel/libnoninstrumentables.a.p/generic_src_ipc_sysipc_ops.c.o
 .text          0x0000000000000000        0x0 kernel/libnoninstrumentables.a.p/generic_src_lib_elf.c.o
 .data          0x0000000000000000        0x0 kernel/libnoninstrumentables.a.p/generic_src_lib_elf.c.o
 .bss           0x0000000000000000        0x0 kernel/libnoninstrumentables.a.p/generic_src_lib_elf.c.o
 .text          0x0000000000000000        0x0 kernel/libnoninstrumentables.a.p/generic_src_lib_halt.c.o
 .data          0x0000000000000000        0x0 kernel/libnoninstrumentables.a.p/generic_src_lib_halt.c.o
 .bss           0x0000000000000000        0x0 kernel/libnoninstrumentables.a.p/generic_src_lib_halt.c.o
 .text          0x0000000000000000        0x0 kernel/libnoninstrumentables.a.p/generic_src_lib_mem.c.o
 .data          0x0000000000000000        0x0 kernel/libnoninstrumentables.a.p/generic_src_lib_mem.c.o
 .bss           0x0000000000000000        0x0 kernel/libnoninstrumentables.a.p/generic_src_lib_mem.c.o
 .text          0x0000000000000000        0x0 kernel/libnoninstrumentables.a.p/generic_src_lib_ra.c.o
 .data          0x0000000000000000        0x0 kernel/libnoninstrumentables.a.p/generic_src_lib_ra.c.o
 .bss           0x0000000000000000        0x0 kernel/libnoninstrumentables.a.p/generic_src_lib_ra.c.o
 .text          0x0000000000000000        0x0 kernel/libnoninstrumentables.a.p/generic_src_lib_rd.c.o
 .data          0x0000000000000000        0x0 kernel/libnoninstrumentables.a.p/generic_src_lib_rd.c.o
 .bss           0x0000000000000000        0x0 kernel/libnoninstrumentables.a.p/generic_src_lib_rd.c.o
 .text          0x0000000000000000        0x0 kernel/libnoninstrumentables.a.p/generic_src_lib_ubsan.c.o
 .data          0x0000000000000000        0x0 kernel/libnoninstrumentables.a.p/generic_src_lib_ubsan.c.o
 .bss           0x0000000000000000        0x0 kernel/libnoninstrumentables.a.p/generic_src_lib_ubsan.c.o
 .rodata.ubsan_panic.str1.1
                0x0000000000000000       0x11 kernel/libnoninstrumentables.a.p/generic_src_lib_ubsan.c.o
 .text.ubsan_panic
                0x0000000000000000       0x1a kernel/libnoninstrumentables.a.p/generic_src_lib_ubsan.c.o
 .rodata.print_loc.isra.0.str1.8
                0x0000000000000000       0x27 kernel/libnoninstrumentables.a.p/generic_src_lib_ubsan.c.o
 .text.print_loc.isra.0
                0x0000000000000000       0x57 kernel/libnoninstrumentables.a.p/generic_src_lib_ubsan.c.o
 .text.__ubsan_handle_type_mismatch
                0x0000000000000000       0x1e kernel/libnoninstrumentables.a.p/generic_src_lib_ubsan.c.o
 .text.__ubsan_handle_add_overflow
                0x0000000000000000       0x1e kernel/libnoninstrumentables.a.p/generic_src_lib_ubsan.c.o
 .text.__ubsan_handle_sub_overflow
                0x0000000000000000       0x1e kernel/libnoninstrumentables.a.p/generic_src_lib_ubsan.c.o
 .text.__ubsan_handle_mul_overflow
                0x0000000000000000       0x1e kernel/libnoninstrumentables.a.p/generic_src_lib_ubsan.c.o
 .text.__ubsan_handle_negate_overflow
                0x0000000000000000       0x1e kernel/libnoninstrumentables.a.p/generic_src_lib_ubsan.c.o
 .text.__ubsan_handle_divrem_overflow
                0x0000000000000000       0x1e kernel/libnoninstrumentables.a.p/generic_src_lib_ubsan.c.o
 .rodata.__ubsan_handle_shift_out_of_bounds.str1.8
                0x0000000000000000       0x34 kernel/libnoninstrumentables.a.p/generic_src_lib_ubsan.c.o
 .text.__ubsan_handle_shift_out_of_bounds
                0x0000000000000000       0x54 kernel/libnoninstrumentables.a.p/generic_src_lib_ubsan.c.o
 .text.__ubsan_handle_out_of_bounds
                0x0000000000000000       0x1e kernel/libnoninstrumentables.a.p/generic_src_lib_ubsan.c.o
 .text.__ubsan_handle_unreachable
                0x0000000000000000       0x1e kernel/libnoninstrumentables.a.p/generic_src_lib_ubsan.c.o
 .text.__ubsan_handle_missing_return
                0x0000000000000000       0x1e kernel/libnoninstrumentables.a.p/generic_src_lib_ubsan.c.o
 .text.__ubsan_handle_vla_bound_not_positive
                0x0000000000000000       0x1e kernel/libnoninstrumentables.a.p/generic_src_lib_ubsan.c.o
 .text.__ubsan_handle_load_invalid_value
                0x0000000000000000       0x1e kernel/libnoninstrumentables.a.p/generic_src_lib_ubsan.c.o
 .text.__ubsan_handle_nonnull_arg
                0x0000000000000000       0x1e kernel/libnoninstrumentables.a.p/generic_src_lib_ubsan.c.o
 .text.__ubsan_handle_nonnull_return
                0x0000000000000000       0x1e kernel/libnoninstrumentables.a.p/generic_src_lib_ubsan.c.o
 .text.__ubsan_handle_nonnull_return_v1
                0x0000000000000000       0x1e kernel/libnoninstrumentables.a.p/generic_src_lib_ubsan.c.o
 .text.__ubsan_handle_pointer_overflow
                0x0000000000000000       0x1e kernel/libnoninstrumentables.a.p/generic_src_lib_ubsan.c.o
 .text.__ubsan_handle_type_mismatch_v1
                0x0000000000000000       0x1e kernel/libnoninstrumentables.a.p/generic_src_lib_ubsan.c.o
 .text.__ubsan_handle_builtin_unreachable
                0x0000000000000000       0x1e kernel/libnoninstrumentables.a.p/generic_src_lib_ubsan.c.o
 .rodata.__func__.0
                0x0000000000000000       0x23 kernel/libnoninstrumentables.a.p/generic_src_lib_ubsan.c.o
 .rodata.__func__.1
                0x0000000000000000       0x20 kernel/libnoninstrumentables.a.p/generic_src_lib_ubsan.c.o
 .rodata.__func__.2
                0x0000000000000000       0x20 kernel/libnoninstrumentables.a.p/generic_src_lib_ubsan.c.o
 .rodata.__func__.3
                0x0000000000000000       0x21 kernel/libnoninstrumentables.a.p/generic_src_lib_ubsan.c.o
 .rodata.__func__.4
                0x0000000000000000       0x1e kernel/libnoninstrumentables.a.p/generic_src_lib_ubsan.c.o
 .rodata.__func__.5
                0x0000000000000000       0x1b kernel/libnoninstrumentables.a.p/generic_src_lib_ubsan.c.o
 .rodata.__func__.6
                0x0000000000000000       0x22 kernel/libnoninstrumentables.a.p/generic_src_lib_ubsan.c.o
 .rodata.__func__.7
                0x0000000000000000       0x26 kernel/libnoninstrumentables.a.p/generic_src_lib_ubsan.c.o
 .rodata.__func__.8
                0x0000000000000000       0x1e kernel/libnoninstrumentables.a.p/generic_src_lib_ubsan.c.o
 .rodata.__func__.9
                0x0000000000000000       0x1b kernel/libnoninstrumentables.a.p/generic_src_lib_ubsan.c.o
 .rodata.__func__.10
                0x0000000000000000       0x1d kernel/libnoninstrumentables.a.p/generic_src_lib_ubsan.c.o
 .rodata.__func__.11
                0x0000000000000000       0x23 kernel/libnoninstrumentables.a.p/generic_src_lib_ubsan.c.o
 .rodata.__func__.12
                0x0000000000000000       0x1f kernel/libnoninstrumentables.a.p/generic_src_lib_ubsan.c.o
 .rodata.__func__.13
                0x0000000000000000       0x1f kernel/libnoninstrumentables.a.p/generic_src_lib_ubsan.c.o
 .rodata.__func__.14
                0x0000000000000000       0x1c kernel/libnoninstrumentables.a.p/generic_src_lib_ubsan.c.o
 .rodata.__func__.15
                0x0000000000000000       0x1c kernel/libnoninstrumentables.a.p/generic_src_lib_ubsan.c.o
 .rodata.__func__.16
                0x0000000000000000       0x1c kernel/libnoninstrumentables.a.p/generic_src_lib_ubsan.c.o
 .rodata.__func__.17
                0x0000000000000000       0x1d kernel/libnoninstrumentables.a.p/generic_src_lib_ubsan.c.o
 .text          0x0000000000000000        0x0 kernel/libnoninstrumentables.a.p/generic_src_log_log.c.o
 .data          0x0000000000000000        0x0 kernel/libnoninstrumentables.a.p/generic_src_log_log.c.o
 .bss           0x0000000000000000        0x0 kernel/libnoninstrumentables.a.p/generic_src_log_log.c.o
 .text.log_vprintf
                0x0000000000000000       0x2e kernel/libnoninstrumentables.a.p/generic_src_log_log.c.o
 .text          0x0000000000000000        0x0 kernel/libnoninstrumentables.a.p/generic_src_main_shutdown.c.o
 .data          0x0000000000000000        0x0 kernel/libnoninstrumentables.a.p/generic_src_main_shutdown.c.o
 .bss           0x0000000000000000        0x0 kernel/libnoninstrumentables.a.p/generic_src_main_shutdown.c.o
 .text          0x0000000000000000        0x0 kernel/libnoninstrumentables.a.p/generic_src_main_uinit.c.o
 .data          0x0000000000000000        0x0 kernel/libnoninstrumentables.a.p/generic_src_main_uinit.c.o
 .bss           0x0000000000000000        0x0 kernel/libnoninstrumentables.a.p/generic_src_main_uinit.c.o
 .text          0x0000000000000000        0x0 kernel/libnoninstrumentables.a.p/generic_src_main_version.c.o
 .data          0x0000000000000000        0x0 kernel/libnoninstrumentables.a.p/generic_src_main_version.c.o
 .bss           0x0000000000000000        0x0 kernel/libnoninstrumentables.a.p/generic_src_main_version.c.o
 .text          0x0000000000000000        0x0 kernel/libnoninstrumentables.a.p/generic_src_mm_backend_anon.c.o
 .data          0x0000000000000000        0x0 kernel/libnoninstrumentables.a.p/generic_src_mm_backend_anon.c.o
 .bss           0x0000000000000000        0x0 kernel/libnoninstrumentables.a.p/generic_src_mm_backend_anon.c.o
 .text          0x0000000000000000        0x0 kernel/libnoninstrumentables.a.p/generic_src_mm_backend_elf.c.o
 .data          0x0000000000000000        0x0 kernel/libnoninstrumentables.a.p/generic_src_mm_backend_elf.c.o
 .bss           0x0000000000000000        0x0 kernel/libnoninstrumentables.a.p/generic_src_mm_backend_elf.c.o
 .text          0x0000000000000000        0x0 kernel/libnoninstrumentables.a.p/generic_src_mm_backend_phys.c.o
 .data          0x0000000000000000        0x0 kernel/libnoninstrumentables.a.p/generic_src_mm_backend_phys.c.o
 .bss           0x0000000000000000        0x0 kernel/libnoninstrumentables.a.p/generic_src_mm_backend_phys.c.o
 .text          0x0000000000000000        0x0 kernel/libnoninstrumentables.a.p/generic_src_mm_backend_user.c.o
 .data          0x0000000000000000        0x0 kernel/libnoninstrumentables.a.p/generic_src_mm_backend_user.c.o
 .bss           0x0000000000000000        0x0 kernel/libnoninstrumentables.a.p/generic_src_mm_backend_user.c.o
 .text          0x0000000000000000        0x0 kernel/libnoninstrumentables.a.p/generic_src_mm_km.c.o
 .data          0x0000000000000000        0x0 kernel/libnoninstrumentables.a.p/generic_src_mm_km.c.o
 .bss           0x0000000000000000        0x0 kernel/libnoninstrumentables.a.p/generic_src_mm_km.c.o
 .text.km_page_alloc
                0x0000000000000000       0x2d kernel/libnoninstrumentables.a.p/generic_src_mm_km.c.o
 .text.km_page_free
                0x0000000000000000       0x17 kernel/libnoninstrumentables.a.p/generic_src_mm_km.c.o
 .rodata.km_unmap.str1.8
                0x0000000000000000       0x22 kernel/libnoninstrumentables.a.p/generic_src_mm_km.c.o
 .rodata.__func__.2
                0x0000000000000000       0x11 kernel/libnoninstrumentables.a.p/generic_src_mm_km.c.o
 .text          0x0000000000000000        0x0 kernel/libnoninstrumentables.a.p/generic_src_mm_malloc.c.o
 .data          0x0000000000000000        0x0 kernel/libnoninstrumentables.a.p/generic_src_mm_malloc.c.o
 .bss           0x0000000000000000        0x0 kernel/libnoninstrumentables.a.p/generic_src_mm_malloc.c.o
 .text.cache_for_size
                0x0000000000000000      0x124 kernel/libnoninstrumentables.a.p/generic_src_mm_malloc.c.o
 .rodata.realloc.str1.8
                0x0000000000000000       0x25 kernel/libnoninstrumentables.a.p/generic_src_mm_malloc.c.o
 .text.unlikely.realloc
                0x0000000000000000        0xc kernel/libnoninstrumentables.a.p/generic_src_mm_malloc.c.o
 .text.realloc  0x0000000000000000      0x1df kernel/libnoninstrumentables.a.p/generic_src_mm_malloc.c.o
 .rodata.__func__.0
                0x0000000000000000        0xc kernel/libnoninstrumentables.a.p/generic_src_mm_malloc.c.o
 .text          0x0000000000000000        0x0 kernel/libnoninstrumentables.a.p/generic_src_mm_reserve.c.o
 .data          0x0000000000000000        0x0 kernel/libnoninstrumentables.a.p/generic_src_mm_reserve.c.o
 .bss           0x0000000000000000        0x0 kernel/libnoninstrumentables.a.p/generic_src_mm_reserve.c.o
 .text          0x0000000000000000        0x0 kernel/libnoninstrumentables.a.p/generic_src_printf_printf.c.o
 .data          0x0000000000000000        0x0 kernel/libnoninstrumentables.a.p/generic_src_printf_printf.c.o
 .bss           0x0000000000000000        0x0 kernel/libnoninstrumentables.a.p/generic_src_printf_printf.c.o
 .text          0x0000000000000000        0x0 kernel/libnoninstrumentables.a.p/generic_src_printf_snprintf.c.o
 .data          0x0000000000000000        0x0 kernel/libnoninstrumentables.a.p/generic_src_printf_snprintf.c.o
 .bss           0x0000000000000000        0x0 kernel/libnoninstrumentables.a.p/generic_src_printf_snprintf.c.o
 .text          0x0000000000000000        0x0 kernel/libnoninstrumentables.a.p/generic_src_printf_vprintf.c.o
 .data          0x0000000000000000        0x0 kernel/libnoninstrumentables.a.p/generic_src_printf_vprintf.c.o
 .bss           0x0000000000000000        0x0 kernel/libnoninstrumentables.a.p/generic_src_printf_vprintf.c.o
 .text.puts     0x0000000000000000       0x56 kernel/libnoninstrumentables.a.p/generic_src_printf_vprintf.c.o
 .text          0x0000000000000000        0x0 kernel/libnoninstrumentables.a.p/generic_src_printf_vsnprintf.c.o
 .data          0x0000000000000000        0x0 kernel/libnoninstrumentables.a.p/generic_src_printf_vsnprintf.c.o
 .bss           0x0000000000000000        0x0 kernel/libnoninstrumentables.a.p/generic_src_printf_vsnprintf.c.o
 .text          0x0000000000000000        0x0 kernel/libnoninstrumentables.a.p/generic_src_proc_program.c.o
 .data          0x0000000000000000        0x0 kernel/libnoninstrumentables.a.p/generic_src_proc_program.c.o
 .bss           0x0000000000000000        0x0 kernel/libnoninstrumentables.a.p/generic_src_proc_program.c.o
 .text          0x0000000000000000        0x0 kernel/libnoninstrumentables.a.p/generic_src_proc_scheduler.c.o
 .data          0x0000000000000000        0x0 kernel/libnoninstrumentables.a.p/generic_src_proc_scheduler.c.o
 .bss           0x0000000000000000        0x0 kernel/libnoninstrumentables.a.p/generic_src_proc_scheduler.c.o
 .text          0x0000000000000000        0x0 kernel/libnoninstrumentables.a.p/generic_src_proc_task.c.o
 .data          0x0000000000000000        0x0 kernel/libnoninstrumentables.a.p/generic_src_proc_task.c.o
 .bss           0x0000000000000000        0x0 kernel/libnoninstrumentables.a.p/generic_src_proc_task.c.o
 .text          0x0000000000000000        0x0 kernel/libnoninstrumentables.a.p/generic_src_proc_thread.c.o
 .data          0x0000000000000000        0x0 kernel/libnoninstrumentables.a.p/generic_src_proc_thread.c.o
 .bss           0x0000000000000000        0x0 kernel/libnoninstrumentables.a.p/generic_src_proc_thread.c.o
 .text.thread_join_timeout
                0x0000000000000000       0x68 kernel/libnoninstrumentables.a.p/generic_src_proc_thread.c.o
 .text          0x0000000000000000        0x0 kernel/libnoninstrumentables.a.p/generic_src_security_perm.c.o
 .data          0x0000000000000000        0x0 kernel/libnoninstrumentables.a.p/generic_src_security_perm.c.o
 .bss           0x0000000000000000        0x0 kernel/libnoninstrumentables.a.p/generic_src_security_perm.c.o
 .text          0x0000000000000000        0x0 kernel/libnoninstrumentables.a.p/generic_src_smp_ipi.c.o
 .data          0x0000000000000000        0x0 kernel/libnoninstrumentables.a.p/generic_src_smp_ipi.c.o
 .bss           0x0000000000000000        0x0 kernel/libnoninstrumentables.a.p/generic_src_smp_ipi.c.o
 .text          0x0000000000000000        0x0 kernel/libnoninstrumentables.a.p/generic_src_smp_smp.c.o
 .data          0x0000000000000000        0x0 kernel/libnoninstrumentables.a.p/generic_src_smp_smp.c.o
 .bss           0x0000000000000000        0x0 kernel/libnoninstrumentables.a.p/generic_src_smp_smp.c.o
 .text          0x0000000000000000        0x0 kernel/libnoninstrumentables.a.p/generic_src_synch_condvar.c.o
 .data          0x0000000000000000        0x0 kernel/libnoninstrumentables.a.p/generic_src_synch_condvar.c.o
 .bss           0x0000000000000000        0x0 kernel/libnoninstrumentables.a.p/generic_src_synch_condvar.c.o
 .text.condvar_signal
                0x0000000000000000        0xa kernel/libnoninstrumentables.a.p/generic_src_synch_condvar.c.o
 .text.condvar_wait_timeout
                0x0000000000000000       0x64 kernel/libnoninstrumentables.a.p/generic_src_synch_condvar.c.o
 .text._condvar_wait_timeout_spinlock_impl
                0x0000000000000000       0x6d kernel/libnoninstrumentables.a.p/generic_src_synch_condvar.c.o
 .text._condvar_wait_timeout_irq_spinlock
                0x0000000000000000       0x82 kernel/libnoninstrumentables.a.p/generic_src_synch_condvar.c.o
 .text          0x0000000000000000        0x0 kernel/libnoninstrumentables.a.p/generic_src_synch_irq_spinlock.c.o
 .data          0x0000000000000000        0x0 kernel/libnoninstrumentables.a.p/generic_src_synch_irq_spinlock.c.o
 .bss           0x0000000000000000        0x0 kernel/libnoninstrumentables.a.p/generic_src_synch_irq_spinlock.c.o
 .rodata.irq_spinlock_trylock.str1.1
                0x0000000000000000       0x19 kernel/libnoninstrumentables.a.p/generic_src_synch_irq_spinlock.c.o
 .text.irq_spinlock_trylock
                0x0000000000000000       0xc2 kernel/libnoninstrumentables.a.p/generic_src_synch_irq_spinlock.c.o
 .text.irq_spinlock_exchange
                0x0000000000000000      0x17d kernel/libnoninstrumentables.a.p/generic_src_synch_irq_spinlock.c.o
 .rodata.__func__.0
                0x0000000000000000       0x16 kernel/libnoninstrumentables.a.p/generic_src_synch_irq_spinlock.c.o
 .rodata.__func__.2
                0x0000000000000000       0x15 kernel/libnoninstrumentables.a.p/generic_src_synch_irq_spinlock.c.o
 .text          0x0000000000000000        0x0 kernel/libnoninstrumentables.a.p/generic_src_synch_mutex.c.o
 .data          0x0000000000000000        0x0 kernel/libnoninstrumentables.a.p/generic_src_synch_mutex.c.o
 .bss           0x0000000000000000        0x0 kernel/libnoninstrumentables.a.p/generic_src_synch_mutex.c.o
 .rodata.mutex_lock_timeout.str1.1
                0x0000000000000000       0x1a kernel/libnoninstrumentables.a.p/generic_src_synch_mutex.c.o
 .text.mutex_lock_timeout
                0x0000000000000000       0xfd kernel/libnoninstrumentables.a.p/generic_src_synch_mutex.c.o
 .rodata.__func__.2
                0x0000000000000000       0x12 kernel/libnoninstrumentables.a.p/generic_src_synch_mutex.c.o
 .text          0x0000000000000000        0x0 kernel/libnoninstrumentables.a.p/generic_src_synch_semaphore.c.o
 .data          0x0000000000000000        0x0 kernel/libnoninstrumentables.a.p/generic_src_synch_semaphore.c.o
 .bss           0x0000000000000000        0x0 kernel/libnoninstrumentables.a.p/generic_src_synch_semaphore.c.o
 .text          0x0000000000000000        0x0 kernel/libnoninstrumentables.a.p/generic_src_synch_smc.c.o
 .data          0x0000000000000000        0x0 kernel/libnoninstrumentables.a.p/generic_src_synch_smc.c.o
 .bss           0x0000000000000000        0x0 kernel/libnoninstrumentables.a.p/generic_src_synch_smc.c.o
 .text          0x0000000000000000        0x0 kernel/libnoninstrumentables.a.p/generic_src_synch_spinlock.c.o
 .data          0x0000000000000000        0x0 kernel/libnoninstrumentables.a.p/generic_src_synch_spinlock.c.o
 .bss           0x0000000000000000        0x0 kernel/libnoninstrumentables.a.p/generic_src_synch_spinlock.c.o
 .text          0x0000000000000000        0x0 kernel/libnoninstrumentables.a.p/generic_src_synch_syswaitq.c.o
 .data          0x0000000000000000        0x0 kernel/libnoninstrumentables.a.p/generic_src_synch_syswaitq.c.o
 .bss           0x0000000000000000        0x0 kernel/libnoninstrumentables.a.p/generic_src_synch_syswaitq.c.o
 .text          0x0000000000000000        0x0 kernel/libnoninstrumentables.a.p/generic_src_synch_waitq.c.o
 .data          0x0000000000000000        0x0 kernel/libnoninstrumentables.a.p/generic_src_synch_waitq.c.o
 .bss           0x0000000000000000        0x0 kernel/libnoninstrumentables.a.p/generic_src_synch_waitq.c.o
 .text.waitq_signal
                0x0000000000000000       0x69 kernel/libnoninstrumentables.a.p/generic_src_synch_waitq.c.o
 .text          0x0000000000000000        0x0 kernel/libnoninstrumentables.a.p/generic_src_syscall_copy.c.o
 .data          0x0000000000000000        0x0 kernel/libnoninstrumentables.a.p/generic_src_syscall_copy.c.o
 .bss           0x0000000000000000        0x0 kernel/libnoninstrumentables.a.p/generic_src_syscall_copy.c.o
 .text          0x0000000000000000        0x0 kernel/libnoninstrumentables.a.p/generic_src_syscall_syscall.c.o
 .data          0x0000000000000000        0x0 kernel/libnoninstrumentables.a.p/generic_src_syscall_syscall.c.o
 .bss           0x0000000000000000        0x0 kernel/libnoninstrumentables.a.p/generic_src_syscall_syscall.c.o
 .text          0x0000000000000000        0x0 kernel/libnoninstrumentables.a.p/generic_src_sysinfo_stats.c.o
 .data          0x0000000000000000        0x0 kernel/libnoninstrumentables.a.p/generic_src_sysinfo_stats.c.o
 .bss           0x0000000000000000        0x0 kernel/libnoninstrumentables.a.p/generic_src_sysinfo_stats.c.o
 .text          0x0000000000000000        0x0 kernel/libnoninstrumentables.a.p/generic_src_time_clock.c.o
 .data          0x0000000000000000        0x0 kernel/libnoninstrumentables.a.p/generic_src_time_clock.c.o
 .bss           0x0000000000000000        0x0 kernel/libnoninstrumentables.a.p/generic_src_time_clock.c.o
 .text          0x0000000000000000        0x0 kernel/libnoninstrumentables.a.p/generic_src_time_delay.c.o
 .data          0x0000000000000000        0x0 kernel/libnoninstrumentables.a.p/generic_src_time_delay.c.o
 .bss           0x0000000000000000        0x0 kernel/libnoninstrumentables.a.p/generic_src_time_delay.c.o
 .text          0x0000000000000000        0x0 kernel/libnoninstrumentables.a.p/generic_src_time_timeout.c.o
 .data          0x0000000000000000        0x0 kernel/libnoninstrumentables.a.p/generic_src_time_timeout.c.o
 .bss           0x0000000000000000        0x0 kernel/libnoninstrumentables.a.p/generic_src_time_timeout.c.o
 .text.timeout_register
                0x0000000000000000       0xf1 kernel/libnoninstrumentables.a.p/generic_src_time_timeout.c.o
 .text          0x0000000000000000        0x0 kernel/libnoninstrumentables.a.p/generic_src_console_cmd.c.o
 .data          0x0000000000000000        0x0 kernel/libnoninstrumentables.a.p/generic_src_console_cmd.c.o
 .bss           0x0000000000000000        0x0 kernel/libnoninstrumentables.a.p/generic_src_console_cmd.c.o
 .text          0x0000000000000000        0x0 kernel/libnoninstrumentables.a.p/generic_src_ipc_kbox.c.o
 .data          0x0000000000000000        0x0 kernel/libnoninstrumentables.a.p/generic_src_ipc_kbox.c.o
 .bss           0x0000000000000000        0x0 kernel/libnoninstrumentables.a.p/generic_src_ipc_kbox.c.o
 .text          0x0000000000000000        0x0 kernel/libnoninstrumentables.a.p/generic_src_udebug_udebug.c.o
 .data          0x0000000000000000        0x0 kernel/libnoninstrumentables.a.p/generic_src_udebug_udebug.c.o
 .bss           0x0000000000000000        0x0 kernel/libnoninstrumentables.a.p/generic_src_udebug_udebug.c.o
 .text          0x0000000000000000        0x0 kernel/libnoninstrumentables.a.p/generic_src_udebug_udebug_ops.c.o
 .data          0x0000000000000000        0x0 kernel/libnoninstrumentables.a.p/generic_src_udebug_udebug_ops.c.o
 .bss           0x0000000000000000        0x0 kernel/libnoninstrumentables.a.p/generic_src_udebug_udebug_ops.c.o
 .text          0x0000000000000000        0x0 kernel/libnoninstrumentables.a.p/generic_src_udebug_udebug_ipc.c.o
 .data          0x0000000000000000        0x0 kernel/libnoninstrumentables.a.p/generic_src_udebug_udebug_ipc.c.o
 .bss           0x0000000000000000        0x0 kernel/libnoninstrumentables.a.p/generic_src_udebug_udebug_ipc.c.o
 .text          0x0000000000000000        0x0 kernel/libnoninstrumentables.a.p/test_test.c.o
 .data          0x0000000000000000        0x0 kernel/libnoninstrumentables.a.p/test_test.c.o
 .bss           0x0000000000000000        0x0 kernel/libnoninstrumentables.a.p/test_test.c.o
 .text          0x0000000000000000        0x0 kernel/libnoninstrumentables.a.p/test_atomic_atomic1.c.o
 .data          0x0000000000000000        0x0 kernel/libnoninstrumentables.a.p/test_atomic_atomic1.c.o
 .bss           0x0000000000000000        0x0 kernel/libnoninstrumentables.a.p/test_atomic_atomic1.c.o
 .text          0x0000000000000000        0x0 kernel/libnoninstrumentables.a.p/test_fault_fault1.c.o
 .data          0x0000000000000000        0x0 kernel/libnoninstrumentables.a.p/test_fault_fault1.c.o
 .bss           0x0000000000000000        0x0 kernel/libnoninstrumentables.a.p/test_fault_fault1.c.o
 .text          0x0000000000000000        0x0 kernel/libnoninstrumentables.a.p/test_mm_falloc1.c.o
 .data          0x0000000000000000        0x0 kernel/libnoninstrumentables.a.p/test_mm_falloc1.c.o
 .bss           0x0000000000000000        0x0 kernel/libnoninstrumentables.a.p/test_mm_falloc1.c.o
 .text          0x0000000000000000        0x0 kernel/libnoninstrumentables.a.p/test_mm_falloc2.c.o
 .data          0x0000000000000000        0x0 kernel/libnoninstrumentables.a.p/test_mm_falloc2.c.o
 .bss           0x0000000000000000        0x0 kernel/libnoninstrumentables.a.p/test_mm_falloc2.c.o
 .text          0x0000000000000000        0x0 kernel/libnoninstrumentables.a.p/test_mm_mapping1.c.o
 .data          0x0000000000000000        0x0 kernel/libnoninstrumentables.a.p/test_mm_mapping1.c.o
 .bss           0x0000000000000000        0x0 kernel/libnoninstrumentables.a.p/test_mm_mapping1.c.o
 .text          0x0000000000000000        0x0 kernel/libnoninstrumentables.a.p/test_mm_slab1.c.o
 .data          0x0000000000000000        0x0 kernel/libnoninstrumentables.a.p/test_mm_slab1.c.o
 .bss           0x0000000000000000        0x0 kernel/libnoninstrumentables.a.p/test_mm_slab1.c.o
 .text          0x0000000000000000        0x0 kernel/libnoninstrumentables.a.p/test_mm_slab2.c.o
 .data          0x0000000000000000        0x0 kernel/libnoninstrumentables.a.p/test_mm_slab2.c.o
 .bss           0x0000000000000000        0x0 kernel/libnoninstrumentables.a.p/test_mm_slab2.c.o
 .text          0x0000000000000000        0x0 kernel/libnoninstrumentables.a.p/test_synch_semaphore1.c.o
 .data          0x0000000000000000        0x0 kernel/libnoninstrumentables.a.p/test_synch_semaphore1.c.o
 .bss           0x0000000000000000        0x0 kernel/libnoninstrumentables.a.p/test_synch_semaphore1.c.o
 .text          0x0000000000000000        0x0 kernel/libnoninstrumentables.a.p/test_synch_semaphore2.c.o
 .data          0x0000000000000000        0x0 kernel/libnoninstrumentables.a.p/test_synch_semaphore2.c.o
 .bss           0x0000000000000000        0x0 kernel/libnoninstrumentables.a.p/test_synch_semaphore2.c.o
 .text          0x0000000000000000        0x0 kernel/libnoninstrumentables.a.p/test_print_print1.c.o
 .data          0x0000000000000000        0x0 kernel/libnoninstrumentables.a.p/test_print_print1.c.o
 .bss           0x0000000000000000        0x0 kernel/libnoninstrumentables.a.p/test_print_print1.c.o
 .text          0x0000000000000000        0x0 kernel/libnoninstrumentables.a.p/test_print_print2.c.o
 .data          0x0000000000000000        0x0 kernel/libnoninstrumentables.a.p/test_print_print2.c.o
 .bss           0x0000000000000000        0x0 kernel/libnoninstrumentables.a.p/test_print_print2.c.o
 .text          0x0000000000000000        0x0 kernel/libnoninstrumentables.a.p/test_print_print3.c.o
 .data          0x0000000000000000        0x0 kernel/libnoninstrumentables.a.p/test_print_print3.c.o
 .bss           0x0000000000000000        0x0 kernel/libnoninstrumentables.a.p/test_print_print3.c.o
 .text          0x0000000000000000        0x0 kernel/libnoninstrumentables.a.p/test_print_print4.c.o
 .data          0x0000000000000000        0x0 kernel/libnoninstrumentables.a.p/test_print_print4.c.o
 .bss           0x0000000000000000        0x0 kernel/libnoninstrumentables.a.p/test_print_print4.c.o
 .text          0x0000000000000000        0x0 kernel/libnoninstrumentables.a.p/test_print_print5.c.o
 .data          0x0000000000000000        0x0 kernel/libnoninstrumentables.a.p/test_print_print5.c.o
 .bss           0x0000000000000000        0x0 kernel/libnoninstrumentables.a.p/test_print_print5.c.o
 .text          0x0000000000000000        0x0 kernel/libnoninstrumentables.a.p/test_thread_thread1.c.o
 .data          0x0000000000000000        0x0 kernel/libnoninstrumentables.a.p/test_thread_thread1.c.o
 .bss           0x0000000000000000        0x0 kernel/libnoninstrumentables.a.p/test_thread_thread1.c.o
 .text          0x0000000000000000        0x0 kernel/libnoninstrumentables.a.p/test_debug_mips1_skip.c.o
 .data          0x0000000000000000        0x0 kernel/libnoninstrumentables.a.p/test_debug_mips1_skip.c.o
 .bss           0x0000000000000000        0x0 kernel/libnoninstrumentables.a.p/test_debug_mips1_skip.c.o
 .text          0x0000000000000000        0x0 kernel/libnoninstrumentables.a.p/test_mm_purge1_skip.c.o
 .data          0x0000000000000000        0x0 kernel/libnoninstrumentables.a.p/test_mm_purge1_skip.c.o
 .bss           0x0000000000000000        0x0 kernel/libnoninstrumentables.a.p/test_mm_purge1_skip.c.o
 .text.test_purge1
                0x0000000000000000        0x8 kernel/libnoninstrumentables.a.p/test_mm_purge1_skip.c.o

Memory Configuration

Name             Origin             Length             Attributes
*default*        0x0000000000000000 0xffffffffffffffff

Linker script and memory map

START GROUP
LOAD kernel/libinstrumentables.a
LOAD kernel/libnoninstrumentables.a
END GROUP
                0xffffffff80108000                kernel_load_address = 0xffffffff80108000

.unmapped       0x00000000001080e8     0xbf18
                0x00000000001080e8                unmapped_start = .
 *(K_TEXT_START)
 K_TEXT_START   0x00000000001080e8      0x165 kernel/libnoninstrumentables.a.p/arch_amd64_src_boot_multiboot2.S.o
                0x0000000000108178                multiboot2_image_start
 *fill*         0x000000000010824d        0x3 
 K_TEXT_START   0x0000000000108250      0x9f4 kernel/libnoninstrumentables.a.p/arch_amd64_src_boot_multiboot.S.o
                0x0000000000108270                multiboot_image_start
 *fill*         0x0000000000108c44      0x3bc 
 K_TEXT_START   0x0000000000109000       0x80 kernel/libnoninstrumentables.a.p/arch_amd64_src_smp_ap.S.o
                0x0000000000109000                unmapped_ap_boot
 *(K_DATA_START)
 K_DATA_START   0x0000000000109080      0x193 kernel/libnoninstrumentables.a.p/arch_amd64_src_boot_multiboot.S.o
                0x0000000000109080                bootstrap_idtr
                0x0000000000109086                bootstrap_gdtr
                0x000000000010908c                multiboot_eax
                0x0000000000109090                multiboot_ebx
 K_DATA_START   0x0000000000109213        0x6 kernel/libnoninstrumentables.a.p/arch_amd64_src_smp_ap.S.o
                0x0000000000109213                unmapped_ap_gdtr
 *(K_INI_PTLS)
 *fill*         0x0000000000109219      0xde7 
 K_INI_PTLS     0x000000000010a000     0xa000 kernel/libnoninstrumentables.a.p/arch_amd64_src_boot_multiboot.S.o
                0x0000000000113000                ptl_0
                0x0000000000114000                unmapped_end = .

.text           0xffffffff80114000    0x3f9f8 load address 0x0000000000114000
                0xffffffff80114000                ktext_start = .
 *(.text .text.*)
 .text.cpu_init
                0xffffffff80114000      0x204 kernel/libinstrumentables.a.p/generic_src_cpu_cpu.c.o
                0xffffffff80114000                cpu_init
 *fill*         0xffffffff80114204        0xc 
 .text.cpu_list
                0xffffffff80114210       0x72 kernel/libinstrumentables.a.p/generic_src_cpu_cpu.c.o
                0xffffffff80114210                cpu_list
 *fill*         0xffffffff80114282        0xe 
 .text.pareas_getkey
                0xffffffff80114290        0xa kernel/libinstrumentables.a.p/generic_src_ddi_ddi.c.o
 *fill*         0xffffffff8011429a        0x6 
 .text.pareas_cmp
                0xffffffff801142a0       0x19 kernel/libinstrumentables.a.p/generic_src_ddi_ddi.c.o
 *fill*         0xffffffff801142b9        0x7 
 .text.physmem_unmap.part.0
                0xffffffff801142c0       0x41 kernel/libinstrumentables.a.p/generic_src_ddi_ddi.c.o
 *fill*         0xffffffff80114301        0xf 
 .text.ddi_init
                0xffffffff80114310       0x2d kernel/libinstrumentables.a.p/generic_src_ddi_ddi.c.o
                0xffffffff80114310                ddi_init
 *fill*         0xffffffff8011433d        0x3 
 .text.ddi_parea_init
                0xffffffff80114340       0x2e kernel/libinstrumentables.a.p/generic_src_ddi_ddi.c.o
                0xffffffff80114340                ddi_parea_init
 *fill*         0xffffffff8011436e        0x2 
 .text.ddi_parea_register
                0xffffffff80114370       0x3d kernel/libinstrumentables.a.p/generic_src_ddi_ddi.c.o
                0xffffffff80114370                ddi_parea_register
 *fill*         0xffffffff801143ad        0x3 
 .text.ddi_parea_unmap_notify
                0xffffffff801143b0       0x1a kernel/libinstrumentables.a.p/generic_src_ddi_ddi.c.o
                0xffffffff801143b0                ddi_parea_unmap_notify
 *fill*         0xffffffff801143ca        0x6 
 .text.sys_physmem_map
                0xffffffff801143d0      0x2dc kernel/libinstrumentables.a.p/generic_src_ddi_ddi.c.o
                0xffffffff801143d0                sys_physmem_map
 *fill*         0xffffffff801146ac        0x4 
 .text.sys_physmem_unmap
                0xffffffff801146b0       0x30 kernel/libinstrumentables.a.p/generic_src_ddi_ddi.c.o
                0xffffffff801146b0                sys_physmem_unmap
 .text.sys_iospace_enable
                0xffffffff801146e0       0xfa kernel/libinstrumentables.a.p/generic_src_ddi_ddi.c.o
                0xffffffff801146e0                sys_iospace_enable
 *fill*         0xffffffff801147da        0x6 
 .text.sys_iospace_disable
                0xffffffff801147e0       0xfa kernel/libinstrumentables.a.p/generic_src_ddi_ddi.c.o
                0xffffffff801147e0                sys_iospace_disable
 *fill*         0xffffffff801148da        0x6 
 .text.sys_dmamem_map
                0xffffffff801148e0      0x21d kernel/libinstrumentables.a.p/generic_src_ddi_ddi.c.o
                0xffffffff801148e0                sys_dmamem_map
 *fill*         0xffffffff80114afd        0x3 
 .text.sys_dmamem_unmap
                0xffffffff80114b00       0x2f kernel/libinstrumentables.a.p/generic_src_ddi_ddi.c.o
                0xffffffff80114b00                sys_dmamem_unmap
 *fill*         0xffffffff80114b2f        0x1 
 .text.pio_map  0xffffffff80114b30       0x28 kernel/libinstrumentables.a.p/generic_src_ddi_ddi.c.o
                0xffffffff80114b30                pio_map
 *fill*         0xffffffff80114b58        0x8 
 .text.pio_unmap
                0xffffffff80114b60       0x1c kernel/libinstrumentables.a.p/generic_src_ddi_ddi.c.o
                0xffffffff80114b60                pio_unmap
 *fill*         0xffffffff80114b7c        0x4 
 .text.fault_from_uspace_core
                0xffffffff80114b80       0x84 kernel/libinstrumentables.a.p/generic_src_interrupt_interrupt.c.o
 *fill*         0xffffffff80114c04        0xc 
 .text.cmd_exc_print
                0xffffffff80114c10      0x2f5 kernel/libinstrumentables.a.p/generic_src_interrupt_interrupt.c.o
 *fill*         0xffffffff80114f05        0xb 
 .text.exc_register
                0xffffffff80114f10       0xd2 kernel/libinstrumentables.a.p/generic_src_interrupt_interrupt.c.o
                0xffffffff80114f10                exc_register
 *fill*         0xffffffff80114fe2        0xe 
 .text.exc_dispatch
                0xffffffff80114ff0      0x1d0 kernel/libinstrumentables.a.p/generic_src_interrupt_interrupt.c.o
                0xffffffff80114ff0                exc_dispatch
 .text.fault_from_uspace
                0xffffffff801151c0       0x38 kernel/libinstrumentables.a.p/generic_src_interrupt_interrupt.c.o
                0xffffffff801151c0                fault_from_uspace
 *fill*         0xffffffff801151f8        0x8 
 .text.fault_if_from_uspace
                0xffffffff80115200       0x48 kernel/libinstrumentables.a.p/generic_src_interrupt_interrupt.c.o
                0xffffffff80115200                fault_if_from_uspace
 *fill*         0xffffffff80115248        0x8 
 .text.exc_undef
                0xffffffff80115250       0x3c kernel/libinstrumentables.a.p/generic_src_interrupt_interrupt.c.o
 *fill*         0xffffffff8011528c        0x4 
 .text.istate_get
                0xffffffff80115290       0x13 kernel/libinstrumentables.a.p/generic_src_interrupt_interrupt.c.o
                0xffffffff80115290                istate_get
 *fill*         0xffffffff801152a3        0xd 
 .text.exc_init
                0xffffffff801152b0       0xb7 kernel/libinstrumentables.a.p/generic_src_interrupt_interrupt.c.o
                0xffffffff801152b0                exc_init
 *fill*         0xffffffff80115367        0x9 
 .text.kinit    0xffffffff80115370      0x67e kernel/libinstrumentables.a.p/generic_src_main_kinit.c.o
                0xffffffff80115370                kinit
 *fill*         0xffffffff801159ee        0x2 
 .text.main_ap_separated_stack
                0xffffffff801159f0       0x1a kernel/libinstrumentables.a.p/generic_src_main_main.c.o
 *fill*         0xffffffff80115a0a        0x6 
 .text.main_bsp_separated_stack
                0xffffffff80115a10      0x24e kernel/libinstrumentables.a.p/generic_src_main_main.c.o
 *fill*         0xffffffff80115c5e        0x2 
 .text.main_bsp
                0xffffffff80115c60       0x74 kernel/libinstrumentables.a.p/generic_src_main_main.c.o
                0xffffffff80115c60                main_bsp
 *fill*         0xffffffff80115cd4        0xc 
 .text.main_ap  0xffffffff80115ce0       0xca kernel/libinstrumentables.a.p/generic_src_main_main.c.o
                0xffffffff80115ce0                main_ap
 *fill*         0xffffffff80115daa        0x6 
 .text.as_destructor
                0xffffffff80115db0        0x8 kernel/libinstrumentables.a.p/generic_src_mm_as.c.o
 *fill*         0xffffffff80115db8        0x8 
 .text.as_areas_getkey
                0xffffffff80115dc0        0xa kernel/libinstrumentables.a.p/generic_src_mm_as.c.o
 *fill*         0xffffffff80115dca        0x6 
 .text.as_areas_cmp
                0xffffffff80115dd0       0x19 kernel/libinstrumentables.a.p/generic_src_mm_as.c.o
 *fill*         0xffffffff80115de9        0x7 
 .text.used_space_getkey
                0xffffffff80115df0        0xa kernel/libinstrumentables.a.p/generic_src_mm_as.c.o
 *fill*         0xffffffff80115dfa        0x6 
 .text.as_constructor
                0xffffffff80115e00       0x23 kernel/libinstrumentables.a.p/generic_src_mm_as.c.o
 *fill*         0xffffffff80115e23        0xd 
 .text.find_area_and_lock
                0xffffffff80115e30       0xfb kernel/libinstrumentables.a.p/generic_src_mm_as.c.o
 *fill*         0xffffffff80115f2b        0x5 
 .text.page_table_lock.part.0
                0xffffffff80115f30       0x41 kernel/libinstrumentables.a.p/generic_src_mm_as.c.o
 *fill*         0xffffffff80115f71        0xf 
 .text.page_table_unlock.part.0
                0xffffffff80115f80       0x41 kernel/libinstrumentables.a.p/generic_src_mm_as.c.o
 *fill*         0xffffffff80115fc1        0xf 
 .text.as_pagemap_getkey
                0xffffffff80115fd0        0xa kernel/libinstrumentables.a.p/generic_src_mm_as.c.o
 *fill*         0xffffffff80115fda        0x6 
 .text.as_pagemap_cmp
                0xffffffff80115fe0       0x19 kernel/libinstrumentables.a.p/generic_src_mm_as.c.o
 *fill*         0xffffffff80115ff9        0x7 
 .text.used_space_cmp
                0xffffffff80116000       0x19 kernel/libinstrumentables.a.p/generic_src_mm_as.c.o
 *fill*         0xffffffff80116019        0x7 
 .text.area_is_conflicting
                0xffffffff80116020      0x100 kernel/libinstrumentables.a.p/generic_src_mm_as.c.o
 .text.check_area_conflicts
                0xffffffff80116120      0x1e8 kernel/libinstrumentables.a.p/generic_src_mm_as.c.o
 *fill*         0xffffffff80116308        0x8 
 .text.sh_info_remove_reference
                0xffffffff80116310      0x138 kernel/libinstrumentables.a.p/generic_src_mm_as.c.o
 *fill*         0xffffffff80116448        0x8 
 .text.as_init  0xffffffff80116450      0x16a kernel/libinstrumentables.a.p/generic_src_mm_as.c.o
                0xffffffff80116450                as_init
 *fill*         0xffffffff801165ba        0x6 
 .text.as_create
                0xffffffff801165c0       0xd1 kernel/libinstrumentables.a.p/generic_src_mm_as.c.o
                0xffffffff801165c0                as_create
 *fill*         0xffffffff80116691        0xf 
 .text.as_area_first
                0xffffffff801166a0       0x1a kernel/libinstrumentables.a.p/generic_src_mm_as.c.o
                0xffffffff801166a0                as_area_first
 *fill*         0xffffffff801166ba        0x6 
 .text.as_area_next
                0xffffffff801166c0       0x25 kernel/libinstrumentables.a.p/generic_src_mm_as.c.o
                0xffffffff801166c0                as_area_next
 *fill*         0xffffffff801166e5        0xb 
 .text.as_pagemap_find
                0xffffffff801166f0       0x43 kernel/libinstrumentables.a.p/generic_src_mm_as.c.o
                0xffffffff801166f0                as_pagemap_find
 *fill*         0xffffffff80116733        0xd 
 .text.as_pagemap_insert
                0xffffffff80116740       0x6f kernel/libinstrumentables.a.p/generic_src_mm_as.c.o
                0xffffffff80116740                as_pagemap_insert
 *fill*         0xffffffff801167af        0x1 
 .text.as_area_create
                0xffffffff801167b0      0x534 kernel/libinstrumentables.a.p/generic_src_mm_as.c.o
                0xffffffff801167b0                as_area_create
 *fill*         0xffffffff80116ce4        0xc 
 .text.as_area_resize
                0xffffffff80116cf0      0x5e6 kernel/libinstrumentables.a.p/generic_src_mm_as.c.o
                0xffffffff80116cf0                as_area_resize
 *fill*         0xffffffff801172d6        0xa 
 .text.as_area_destroy
                0xffffffff801172e0      0x34a kernel/libinstrumentables.a.p/generic_src_mm_as.c.o
                0xffffffff801172e0                as_area_destroy
 *fill*         0xffffffff8011762a        0x6 
 .text.as_release
                0xffffffff80117630      0x302 kernel/libinstrumentables.a.p/generic_src_mm_as.c.o
                0xffffffff80117630                as_release
 *fill*         0xffffffff80117932        0xe 
 .text.as_area_share
                0xffffffff80117940      0x212 kernel/libinstrumentables.a.p/generic_src_mm_as.c.o
                0xffffffff80117940                as_area_share
 *fill*         0xffffffff80117b52        0xe 
 .text.as_area_check_access
                0xffffffff80117b60       0x85 kernel/libinstrumentables.a.p/generic_src_mm_as.c.o
                0xffffffff80117b60                as_area_check_access
 *fill*         0xffffffff80117be5        0xb 
 .text.as_area_change_flags
                0xffffffff80117bf0      0x585 kernel/libinstrumentables.a.p/generic_src_mm_as.c.o
                0xffffffff80117bf0                as_area_change_flags
 *fill*         0xffffffff80118175        0xb 
 .text.as_page_fault
                0xffffffff80118180      0x39f kernel/libinstrumentables.a.p/generic_src_mm_as.c.o
                0xffffffff80118180                as_page_fault
 *fill*         0xffffffff8011851f        0x1 
 .text.as_switch
                0xffffffff80118520      0x256 kernel/libinstrumentables.a.p/generic_src_mm_as.c.o
                0xffffffff80118520                as_switch
 *fill*         0xffffffff80118776        0xa 
 .text.as_area_get_flags
                0xffffffff80118780       0x92 kernel/libinstrumentables.a.p/generic_src_mm_as.c.o
                0xffffffff80118780                as_area_get_flags
 *fill*         0xffffffff80118812        0xe 
 .text.page_table_lock
                0xffffffff80118820       0x60 kernel/libinstrumentables.a.p/generic_src_mm_as.c.o
                0xffffffff80118820                page_table_lock
 .text.page_table_unlock
                0xffffffff80118880       0x60 kernel/libinstrumentables.a.p/generic_src_mm_as.c.o
                0xffffffff80118880                page_table_unlock
 .text.page_table_locked
                0xffffffff801188e0       0x6a kernel/libinstrumentables.a.p/generic_src_mm_as.c.o
                0xffffffff801188e0                page_table_locked
 *fill*         0xffffffff8011894a        0x6 
 .text.as_area_get_size
                0xffffffff80118950       0xfa kernel/libinstrumentables.a.p/generic_src_mm_as.c.o
                0xffffffff80118950                as_area_get_size
 *fill*         0xffffffff80118a4a        0x6 
 .text.used_space_first
                0xffffffff80118a50       0x16 kernel/libinstrumentables.a.p/generic_src_mm_as.c.o
                0xffffffff80118a50                used_space_first
 *fill*         0xffffffff80118a66        0xa 
 .text.used_space_next
                0xffffffff80118a70       0x1d kernel/libinstrumentables.a.p/generic_src_mm_as.c.o
                0xffffffff80118a70                used_space_next
 *fill*         0xffffffff80118a8d        0x3 
 .text.used_space_find_gteq
                0xffffffff80118a90       0x72 kernel/libinstrumentables.a.p/generic_src_mm_as.c.o
                0xffffffff80118a90                used_space_find_gteq
 *fill*         0xffffffff80118b02        0xe 
 .text.used_space_insert
                0xffffffff80118b10      0x345 kernel/libinstrumentables.a.p/generic_src_mm_as.c.o
                0xffffffff80118b10                used_space_insert
 *fill*         0xffffffff80118e55        0xb 
 .text.sys_as_area_create
                0xffffffff80118e60       0xb5 kernel/libinstrumentables.a.p/generic_src_mm_as.c.o
                0xffffffff80118e60                sys_as_area_create
 *fill*         0xffffffff80118f15        0xb 
 .text.sys_as_area_resize
                0xffffffff80118f20       0x25 kernel/libinstrumentables.a.p/generic_src_mm_as.c.o
                0xffffffff80118f20                sys_as_area_resize
 *fill*         0xffffffff80118f45        0xb 
 .text.sys_as_area_change_flags
                0xffffffff80118f50       0x1d kernel/libinstrumentables.a.p/generic_src_mm_as.c.o
                0xffffffff80118f50                sys_as_area_change_flags
 *fill*         0xffffffff80118f6d        0x3 
 .text.sys_as_area_get_info
                0xffffffff80118f70       0xd8 kernel/libinstrumentables.a.p/generic_src_mm_as.c.o
                0xffffffff80118f70                sys_as_area_get_info
 *fill*         0xffffffff80119048        0x8 
 .text.sys_as_area_destroy
                0xffffffff80119050       0x1d kernel/libinstrumentables.a.p/generic_src_mm_as.c.o
                0xffffffff80119050                sys_as_area_destroy
 *fill*         0xffffffff8011906d        0x3 
 .text.as_get_area_info
                0xffffffff80119070      0x15a kernel/libinstrumentables.a.p/generic_src_mm_as.c.o
                0xffffffff80119070                as_get_area_info
 *fill*         0xffffffff801191ca        0x6 
 .text.zone_get_frame.part.0
                0xffffffff801191d0       0x41 kernel/libinstrumentables.a.p/generic_src_mm_frame.c.o
 *fill*         0xffffffff80119211        0xf 
 .text.zone_mark_unavailable
                0xffffffff80119220       0xfe kernel/libinstrumentables.a.p/generic_src_mm_frame.c.o
 *fill*         0xffffffff8011931e        0x2 
 .text.zones_insert_zone
                0xffffffff80119320      0x22d kernel/libinstrumentables.a.p/generic_src_mm_frame.c.o
 *fill*         0xffffffff8011954d        0x3 
 .text.find_free_zone
                0xffffffff80119550      0x171 kernel/libinstrumentables.a.p/generic_src_mm_frame.c.o
 *fill*         0xffffffff801196c1        0xf 
 .text.zone_merge_internal
                0xffffffff801196d0      0x40e kernel/libinstrumentables.a.p/generic_src_mm_frame.c.o
 *fill*         0xffffffff80119ade        0x2 
 .text.zone_frame_alloc
                0xffffffff80119ae0      0x177 kernel/libinstrumentables.a.p/generic_src_mm_frame.c.o
 *fill*         0xffffffff80119c57        0x9 
 .text.return_config_frames
                0xffffffff80119c60      0x17a kernel/libinstrumentables.a.p/generic_src_mm_frame.c.o
 *fill*         0xffffffff80119dda        0x6 
 .text.frame_total_free_get
                0xffffffff80119de0       0x67 kernel/libinstrumentables.a.p/generic_src_mm_frame.c.o
                0xffffffff80119de0                frame_total_free_get
 *fill*         0xffffffff80119e47        0x9 
 .text.find_zone
                0xffffffff80119e50       0x61 kernel/libinstrumentables.a.p/generic_src_mm_frame.c.o
                0xffffffff80119e50                find_zone
 *fill*         0xffffffff80119eb1        0xf 
 .text.zone_merge_all
                0xffffffff80119ec0      0x30a kernel/libinstrumentables.a.p/generic_src_mm_frame.c.o
                0xffffffff80119ec0                zone_merge_all
 *fill*         0xffffffff8011a1ca        0x6 
 .text.zone_external_conf_alloc
                0xffffffff8011a1d0      0x1b5 kernel/libinstrumentables.a.p/generic_src_mm_frame.c.o
                0xffffffff8011a1d0                zone_external_conf_alloc
 *fill*         0xffffffff8011a385        0xb 
 .text.zone_create
                0xffffffff8011a390      0x5d4 kernel/libinstrumentables.a.p/generic_src_mm_frame.c.o
                0xffffffff8011a390                zone_create
 *fill*         0xffffffff8011a964        0xc 
 .text.frame_set_parent
                0xffffffff8011a970       0xef kernel/libinstrumentables.a.p/generic_src_mm_frame.c.o
                0xffffffff8011a970                frame_set_parent
 *fill*         0xffffffff8011aa5f        0x1 
 .text.frame_get_parent
                0xffffffff8011aa60       0xf0 kernel/libinstrumentables.a.p/generic_src_mm_frame.c.o
                0xffffffff8011aa60                frame_get_parent
 .text.frame_alloc_generic
                0xffffffff8011ab50      0x3d2 kernel/libinstrumentables.a.p/generic_src_mm_frame.c.o
                0xffffffff8011ab50                frame_alloc_generic
 *fill*         0xffffffff8011af22        0xe 
 .text.frame_alloc
                0xffffffff8011af30       0x10 kernel/libinstrumentables.a.p/generic_src_mm_frame.c.o
                0xffffffff8011af30                frame_alloc
 .text.frame_free_generic
                0xffffffff8011af40      0x299 kernel/libinstrumentables.a.p/generic_src_mm_frame.c.o
                0xffffffff8011af40                frame_free_generic
 *fill*         0xffffffff8011b1d9        0x7 
 .text.frame_free
                0xffffffff8011b1e0        0xc kernel/libinstrumentables.a.p/generic_src_mm_frame.c.o
                0xffffffff8011b1e0                frame_free
 *fill*         0xffffffff8011b1ec        0x4 
 .text.frame_free_noreserve
                0xffffffff8011b1f0        0xf kernel/libinstrumentables.a.p/generic_src_mm_frame.c.o
                0xffffffff8011b1f0                frame_free_noreserve
 *fill*         0xffffffff8011b1ff        0x1 
 .text.frame_reference_add
                0xffffffff8011b200       0xc1 kernel/libinstrumentables.a.p/generic_src_mm_frame.c.o
                0xffffffff8011b200                frame_reference_add
 *fill*         0xffffffff8011b2c1        0xf 
 .text.frame_mark_unavailable
                0xffffffff8011b2d0       0xbb kernel/libinstrumentables.a.p/generic_src_mm_frame.c.o
                0xffffffff8011b2d0                frame_mark_unavailable
 *fill*         0xffffffff8011b38b        0x5 
 .text.frame_init
                0xffffffff8011b390      0x1b1 kernel/libinstrumentables.a.p/generic_src_mm_frame.c.o
                0xffffffff8011b390                frame_init
 *fill*         0xffffffff8011b541        0xf 
 .text.frame_adjust_zone_bounds
                0xffffffff8011b550       0x69 kernel/libinstrumentables.a.p/generic_src_mm_frame.c.o
                0xffffffff8011b550                frame_adjust_zone_bounds
 *fill*         0xffffffff8011b5b9        0x7 
 .text.zones_total_size
                0xffffffff8011b5c0       0x6e kernel/libinstrumentables.a.p/generic_src_mm_frame.c.o
                0xffffffff8011b5c0                zones_total_size
 *fill*         0xffffffff8011b62e        0x2 
 .text.zones_stats
                0xffffffff8011b630      0x16f kernel/libinstrumentables.a.p/generic_src_mm_frame.c.o
                0xffffffff8011b630                zones_stats
 *fill*         0xffffffff8011b79f        0x1 
 .text.zones_print_list
                0xffffffff8011b7a0      0x317 kernel/libinstrumentables.a.p/generic_src_mm_frame.c.o
                0xffffffff8011b7a0                zones_print_list
 *fill*         0xffffffff8011bab7        0x9 
 .text.zone_print_one
                0xffffffff8011bac0      0x60b kernel/libinstrumentables.a.p/generic_src_mm_frame.c.o
                0xffffffff8011bac0                zone_print_one
 *fill*         0xffffffff8011c0cb        0x5 
 .text.page_init
                0xffffffff8011c0d0        0xa kernel/libinstrumentables.a.p/generic_src_mm_page.c.o
                0xffffffff8011c0d0                page_init
 *fill*         0xffffffff8011c0da        0x6 
 .text.page_mapping_insert
                0xffffffff8011c0e0       0xd3 kernel/libinstrumentables.a.p/generic_src_mm_page.c.o
                0xffffffff8011c0e0                page_mapping_insert
 *fill*         0xffffffff8011c1b3        0xd 
 .text.page_mapping_remove
                0xffffffff8011c1c0       0xa7 kernel/libinstrumentables.a.p/generic_src_mm_page.c.o
                0xffffffff8011c1c0                page_mapping_remove
 *fill*         0xffffffff8011c267        0x9 
 .text.page_mapping_find
                0xffffffff8011c270       0xbc kernel/libinstrumentables.a.p/generic_src_mm_page.c.o
                0xffffffff8011c270                page_mapping_find
 *fill*         0xffffffff8011c32c        0x4 
 .text.page_mapping_make_global
                0xffffffff8011c330       0x6a kernel/libinstrumentables.a.p/generic_src_mm_page.c.o
                0xffffffff8011c330                page_mapping_make_global
 *fill*         0xffffffff8011c39a        0x6 
 .text.page_find_mapping
                0xffffffff8011c3a0      0x14b kernel/libinstrumentables.a.p/generic_src_mm_page.c.o
                0xffffffff8011c3a0                page_find_mapping
 *fill*         0xffffffff8011c4eb        0x5 
 .text.sys_page_find_mapping
                0xffffffff8011c4f0      0x15b kernel/libinstrumentables.a.p/generic_src_mm_page.c.o
                0xffffffff8011c4f0                sys_page_find_mapping
 *fill*         0xffffffff8011c64b        0x5 
 .text.slab_cache_create.part.0
                0xffffffff8011c650       0x1d kernel/libinstrumentables.a.p/generic_src_mm_slab.c.o
 *fill*         0xffffffff8011c66d        0x3 
 .text.slab_alloc
                0xffffffff8011c670      0x6e0 kernel/libinstrumentables.a.p/generic_src_mm_slab.c.o
                0xffffffff8011c670                slab_alloc
 .text._slab_free.constprop.0
                0xffffffff8011cd50      0x2fb kernel/libinstrumentables.a.p/generic_src_mm_slab.c.o
 *fill*         0xffffffff8011d04b        0x5 
 .text.slab_obj_destroy
                0xffffffff8011d050      0x1ef kernel/libinstrumentables.a.p/generic_src_mm_slab.c.o
 .text.unlikely._slab_reclaim.part.0
                0xffffffff8011d23f        0xa kernel/libinstrumentables.a.p/generic_src_mm_slab.c.o
 *fill*         0xffffffff8011d249        0x7 
 .text._slab_reclaim.part.0
                0xffffffff8011d250      0x293 kernel/libinstrumentables.a.p/generic_src_mm_slab.c.o
 *fill*         0xffffffff8011d4e3        0xd 
 .text.slab_cache_destroy
                0xffffffff8011d4f0       0xcc kernel/libinstrumentables.a.p/generic_src_mm_slab.c.o
                0xffffffff8011d4f0                slab_cache_destroy
 *fill*         0xffffffff8011d5bc        0x4 
 .text._slab_cache_create
                0xffffffff8011d5c0      0x2e6 kernel/libinstrumentables.a.p/generic_src_mm_slab.c.o
 *fill*         0xffffffff8011d8a6        0xa 
 .text.slab_cache_create
                0xffffffff8011d8b0       0x87 kernel/libinstrumentables.a.p/generic_src_mm_slab.c.o
                0xffffffff8011d8b0                slab_cache_create
 *fill*         0xffffffff8011d937        0x9 
 .text.slab_free
                0xffffffff8011d940      0x2fb kernel/libinstrumentables.a.p/generic_src_mm_slab.c.o
                0xffffffff8011d940                slab_free
 *fill*         0xffffffff8011dc3b        0x5 
 .text.slab_reclaim
                0xffffffff8011dc40       0x9d kernel/libinstrumentables.a.p/generic_src_mm_slab.c.o
                0xffffffff8011dc40                slab_reclaim
 *fill*         0xffffffff8011dcdd        0x3 
 .text.slab_print_list
                0xffffffff8011dce0      0x127 kernel/libinstrumentables.a.p/generic_src_mm_slab.c.o
                0xffffffff8011dce0                slab_print_list
 *fill*         0xffffffff8011de07        0x9 
 .text.slab_cache_init
                0xffffffff8011de10       0xbf kernel/libinstrumentables.a.p/generic_src_mm_slab.c.o
                0xffffffff8011de10                slab_cache_init
 *fill*         0xffffffff8011decf        0x1 
 .text.slab_enable_cpucache
                0xffffffff8011ded0      0x183 kernel/libinstrumentables.a.p/generic_src_mm_slab.c.o
                0xffffffff8011ded0                slab_enable_cpucache
 *fill*         0xffffffff8011e053        0xd 
 .text.tlb_init
                0xffffffff8011e060        0xa kernel/libinstrumentables.a.p/generic_src_mm_tlb.c.o
                0xffffffff8011e060                tlb_init
 *fill*         0xffffffff8011e06a        0x6 
 .text.tlb_shootdown_start
                0xffffffff8011e070      0x14c kernel/libinstrumentables.a.p/generic_src_mm_tlb.c.o
                0xffffffff8011e070                tlb_shootdown_start
 *fill*         0xffffffff8011e1bc        0x4 
 .text.tlb_shootdown_finalize
                0xffffffff8011e1c0       0x39 kernel/libinstrumentables.a.p/generic_src_mm_tlb.c.o
                0xffffffff8011e1c0                tlb_shootdown_finalize
 *fill*         0xffffffff8011e1f9        0x7 
 .text.tlb_shootdown_ipi_recv
                0xffffffff8011e200      0x1ab kernel/libinstrumentables.a.p/generic_src_mm_tlb.c.o
                0xffffffff8011e200                tlb_shootdown_ipi_recv
 *fill*         0xffffffff8011e3ab        0x5 
 .text.current_initialize
                0xffffffff8011e3b0       0x3c kernel/libinstrumentables.a.p/generic_src_proc_current.c.o
                0xffffffff8011e3b0                current_initialize
 *fill*         0xffffffff8011e3ec        0x4 
 .text.current_copy
                0xffffffff8011e3f0       0x81 kernel/libinstrumentables.a.p/generic_src_proc_current.c.o
                0xffffffff8011e3f0                current_copy
 *fill*         0xffffffff8011e471        0xf 
 .text.sysinfo_item_constructor
                0xffffffff8011e480       0x2d kernel/libinstrumentables.a.p/generic_src_sysinfo_sysinfo.c.o
 *fill*         0xffffffff8011e4ad        0x3 
 .text.sysinfo_item_destructor
                0xffffffff8011e4b0       0x1b kernel/libinstrumentables.a.p/generic_src_sysinfo_sysinfo.c.o
 *fill*         0xffffffff8011e4cb        0x5 
 .text.sysinfo_create_path
                0xffffffff8011e4d0      0x28d kernel/libinstrumentables.a.p/generic_src_sysinfo_sysinfo.c.o
 *fill*         0xffffffff8011e75d        0x3 
 .text.sysinfo_dump_internal
                0xffffffff8011e760      0x20a kernel/libinstrumentables.a.p/generic_src_sysinfo_sysinfo.c.o
 *fill*         0xffffffff8011e96a        0x6 
 .text.sysinfo_find_item
                0xffffffff8011e970      0x124 kernel/libinstrumentables.a.p/generic_src_sysinfo_sysinfo.c.o
 *fill*         0xffffffff8011ea94        0xc 
 .text.sysinfo_get_keys.constprop.0
                0xffffffff8011eaa0       0xf9 kernel/libinstrumentables.a.p/generic_src_sysinfo_sysinfo.c.o
 *fill*         0xffffffff8011eb99        0x7 
 .text.sysinfo_dump_internal.constprop.0
                0xffffffff8011eba0      0x1b2 kernel/libinstrumentables.a.p/generic_src_sysinfo_sysinfo.c.o
 *fill*         0xffffffff8011ed52        0xe 
 .text.sysinfo_init
                0xffffffff8011ed60       0x44 kernel/libinstrumentables.a.p/generic_src_sysinfo_sysinfo.c.o
                0xffffffff8011ed60                sysinfo_init
 *fill*         0xffffffff8011eda4        0xc 
 .text.sysinfo_set_item_val
                0xffffffff8011edb0       0x83 kernel/libinstrumentables.a.p/generic_src_sysinfo_sysinfo.c.o
                0xffffffff8011edb0                sysinfo_set_item_val
 *fill*         0xffffffff8011ee33        0xd 
 .text.sysinfo_set_item_data
                0xffffffff8011ee40       0x93 kernel/libinstrumentables.a.p/generic_src_sysinfo_sysinfo.c.o
                0xffffffff8011ee40                sysinfo_set_item_data
 *fill*         0xffffffff8011eed3        0xd 
 .text.sysinfo_set_item_gen_data
                0xffffffff8011eee0       0x93 kernel/libinstrumentables.a.p/generic_src_sysinfo_sysinfo.c.o
                0xffffffff8011eee0                sysinfo_set_item_gen_data
 *fill*         0xffffffff8011ef73        0xd 
 .text.sysinfo_set_subtree_fn
                0xffffffff8011ef80       0x93 kernel/libinstrumentables.a.p/generic_src_sysinfo_sysinfo.c.o
                0xffffffff8011ef80                sysinfo_set_subtree_fn
 *fill*         0xffffffff8011f013        0xd 
 .text.sysinfo_dump
                0xffffffff8011f020       0x4e kernel/libinstrumentables.a.p/generic_src_sysinfo_sysinfo.c.o
                0xffffffff8011f020                sysinfo_dump
 *fill*         0xffffffff8011f06e        0x2 
 .text.sys_sysinfo_get_keys_size
                0xffffffff8011f070       0xf9 kernel/libinstrumentables.a.p/generic_src_sysinfo_sysinfo.c.o
                0xffffffff8011f070                sys_sysinfo_get_keys_size
 *fill*         0xffffffff8011f169        0x7 
 .text.sys_sysinfo_get_keys
                0xffffffff8011f170      0x11f kernel/libinstrumentables.a.p/generic_src_sysinfo_sysinfo.c.o
                0xffffffff8011f170                sys_sysinfo_get_keys
 *fill*         0xffffffff8011f28f        0x1 
 .text.sys_sysinfo_get_val_type
                0xffffffff8011f290      0x170 kernel/libinstrumentables.a.p/generic_src_sysinfo_sysinfo.c.o
                0xffffffff8011f290                sys_sysinfo_get_val_type
 .text.sys_sysinfo_get_value
                0xffffffff8011f400      0x1e4 kernel/libinstrumentables.a.p/generic_src_sysinfo_sysinfo.c.o
                0xffffffff8011f400                sys_sysinfo_get_value
 *fill*         0xffffffff8011f5e4        0xc 
 .text.sys_sysinfo_get_data_size
                0xffffffff8011f5f0      0x1e4 kernel/libinstrumentables.a.p/generic_src_sysinfo_sysinfo.c.o
                0xffffffff8011f5f0                sys_sysinfo_get_data_size
 *fill*         0xffffffff8011f7d4        0xc 
 .text.sys_sysinfo_get_data
                0xffffffff8011f7e0      0x241 kernel/libinstrumentables.a.p/generic_src_sysinfo_sysinfo.c.o
                0xffffffff8011f7e0                sys_sysinfo_get_data
 *fill*         0xffffffff8011fa21        0xf 
 .text.parse_int_arg
                0xffffffff8011fa30      0x208 kernel/libinstrumentables.a.p/generic_src_console_kconsole.c.o
 *fill*         0xffffffff8011fc38        0x8 
 .text.kconsole_init
                0xffffffff8011fc40       0x6f kernel/libinstrumentables.a.p/generic_src_console_kconsole.c.o
                0xffffffff8011fc40                kconsole_init
 *fill*         0xffffffff8011fcaf        0x1 
 .text.cmd_register
                0xffffffff8011fcb0      0x109 kernel/libinstrumentables.a.p/generic_src_console_kconsole.c.o
                0xffffffff8011fcb0                cmd_register
 *fill*         0xffffffff8011fdb9        0x7 
 .text.cmdtab_enum
                0xffffffff8011fdc0      0x109 kernel/libinstrumentables.a.p/generic_src_console_kconsole.c.o
                0xffffffff8011fdc0                cmdtab_enum
 *fill*         0xffffffff8011fec9        0x7 
 .text.kconsole_check_poll
                0xffffffff8011fed0       0x11 kernel/libinstrumentables.a.p/generic_src_console_kconsole.c.o
                0xffffffff8011fed0                kconsole_check_poll
 *fill*         0xffffffff8011fee1        0xf 
 .text.kconsole
                0xffffffff8011fef0     0x13b4 kernel/libinstrumentables.a.p/generic_src_console_kconsole.c.o
                0xffffffff8011fef0                kconsole
 *fill*         0xffffffff801212a4        0xc 
 .text.kconsole_thread
                0xffffffff801212b0       0x1d kernel/libinstrumentables.a.p/generic_src_console_kconsole.c.o
                0xffffffff801212b0                kconsole_thread
 *fill*         0xffffffff801212cd        0x3 
 .text.amd64_post_smp_init
                0xffffffff801212d0      0x126 kernel/libnoninstrumentables.a.p/arch_amd64_src_amd64.c.o
 *fill*         0xffffffff801213f6        0xa 
 .text.amd64_pre_smp_init
                0xffffffff80121400       0x1e kernel/libnoninstrumentables.a.p/arch_amd64_src_amd64.c.o
 *fill*         0xffffffff8012141e        0x2 
 .text.amd64_post_mm_init
                0xffffffff80121420       0x6e kernel/libnoninstrumentables.a.p/arch_amd64_src_amd64.c.o
 *fill*         0xffffffff8012148e        0x2 
 .text.amd64_post_cpu_init
                0xffffffff80121490       0x1f kernel/libnoninstrumentables.a.p/arch_amd64_src_amd64.c.o
 *fill*         0xffffffff801214af        0x1 
 .text.amd64_pre_mm_init
                0xffffffff801214b0       0xc0 kernel/libnoninstrumentables.a.p/arch_amd64_src_amd64.c.o
 .text.amd64_pre_main
                0xffffffff80121570       0x46 kernel/libnoninstrumentables.a.p/arch_amd64_src_amd64.c.o
                0xffffffff80121570                amd64_pre_main
 *fill*         0xffffffff801215b6        0xa 
 .text.calibrate_delay_loop
                0xffffffff801215c0       0x1e kernel/libnoninstrumentables.a.p/arch_amd64_src_amd64.c.o
                0xffffffff801215c0                calibrate_delay_loop
 *fill*         0xffffffff801215de        0x2 
 .text.arch_construct_function
                0xffffffff801215e0        0x9 kernel/libnoninstrumentables.a.p/arch_amd64_src_amd64.c.o
                0xffffffff801215e0                arch_construct_function
 *fill*         0xffffffff801215e9        0x7 
 .text.arch_reboot
                0xffffffff801215f0        0xf kernel/libnoninstrumentables.a.p/arch_amd64_src_amd64.c.o
                0xffffffff801215f0                arch_reboot
 *fill*         0xffffffff801215ff        0x1 
 .text.irq_initialize_arch
                0xffffffff80121600        0x6 kernel/libnoninstrumentables.a.p/arch_amd64_src_amd64.c.o
                0xffffffff80121600                irq_initialize_arch
 .text          0xffffffff80121606     0x3c82 kernel/libnoninstrumentables.a.p/arch_amd64_src_asm.S.o
                0xffffffff80121606                memcpy_to_uspace
                0xffffffff80121606                memcpy_from_uspace
                0xffffffff8012161f                memcpy_to_uspace_failover_address
                0xffffffff8012161f                memcpy_from_uspace_failover_address
                0xffffffff80121622                has_cpuid
                0xffffffff8012163f                cpuid
                0xffffffff80121655                enable_l_apic_in_msr
                0xffffffff80121664                int_0
                0xffffffff80121664                interrupt_handlers
                0xffffffff80121750                int_1
                0xffffffff8012183c                int_2
                0xffffffff80121928                int_3
                0xffffffff80121a14                int_4
                0xffffffff80121b00                int_5
                0xffffffff80121bec                int_6
                0xffffffff80121cd8                int_7
                0xffffffff80121dc4                int_8
                0xffffffff80121eb0                int_9
                0xffffffff80121f9c                int_10
                0xffffffff80122088                int_11
                0xffffffff80122174                int_12
                0xffffffff80122260                int_13
                0xffffffff8012234c                int_14
                0xffffffff80122438                int_15
                0xffffffff80122524                int_16
                0xffffffff80122610                int_17
                0xffffffff801226fc                int_18
                0xffffffff801227e8                int_19
                0xffffffff801228d4                int_20
                0xffffffff801229c0                int_21
                0xffffffff80122aac                int_22
                0xffffffff80122b98                int_23
                0xffffffff80122c84                int_24
                0xffffffff80122d70                int_25
                0xffffffff80122e5c                int_26
                0xffffffff80122f48                int_27
                0xffffffff80123034                int_28
                0xffffffff80123120                int_29
                0xffffffff8012320c                int_30
                0xffffffff801232f8                int_31
                0xffffffff801233e4                int_32
                0xffffffff801234d0                int_33
                0xffffffff801235bc                int_34
                0xffffffff801236a8                int_35
                0xffffffff80123794                int_36
                0xffffffff80123880                int_37
                0xffffffff8012396c                int_38
                0xffffffff80123a58                int_39
                0xffffffff80123b44                int_40
                0xffffffff80123c30                int_41
                0xffffffff80123d1c                int_42
                0xffffffff80123e08                int_43
                0xffffffff80123ef4                int_44
                0xffffffff80123fe0                int_45
                0xffffffff801240cc                int_46
                0xffffffff801241b8                int_47
                0xffffffff801242a4                int_48
                0xffffffff80124390                int_49
                0xffffffff8012447c                int_50
                0xffffffff80124568                int_51
                0xffffffff80124654                int_52
                0xffffffff80124740                int_53
                0xffffffff8012482c                int_54
                0xffffffff80124918                int_55
                0xffffffff80124a04                int_56
                0xffffffff80124af0                int_57
                0xffffffff80124bdc                int_58
                0xffffffff80124cc8                int_59
                0xffffffff80124db4                int_60
                0xffffffff80124ea0                int_61
                0xffffffff80124f8c                int_62
                0xffffffff80125078                int_63
                0xffffffff80125164                syscall_entry
                0xffffffff80125287                early_putuchar
 *fill*         0xffffffff80125288        0x8 
 .text.bios_init
                0xffffffff80125290       0x18 kernel/libnoninstrumentables.a.p/arch_amd64_src_bios_bios.c.o
                0xffffffff80125290                bios_init
 .text          0xffffffff801252a8       0x6e kernel/libnoninstrumentables.a.p/arch_amd64_src_context.S.o
                0xffffffff801252a8                context_save_arch
                0xffffffff801252e0                context_restore_arch
 *fill*         0xffffffff80125316        0xa 
 .text.cpu_setup_fpu
                0xffffffff80125320       0x1d kernel/libnoninstrumentables.a.p/arch_amd64_src_cpu_cpu.c.o
                0xffffffff80125320                cpu_setup_fpu
 *fill*         0xffffffff8012533d        0x3 
 .text.fpu_disable
                0xffffffff80125340       0x10 kernel/libnoninstrumentables.a.p/arch_amd64_src_cpu_cpu.c.o
                0xffffffff80125340                fpu_disable
 .text.fpu_enable
                0xffffffff80125350       0x10 kernel/libnoninstrumentables.a.p/arch_amd64_src_cpu_cpu.c.o
                0xffffffff80125350                fpu_enable
 .text.cpu_arch_init
                0xffffffff80125360       0x32 kernel/libnoninstrumentables.a.p/arch_amd64_src_cpu_cpu.c.o
                0xffffffff80125360                cpu_arch_init
 *fill*         0xffffffff80125392        0xe 
 .text.cpu_identify
                0xffffffff801253a0       0xf8 kernel/libnoninstrumentables.a.p/arch_amd64_src_cpu_cpu.c.o
                0xffffffff801253a0                cpu_identify
 *fill*         0xffffffff80125498        0x8 
 .text.cpu_print_report
                0xffffffff801254a0       0x55 kernel/libnoninstrumentables.a.p/arch_amd64_src_cpu_cpu.c.o
                0xffffffff801254a0                cpu_print_report
 *fill*         0xffffffff801254f5        0xb 
 .text.io_perm_bitmap_install
                0xffffffff80125500      0x162 kernel/libnoninstrumentables.a.p/arch_amd64_src_ddi_ddi.c.o
                0xffffffff80125500                io_perm_bitmap_install
 .text          0xffffffff80125662        0x9 kernel/libnoninstrumentables.a.p/arch_amd64_src_debug_stacktrace_asm.S.o
                0xffffffff80125662                frame_pointer_get
                0xffffffff80125666                program_counter_get
 *fill*         0xffffffff8012566b        0x5 
 .text.kernel_stack_trace_context_validate
                0xffffffff80125670        0xd kernel/libnoninstrumentables.a.p/arch_amd64_src_debug_stacktrace.c.o
                0xffffffff80125670                kernel_stack_trace_context_validate
 *fill*         0xffffffff8012567d        0x3 
 .text.kernel_frame_pointer_prev
                0xffffffff80125680       0x14 kernel/libnoninstrumentables.a.p/arch_amd64_src_debug_stacktrace.c.o
                0xffffffff80125680                kernel_frame_pointer_prev
 *fill*         0xffffffff80125694        0xc 
 .text.kernel_return_address_get
                0xffffffff801256a0       0x15 kernel/libnoninstrumentables.a.p/arch_amd64_src_debug_stacktrace.c.o
                0xffffffff801256a0                kernel_return_address_get
 *fill*         0xffffffff801256b5        0xb 
 .text.uspace_stack_trace_context_validate
                0xffffffff801256c0        0xd kernel/libnoninstrumentables.a.p/arch_amd64_src_debug_stacktrace.c.o
                0xffffffff801256c0                uspace_stack_trace_context_validate
 *fill*         0xffffffff801256cd        0x3 
 .text.uspace_frame_pointer_prev
                0xffffffff801256d0       0x1e kernel/libnoninstrumentables.a.p/arch_amd64_src_debug_stacktrace.c.o
                0xffffffff801256d0                uspace_frame_pointer_prev
 *fill*         0xffffffff801256ee        0x2 
 .text.uspace_return_address_get
                0xffffffff801256f0       0x22 kernel/libnoninstrumentables.a.p/arch_amd64_src_debug_stacktrace.c.o
                0xffffffff801256f0                uspace_return_address_get
 .text          0xffffffff80125712        0xc kernel/libnoninstrumentables.a.p/arch_amd64_src_delay.S.o
                0xffffffff80125712                asm_delay_loop
                0xffffffff80125718                asm_fake_loop
 *fill*         0xffffffff8012571e        0x2 
 .text.i8254_claim
                0xffffffff80125720        0xb kernel/libnoninstrumentables.a.p/arch_amd64_src_drivers_i8254.c.o
 *fill*         0xffffffff8012572b        0x5 
 .text.i8254_irq_handler
                0xffffffff80125730       0x2e kernel/libnoninstrumentables.a.p/arch_amd64_src_drivers_i8254.c.o
 *fill*         0xffffffff8012575e        0x2 
 .text.i8254_init
                0xffffffff80125760       0x74 kernel/libnoninstrumentables.a.p/arch_amd64_src_drivers_i8254.c.o
                0xffffffff80125760                i8254_init
 *fill*         0xffffffff801257d4        0xc 
 .text.i8254_normal_operation
                0xffffffff801257e0       0x35 kernel/libnoninstrumentables.a.p/arch_amd64_src_drivers_i8254.c.o
                0xffffffff801257e0                i8254_normal_operation
 *fill*         0xffffffff80125815        0xb 
 .text.i8254_calibrate_delay_loop
                0xffffffff80125820      0x13f kernel/libnoninstrumentables.a.p/arch_amd64_src_drivers_i8254.c.o
                0xffffffff80125820                i8254_calibrate_delay_loop
 *fill*         0xffffffff8012595f        0x1 
 .text.fpu_context_save
                0xffffffff80125960        0x9 kernel/libnoninstrumentables.a.p/arch_amd64_src_fpu_context.c.o
                0xffffffff80125960                fpu_context_save
 *fill*         0xffffffff80125969        0x7 
 .text.fpu_context_restore
                0xffffffff80125970        0x9 kernel/libnoninstrumentables.a.p/arch_amd64_src_fpu_context.c.o
                0xffffffff80125970                fpu_context_restore
 *fill*         0xffffffff80125979        0x7 
 .text.fpu_init
                0xffffffff80125980        0x8 kernel/libnoninstrumentables.a.p/arch_amd64_src_fpu_context.c.o
                0xffffffff80125980                fpu_init
 *fill*         0xffffffff80125988        0x8 
 .text.tlb_shootdown_ipi
                0xffffffff80125990       0x16 kernel/libnoninstrumentables.a.p/arch_amd64_src_interrupt.c.o
 *fill*         0xffffffff801259a6        0xa 
 .text.ss_fault
                0xffffffff801259b0       0x37 kernel/libnoninstrumentables.a.p/arch_amd64_src_interrupt.c.o
 *fill*         0xffffffff801259e7        0x9 
 .text.de_fault
                0xffffffff801259f0       0x37 kernel/libnoninstrumentables.a.p/arch_amd64_src_interrupt.c.o
 *fill*         0xffffffff80125a27        0x9 
 .text.null_interrupt
                0xffffffff80125a30       0x39 kernel/libnoninstrumentables.a.p/arch_amd64_src_interrupt.c.o
 *fill*         0xffffffff80125a69        0x7 
 .text.nm_fault
                0xffffffff80125a70        0xa kernel/libnoninstrumentables.a.p/arch_amd64_src_interrupt.c.o
 *fill*         0xffffffff80125a7a        0x6 
 .text.irq_interrupt
                0xffffffff80125a80      0x11f kernel/libnoninstrumentables.a.p/arch_amd64_src_interrupt.c.o
 *fill*         0xffffffff80125b9f        0x1 
 .text.pic_spurious
                0xffffffff80125ba0       0x8f kernel/libnoninstrumentables.a.p/arch_amd64_src_interrupt.c.o
 *fill*         0xffffffff80125c2f        0x1 
 .text.gp_fault
                0xffffffff80125c30       0xa3 kernel/libnoninstrumentables.a.p/arch_amd64_src_interrupt.c.o
 *fill*         0xffffffff80125cd3        0xd 
 .text.istate_decode
                0xffffffff80125ce0       0xfa kernel/libnoninstrumentables.a.p/arch_amd64_src_interrupt.c.o
                0xffffffff80125ce0                istate_decode
 *fill*         0xffffffff80125dda        0x6 
 .text.interrupt_init
                0xffffffff80125de0      0x274 kernel/libnoninstrumentables.a.p/arch_amd64_src_interrupt.c.o
                0xffffffff80125de0                interrupt_init
 *fill*         0xffffffff80126054        0xc 
 .text.kseg_init
                0xffffffff80126060       0x5f kernel/libnoninstrumentables.a.p/arch_amd64_src_kseg.c.o
                0xffffffff80126060                kseg_init
 *fill*         0xffffffff801260bf        0x1 
 .text.as_arch_init
                0xffffffff801260c0       0x11 kernel/libnoninstrumentables.a.p/arch_amd64_src_mm_as.c.o
                0xffffffff801260c0                as_arch_init
 *fill*         0xffffffff801260d1        0xf 
 .text.init_e820_memory
                0xffffffff801260e0      0x2d2 kernel/libnoninstrumentables.a.p/arch_amd64_src_mm_frame.c.o
 *fill*         0xffffffff801263b2        0xe 
 .text.physmem_print
                0xffffffff801263c0       0x7d kernel/libnoninstrumentables.a.p/arch_amd64_src_mm_frame.c.o
                0xffffffff801263c0                physmem_print
 *fill*         0xffffffff8012643d        0x3 
 .text.frame_low_arch_init
                0xffffffff80126440       0x55 kernel/libnoninstrumentables.a.p/arch_amd64_src_mm_frame.c.o
                0xffffffff80126440                frame_low_arch_init
 *fill*         0xffffffff80126495        0xb 
 .text.frame_high_arch_init
                0xffffffff801264a0       0x22 kernel/libnoninstrumentables.a.p/arch_amd64_src_mm_frame.c.o
                0xffffffff801264a0                frame_high_arch_init
 *fill*         0xffffffff801264c2        0xe 
 .text.km_identity_arch_init
                0xffffffff801264d0       0x1d kernel/libnoninstrumentables.a.p/arch_amd64_src_mm_km.c.o
                0xffffffff801264d0                km_identity_arch_init
 *fill*         0xffffffff801264ed        0x3 
 .text.km_non_identity_arch_init
                0xffffffff801264f0       0x1e kernel/libnoninstrumentables.a.p/arch_amd64_src_mm_km.c.o
                0xffffffff801264f0                km_non_identity_arch_init
 *fill*         0xffffffff8012650e        0x2 
 .text.km_is_non_identity_arch
                0xffffffff80126510       0x23 kernel/libnoninstrumentables.a.p/arch_amd64_src_mm_km.c.o
                0xffffffff80126510                km_is_non_identity_arch
 *fill*         0xffffffff80126533        0xd 
 .text.page_fault
                0xffffffff80126540       0x49 kernel/libnoninstrumentables.a.p/arch_amd64_src_mm_page.c.o
                0xffffffff80126540                page_fault
 *fill*         0xffffffff80126589        0x7 
 .text.page_arch_init
                0xffffffff80126590       0xe1 kernel/libnoninstrumentables.a.p/arch_amd64_src_mm_page.c.o
                0xffffffff80126590                page_arch_init
 *fill*         0xffffffff80126671        0xf 
 .text.tlb_invalidate_all
                0xffffffff80126680        0xc kernel/libnoninstrumentables.a.p/arch_amd64_src_mm_tlb.c.o
                0xffffffff80126680                tlb_invalidate_all
 *fill*         0xffffffff8012668c        0x4 
 .text.tlb_invalidate_asid
                0xffffffff80126690        0xc kernel/libnoninstrumentables.a.p/arch_amd64_src_mm_tlb.c.o
                0xffffffff80126690                tlb_invalidate_asid
 *fill*         0xffffffff8012669c        0x4 
 .text.tlb_invalidate_pages
                0xffffffff801266a0       0x26 kernel/libnoninstrumentables.a.p/arch_amd64_src_mm_tlb.c.o
                0xffffffff801266a0                tlb_invalidate_pages
 *fill*         0xffffffff801266c6        0xa 
 .text.tlb_arch_init
                0xffffffff801266d0        0x6 kernel/libnoninstrumentables.a.p/arch_amd64_src_mm_tlb.c.o
                0xffffffff801266d0                tlb_arch_init
 *fill*         0xffffffff801266d6        0xa 
 .text.tlb_print
                0xffffffff801266e0        0x6 kernel/libnoninstrumentables.a.p/arch_amd64_src_mm_tlb.c.o
                0xffffffff801266e0                tlb_print
 *fill*         0xffffffff801266e6        0xa 
 .text.gdt_tss_setlimit
                0xffffffff801266f0       0x20 kernel/libnoninstrumentables.a.p/arch_amd64_src_pm.c.o
                0xffffffff801266f0                gdt_tss_setlimit
 .text.idt_init
                0xffffffff80126710      0x9c3 kernel/libnoninstrumentables.a.p/arch_amd64_src_pm.c.o
                0xffffffff80126710                idt_init
 *fill*         0xffffffff801270d3        0xd 
 .text.pm_init  0xffffffff801270e0      0x100 kernel/libnoninstrumentables.a.p/arch_amd64_src_pm.c.o
                0xffffffff801270e0                pm_init
 .text.before_task_runs_arch
                0xffffffff801271e0        0xa kernel/libnoninstrumentables.a.p/arch_amd64_src_proc_scheduler.c.o
                0xffffffff801271e0                before_task_runs_arch
 *fill*         0xffffffff801271ea        0x6 
 .text.before_thread_runs_arch
                0xffffffff801271f0       0x4f kernel/libnoninstrumentables.a.p/arch_amd64_src_proc_scheduler.c.o
                0xffffffff801271f0                before_thread_runs_arch
 *fill*         0xffffffff8012723f        0x1 
 .text.after_thread_ran_arch
                0xffffffff80127240        0x6 kernel/libnoninstrumentables.a.p/arch_amd64_src_proc_scheduler.c.o
                0xffffffff80127240                after_thread_ran_arch
 *fill*         0xffffffff80127246        0xa 
 .text.task_create_arch
                0xffffffff80127250       0x20 kernel/libnoninstrumentables.a.p/arch_amd64_src_proc_task.c.o
                0xffffffff80127250                task_create_arch
 .text.task_destroy_arch
                0xffffffff80127270       0x1a kernel/libnoninstrumentables.a.p/arch_amd64_src_proc_task.c.o
                0xffffffff80127270                task_destroy_arch
 *fill*         0xffffffff8012728a        0x6 
 .text.thread_create_arch
                0xffffffff80127290       0x1c kernel/libnoninstrumentables.a.p/arch_amd64_src_proc_thread.c.o
                0xffffffff80127290                thread_create_arch
 *fill*         0xffffffff801272ac        0x4 
 .text.smc_coherence
                0xffffffff801272b0        0x6 kernel/libnoninstrumentables.a.p/arch_amd64_src_smc.c.o
                0xffffffff801272b0                smc_coherence
 *fill*         0xffffffff801272b6        0xa 
 .text.syscall_setup_cpu
                0xffffffff801272c0       0x56 kernel/libnoninstrumentables.a.p/arch_amd64_src_syscall.c.o
                0xffffffff801272c0                syscall_setup_cpu
 *fill*         0xffffffff80127316        0xa 
 .text.arch_get_initial_sp
                0xffffffff80127320        0xa kernel/libnoninstrumentables.a.p/arch_amd64_src_userspace.c.o
                0xffffffff80127320                arch_get_initial_sp
 *fill*         0xffffffff8012732a        0x6 
 .text.userspace
                0xffffffff80127330       0x4c kernel/libnoninstrumentables.a.p/arch_amd64_src_userspace.c.o
                0xffffffff80127330                userspace
 *fill*         0xffffffff8012737c        0x4 
 .text.vreg_init
                0xffffffff80127380       0x60 kernel/libnoninstrumentables.a.p/arch_amd64_src_vreg.c.o
                0xffffffff80127380                vreg_init
 .text.apic_get_name
                0xffffffff801273e0        0xd kernel/libnoninstrumentables.a.p/arch_amd64_src_smp_apic.c.o
 *fill*         0xffffffff801273ed        0x3 
 .text.l_apic_is_spurious
                0xffffffff801273f0        0xc kernel/libnoninstrumentables.a.p/arch_amd64_src_smp_apic.c.o
 *fill*         0xffffffff801273fc        0x4 
 .text.l_apic_handle_spurious
                0xffffffff80127400        0x6 kernel/libnoninstrumentables.a.p/arch_amd64_src_smp_apic.c.o
 *fill*         0xffffffff80127406        0xa 
 .text.apic_spurious
                0xffffffff80127410        0x6 kernel/libnoninstrumentables.a.p/arch_amd64_src_smp_apic.c.o
 *fill*         0xffffffff80127416        0xa 
 .text.l_apic_timer_claim
                0xffffffff80127420        0xb kernel/libnoninstrumentables.a.p/arch_amd64_src_smp_apic.c.o
 *fill*         0xffffffff8012742b        0x5 
 .text.l_apic_eoi
                0xffffffff80127430       0x17 kernel/libnoninstrumentables.a.p/arch_amd64_src_smp_apic.c.o
                0xffffffff80127430                l_apic_eoi
 *fill*         0xffffffff80127447        0x9 
 .text.io_apic_disable_irqs
                0xffffffff80127450       0x74 kernel/libnoninstrumentables.a.p/arch_amd64_src_smp_apic.c.o
                0xffffffff80127450                io_apic_disable_irqs
 *fill*         0xffffffff801274c4        0xc 
 .text.io_apic_enable_irqs
                0xffffffff801274d0       0x73 kernel/libnoninstrumentables.a.p/arch_amd64_src_smp_apic.c.o
                0xffffffff801274d0                io_apic_enable_irqs
 *fill*         0xffffffff80127543        0xd 
 .text.l_apic_timer_irq_handler
                0xffffffff80127550       0x2e kernel/libnoninstrumentables.a.p/arch_amd64_src_smp_apic.c.o
 *fill*         0xffffffff8012757e        0x2 
 .text.apic_poll_errors
                0xffffffff80127580      0x113 kernel/libnoninstrumentables.a.p/arch_amd64_src_smp_apic.c.o
 *fill*         0xffffffff80127693        0xd 
 .text.l_apic_broadcast_custom_ipi
                0xffffffff801276a0       0x3b kernel/libnoninstrumentables.a.p/arch_amd64_src_smp_apic.c.o
                0xffffffff801276a0                l_apic_broadcast_custom_ipi
 *fill*         0xffffffff801276db        0x5 
 .text.l_apic_send_init_ipi
                0xffffffff801276e0      0x155 kernel/libnoninstrumentables.a.p/arch_amd64_src_smp_apic.c.o
                0xffffffff801276e0                l_apic_send_init_ipi
 *fill*         0xffffffff80127835        0xb 
 .text.l_apic_init
                0xffffffff80127840      0x1aa kernel/libnoninstrumentables.a.p/arch_amd64_src_smp_apic.c.o
                0xffffffff80127840                l_apic_init
 *fill*         0xffffffff801279ea        0x6 
 .text.apic_init
                0xffffffff801279f0      0x2af kernel/libnoninstrumentables.a.p/arch_amd64_src_smp_apic.c.o
                0xffffffff801279f0                apic_init
 *fill*         0xffffffff80127c9f        0x1 
 .text.l_apic_debug
                0xffffffff80127ca0        0x6 kernel/libnoninstrumentables.a.p/arch_amd64_src_smp_apic.c.o
                0xffffffff80127ca0                l_apic_debug
 *fill*         0xffffffff80127ca6        0xa 
 .text.ipi_broadcast_arch
                0xffffffff80127cb0        0xe kernel/libnoninstrumentables.a.p/arch_amd64_src_smp_ipi.c.o
                0xffffffff80127cb0                ipi_broadcast_arch
 *fill*         0xffffffff80127cbe        0x2 
 .text.mps_irq_to_pin
                0xffffffff80127cc0       0x47 kernel/libnoninstrumentables.a.p/arch_amd64_src_smp_mps.c.o
 *fill*         0xffffffff80127d07        0x9 
 .text.mps_cpu_apic_id
                0xffffffff80127d10       0x5e kernel/libnoninstrumentables.a.p/arch_amd64_src_smp_mps.c.o
 *fill*         0xffffffff80127d6e        0x2 
 .text.mps_cpu_bootstrap
                0xffffffff80127d70       0x63 kernel/libnoninstrumentables.a.p/arch_amd64_src_smp_mps.c.o
 *fill*         0xffffffff80127dd3        0xd 
 .text.mps_cpu_enabled
                0xffffffff80127de0       0x6a kernel/libnoninstrumentables.a.p/arch_amd64_src_smp_mps.c.o
 *fill*         0xffffffff80127e4a        0x6 
 .text.mps_init
                0xffffffff80127e50      0xa35 kernel/libnoninstrumentables.a.p/arch_amd64_src_smp_mps.c.o
                0xffffffff80127e50                mps_init
 *fill*         0xffffffff80128885        0xb 
 .text.smp_init
                0xffffffff80128890       0x90 kernel/libnoninstrumentables.a.p/arch_amd64_src_smp_smp.c.o
                0xffffffff80128890                smp_init
 .text.kmp      0xffffffff80128920      0x2e5 kernel/libnoninstrumentables.a.p/arch_amd64_src_smp_smp.c.o
                0xffffffff80128920                kmp
 *fill*         0xffffffff80128c05        0xb 
 .text.smp_irq_to_pin
                0xffffffff80128c10       0x4e kernel/libnoninstrumentables.a.p/arch_amd64_src_smp_smp.c.o
                0xffffffff80128c10                smp_irq_to_pin
 *fill*         0xffffffff80128c5e        0x2 
 .text.acpi_init
                0xffffffff80128c60     0x17f7 kernel/libnoninstrumentables.a.p/genarch_src_acpi_acpi.c.o
                0xffffffff80128c60                acpi_init
 *fill*         0xffffffff8012a457        0x9 
 .text.madt_irq_to_pin
                0xffffffff8012a460       0x16 kernel/libnoninstrumentables.a.p/genarch_src_acpi_madt.c.o
 *fill*         0xffffffff8012a476        0xa 
 .text.madt_cmp
                0xffffffff8012a480       0x1f kernel/libnoninstrumentables.a.p/genarch_src_acpi_madt.c.o
 *fill*         0xffffffff8012a49f        0x1 
 .text.madt_cpu_apic_id
                0xffffffff8012a4a0       0x61 kernel/libnoninstrumentables.a.p/genarch_src_acpi_madt.c.o
 *fill*         0xffffffff8012a501        0xf 
 .text.madt_cpu_bootstrap
                0xffffffff8012a510       0x6a kernel/libnoninstrumentables.a.p/genarch_src_acpi_madt.c.o
 *fill*         0xffffffff8012a57a        0x6 
 .text.madt_cpu_enabled
                0xffffffff8012a580       0x6c kernel/libnoninstrumentables.a.p/genarch_src_acpi_madt.c.o
 *fill*         0xffffffff8012a5ec        0x4 
 .text.acpi_madt_parse
                0xffffffff8012a5f0      0x29d kernel/libnoninstrumentables.a.p/genarch_src_acpi_madt.c.o
                0xffffffff8012a5f0                acpi_madt_parse
 *fill*         0xffffffff8012a88d        0x3 
 .text.pt_mapping_make_global
                0xffffffff8012a890      0x205 kernel/libnoninstrumentables.a.p/genarch_src_mm_page_pt.c.o
 *fill*         0xffffffff8012aa95        0xb 
 .text.pt_mapping_insert
                0xffffffff8012aaa0      0x314 kernel/libnoninstrumentables.a.p/genarch_src_mm_page_pt.c.o
 *fill*         0xffffffff8012adb4        0xc 
 .text.pt_mapping_remove
                0xffffffff8012adc0      0x2cd kernel/libnoninstrumentables.a.p/genarch_src_mm_page_pt.c.o
 *fill*         0xffffffff8012b08d        0x3 
 .text.pt_mapping_find_internal
                0xffffffff8012b090      0x14c kernel/libnoninstrumentables.a.p/genarch_src_mm_page_pt.c.o
 *fill*         0xffffffff8012b1dc        0x4 
 .text.pt_mapping_update
                0xffffffff8012b1e0      0x1ac kernel/libnoninstrumentables.a.p/genarch_src_mm_page_pt.c.o
 *fill*         0xffffffff8012b38c        0x4 
 .text.pt_mapping_find
                0xffffffff8012b390       0x2e kernel/libnoninstrumentables.a.p/genarch_src_mm_page_pt.c.o
 *fill*         0xffffffff8012b3be        0x2 
 .text.pt_locked
                0xffffffff8012b3c0        0xe kernel/libnoninstrumentables.a.p/genarch_src_mm_as_pt.c.o
 *fill*         0xffffffff8012b3ce        0x2 
 .text.pt_unlock
                0xffffffff8012b3d0       0x1a kernel/libnoninstrumentables.a.p/genarch_src_mm_as_pt.c.o
 *fill*         0xffffffff8012b3ea        0x6 
 .text.pt_lock  0xffffffff8012b3f0       0x1a kernel/libnoninstrumentables.a.p/genarch_src_mm_as_pt.c.o
 *fill*         0xffffffff8012b40a        0x6 
 .text.ptl0_destroy
                0xffffffff8012b410        0xf kernel/libnoninstrumentables.a.p/genarch_src_mm_as_pt.c.o
 *fill*         0xffffffff8012b41f        0x1 
 .text.ptl0_create
                0xffffffff8012b420       0x91 kernel/libnoninstrumentables.a.p/genarch_src_mm_as_pt.c.o
 *fill*         0xffffffff8012b4b1        0xf 
 .text.fb_font_glyph
                0xffffffff8012b4c0      0xb59 kernel/libnoninstrumentables.a.p/genarch_src_fb_font-8x16.c.o
                0xffffffff8012b4c0                fb_font_glyph
 *fill*         0xffffffff8012c019        0x7 
 .text.rgb_0888
                0xffffffff8012c020        0xd kernel/libnoninstrumentables.a.p/genarch_src_fb_fb.c.o
 *fill*         0xffffffff8012c02d        0x3 
 .text.bgr_0888
                0xffffffff8012c030       0x39 kernel/libnoninstrumentables.a.p/genarch_src_fb_fb.c.o
 *fill*         0xffffffff8012c069        0x7 
 .text.rgb_8880
                0xffffffff8012c070       0x3a kernel/libnoninstrumentables.a.p/genarch_src_fb_fb.c.o
 *fill*         0xffffffff8012c0aa        0x6 
 .text.bgr_8880
                0xffffffff8012c0b0       0x29 kernel/libnoninstrumentables.a.p/genarch_src_fb_fb.c.o
 *fill*         0xffffffff8012c0d9        0x7 
 .text.rgb_888  0xffffffff8012c0e0       0x15 kernel/libnoninstrumentables.a.p/genarch_src_fb_fb.c.o
 *fill*         0xffffffff8012c0f5        0xb 
 .text.bgr_888  0xffffffff8012c100       0x10 kernel/libnoninstrumentables.a.p/genarch_src_fb_fb.c.o
 .text.rgb_555_be
                0xffffffff8012c110       0x30 kernel/libnoninstrumentables.a.p/genarch_src_fb_fb.c.o
 .text.rgb_555_le
                0xffffffff8012c140       0x2d kernel/libnoninstrumentables.a.p/genarch_src_fb_fb.c.o
 *fill*         0xffffffff8012c16d        0x3 
 .text.rgb_565_be
                0xffffffff8012c170       0x2c kernel/libnoninstrumentables.a.p/genarch_src_fb_fb.c.o
 *fill*         0xffffffff8012c19c        0x4 
 .text.rgb_565_le
                0xffffffff8012c1a0       0x28 kernel/libnoninstrumentables.a.p/genarch_src_fb_fb.c.o
 *fill*         0xffffffff8012c1c8        0x8 
 .text.bgr_323  0xffffffff8012c1d0       0x24 kernel/libnoninstrumentables.a.p/genarch_src_fb_fb.c.o
 *fill*         0xffffffff8012c1f4        0xc 
 .text.fb_redraw_internal
                0xffffffff8012c200      0x1af kernel/libnoninstrumentables.a.p/genarch_src_fb_fb.c.o
 *fill*         0xffffffff8012c3af        0x1 
 .text.fb_redraw
                0xffffffff8012c3b0       0x2d kernel/libnoninstrumentables.a.p/genarch_src_fb_fb.c.o
 *fill*         0xffffffff8012c3dd        0x3 
 .text.glyph_draw
                0xffffffff8012c3e0       0xd2 kernel/libnoninstrumentables.a.p/genarch_src_fb_fb.c.o
 *fill*         0xffffffff8012c4b2        0xe 
 .text.fb_mapped_changed
                0xffffffff8012c4c0       0x31 kernel/libnoninstrumentables.a.p/genarch_src_fb_fb.c.o
 *fill*         0xffffffff8012c4f1        0xf 
 .text.fb_scroll_up
                0xffffffff8012c500       0x94 kernel/libnoninstrumentables.a.p/genarch_src_fb_fb.c.o
 *fill*         0xffffffff8012c594        0xc 
 .text.fb_scroll_down
                0xffffffff8012c5a0       0x95 kernel/libnoninstrumentables.a.p/genarch_src_fb_fb.c.o
 *fill*         0xffffffff8012c635        0xb 
 .text.fb_putuchar
                0xffffffff8012c640      0x474 kernel/libnoninstrumentables.a.p/genarch_src_fb_fb.c.o
 *fill*         0xffffffff8012cab4        0xc 
 .text.fb_init  0xffffffff8012cac0      0x661 kernel/libnoninstrumentables.a.p/genarch_src_fb_fb.c.o
                0xffffffff8012cac0                fb_init
 *fill*         0xffffffff8012d121        0xf 
 .text.bfb_init
                0xffffffff8012d130      0x10d kernel/libnoninstrumentables.a.p/genarch_src_fb_bfb.c.o
                0xffffffff8012d130                bfb_init
 *fill*         0xffffffff8012d23d        0x3 
 .text.i8042_claim
                0xffffffff8012d240       0x31 kernel/libnoninstrumentables.a.p/genarch_src_drivers_i8042_i8042.c.o
 *fill*         0xffffffff8012d271        0xf 
 .text.i8042_irq_handler
                0xffffffff8012d280       0x64 kernel/libnoninstrumentables.a.p/genarch_src_drivers_i8042_i8042.c.o
 *fill*         0xffffffff8012d2e4        0xc 
 .text.i8042_init
                0xffffffff8012d2f0       0x6f kernel/libnoninstrumentables.a.p/genarch_src_drivers_i8042_i8042.c.o
                0xffffffff8012d2f0                i8042_init
 *fill*         0xffffffff8012d35f        0x1 
 .text.i8042_wire
                0xffffffff8012d360      0x151 kernel/libnoninstrumentables.a.p/genarch_src_drivers_i8042_i8042.c.o
                0xffffffff8012d360                i8042_wire
 *fill*         0xffffffff8012d4b1        0xf 
 .text.i8042_cpu_reset
                0xffffffff8012d4c0      0x13d kernel/libnoninstrumentables.a.p/genarch_src_drivers_i8042_i8042.c.o
                0xffffffff8012d4c0                i8042_cpu_reset
 *fill*         0xffffffff8012d5fd        0x3 
 .text.i8259_get_name
                0xffffffff8012d600        0xd kernel/libnoninstrumentables.a.p/genarch_src_drivers_i8259_i8259.c.o
 *fill*         0xffffffff8012d60d        0x3 
 .text.i8259_enable_irqs
                0xffffffff8012d610       0x63 kernel/libnoninstrumentables.a.p/genarch_src_drivers_i8259_i8259.c.o
                0xffffffff8012d610                i8259_enable_irqs
 *fill*         0xffffffff8012d673        0xd 
 .text.i8259_disable_irqs
                0xffffffff8012d680       0x63 kernel/libnoninstrumentables.a.p/genarch_src_drivers_i8259_i8259.c.o
                0xffffffff8012d680                i8259_disable_irqs
 *fill*         0xffffffff8012d6e3        0xd 
 .text.i8259_eoi
                0xffffffff8012d6f0       0x45 kernel/libnoninstrumentables.a.p/genarch_src_drivers_i8259_i8259.c.o
                0xffffffff8012d6f0                i8259_eoi
 *fill*         0xffffffff8012d735        0xb 
 .text.i8259_is_spurious
                0xffffffff8012d740       0x91 kernel/libnoninstrumentables.a.p/genarch_src_drivers_i8259_i8259.c.o
                0xffffffff8012d740                i8259_is_spurious
 *fill*         0xffffffff8012d7d1        0xf 
 .text.i8259_handle_spurious
                0xffffffff8012d7e0       0x2d kernel/libnoninstrumentables.a.p/genarch_src_drivers_i8259_i8259.c.o
                0xffffffff8012d7e0                i8259_handle_spurious
 *fill*         0xffffffff8012d80d        0x3 
 .text.i8259_init
                0xffffffff8012d810      0x12d kernel/libnoninstrumentables.a.p/genarch_src_drivers_i8259_i8259.c.o
                0xffffffff8012d810                i8259_init
 *fill*         0xffffffff8012d93d        0x3 
 .text.ns16550_claim
                0xffffffff8012d940       0x38 kernel/libnoninstrumentables.a.p/genarch_src_drivers_ns16550_ns16550.c.o
 *fill*         0xffffffff8012d978        0x8 
 .text.ns16550_irq_handler
                0xffffffff8012d980       0x6d kernel/libnoninstrumentables.a.p/genarch_src_drivers_ns16550_ns16550.c.o
 *fill*         0xffffffff8012d9ed        0x3 
 .text.ns16550_putuchar
                0xffffffff8012d9f0      0x225 kernel/libnoninstrumentables.a.p/genarch_src_drivers_ns16550_ns16550.c.o
 *fill*         0xffffffff8012dc15        0xb 
 .text.ns16550_format_set
                0xffffffff8012dc20       0xd7 kernel/libnoninstrumentables.a.p/genarch_src_drivers_ns16550_ns16550.c.o
                0xffffffff8012dc20                ns16550_format_set
 *fill*         0xffffffff8012dcf7        0x9 
 .text.ns16550_init
                0xffffffff8012dd00      0x173 kernel/libnoninstrumentables.a.p/genarch_src_drivers_ns16550_ns16550.c.o
                0xffffffff8012dd00                ns16550_init
 *fill*         0xffffffff8012de73        0xd 
 .text.ns16550_wire
                0xffffffff8012de80      0x203 kernel/libnoninstrumentables.a.p/genarch_src_drivers_ns16550_ns16550.c.o
                0xffffffff8012de80                ns16550_wire
 *fill*         0xffffffff8012e083        0xd 
 .text.kkbrd    0xffffffff8012e090      0x1ac kernel/libnoninstrumentables.a.p/genarch_src_kbrd_kbrd.c.o
 *fill*         0xffffffff8012e23c        0x4 
 .text.kbrd_init
                0xffffffff8012e240       0xac kernel/libnoninstrumentables.a.p/genarch_src_kbrd_kbrd.c.o
                0xffffffff8012e240                kbrd_init
 *fill*         0xffffffff8012e2ec        0x4 
 .text.kbrd_wire
                0xffffffff8012e2f0       0x9f kernel/libnoninstrumentables.a.p/genarch_src_kbrd_kbrd.c.o
                0xffffffff8012e2f0                kbrd_wire
 *fill*         0xffffffff8012e38f        0x1 
 .text.ksrln    0xffffffff8012e390      0x1a7 kernel/libnoninstrumentables.a.p/genarch_src_srln_srln.c.o
 *fill*         0xffffffff8012e537        0x9 
 .text.srln_init
                0xffffffff8012e540       0x84 kernel/libnoninstrumentables.a.p/genarch_src_srln_srln.c.o
                0xffffffff8012e540                srln_init
 *fill*         0xffffffff8012e5c4        0xc 
 .text.srln_wire
                0xffffffff8012e5d0       0x9f kernel/libnoninstrumentables.a.p/genarch_src_srln_srln.c.o
                0xffffffff8012e5d0                srln_wire
 *fill*         0xffffffff8012e66f        0x1 
 .text.multiboot_cmdline
                0xffffffff8012e670       0x72 kernel/libnoninstrumentables.a.p/genarch_src_multiboot_common.c.o
                0xffffffff8012e670                multiboot_cmdline
 *fill*         0xffffffff8012e6e2        0xe 
 .text.multiboot_extract_command
                0xffffffff8012e6f0       0x75 kernel/libnoninstrumentables.a.p/genarch_src_multiboot_multiboot.c.o
                0xffffffff8012e6f0                multiboot_extract_command
 *fill*         0xffffffff8012e765        0xb 
 .text.multiboot_extract_argument
                0xffffffff8012e770       0xab kernel/libnoninstrumentables.a.p/genarch_src_multiboot_multiboot.c.o
                0xffffffff8012e770                multiboot_extract_argument
 *fill*         0xffffffff8012e81b        0x5 
 .text.multiboot_info_parse
                0xffffffff8012e820      0x2ba kernel/libnoninstrumentables.a.p/genarch_src_multiboot_multiboot.c.o
                0xffffffff8012e820                multiboot_info_parse
 *fill*         0xffffffff8012eada        0x6 
 .text.multiboot2_info_parse
                0xffffffff8012eae0      0x1fd kernel/libnoninstrumentables.a.p/genarch_src_multiboot_multiboot2.c.o
                0xffffffff8012eae0                multiboot2_info_parse
 *fill*         0xffffffff8012ecdd        0x3 
 .text.ega_move_cursor
                0xffffffff8012ece0       0xa5 kernel/libnoninstrumentables.a.p/genarch_src_drivers_ega_ega.c.o
 *fill*         0xffffffff8012ed85        0xb 
 .text.ega_mapped_changed
                0xffffffff8012ed90      0x126 kernel/libnoninstrumentables.a.p/genarch_src_drivers_ega_ega.c.o
 *fill*         0xffffffff8012eeb6        0xa 
 .text.ega_putuchar
                0xffffffff8012eec0      0x74c kernel/libnoninstrumentables.a.p/genarch_src_drivers_ega_ega.c.o
 *fill*         0xffffffff8012f60c        0x4 
 .text.ega_redraw
                0xffffffff8012f610      0x1f1 kernel/libnoninstrumentables.a.p/genarch_src_drivers_ega_ega.c.o
 *fill*         0xffffffff8012f801        0xf 
 .text.ega_init
                0xffffffff8012f810      0x523 kernel/libnoninstrumentables.a.p/genarch_src_drivers_ega_ega.c.o
                0xffffffff8012f810                ega_init
 *fill*         0xffffffff8012fd33        0xd 
 .text.ddi_iospace_enable_arch
                0xffffffff8012fd40      0x103 kernel/libnoninstrumentables.a.p/genarch_src_ddi_ddi-bitmap.c.o
                0xffffffff8012fd40                ddi_iospace_enable_arch
 *fill*         0xffffffff8012fe43        0xd 
 .text.ddi_iospace_disable_arch
                0xffffffff8012fe50       0x62 kernel/libnoninstrumentables.a.p/genarch_src_ddi_ddi-bitmap.c.o
                0xffffffff8012fe50                ddi_iospace_disable_arch
 *fill*         0xffffffff8012feb2        0xe 
 .text.bitmap_size
                0xffffffff8012fec0       0x18 kernel/libnoninstrumentables.a.p/generic_common_adt_bitmap.c.o
                0xffffffff8012fec0                bitmap_size
 *fill*         0xffffffff8012fed8        0x8 
 .text.bitmap_initialize
                0xffffffff8012fee0       0x15 kernel/libnoninstrumentables.a.p/generic_common_adt_bitmap.c.o
                0xffffffff8012fee0                bitmap_initialize
 *fill*         0xffffffff8012fef5        0xb 
 .text.bitmap_set_range
                0xffffffff8012ff00      0x12b kernel/libnoninstrumentables.a.p/generic_common_adt_bitmap.c.o
                0xffffffff8012ff00                bitmap_set_range
 *fill*         0xffffffff8013002b        0x5 
 .text.bitmap_clear_range
                0xffffffff80130030      0x12d kernel/libnoninstrumentables.a.p/generic_common_adt_bitmap.c.o
                0xffffffff80130030                bitmap_clear_range
 *fill*         0xffffffff8013015d        0x3 
 .text.bitmap_copy
                0xffffffff80130160       0xf1 kernel/libnoninstrumentables.a.p/generic_common_adt_bitmap.c.o
                0xffffffff80130160                bitmap_copy
 *fill*         0xffffffff80130251        0xf 
 .text.bitmap_allocate_range
                0xffffffff80130260      0x205 kernel/libnoninstrumentables.a.p/generic_common_adt_bitmap.c.o
                0xffffffff80130260                bitmap_allocate_range
 *fill*         0xffffffff80130465        0xb 
 .text.nop_remove_callback
                0xffffffff80130470        0x6 kernel/libnoninstrumentables.a.p/generic_common_adt_hash_table.c.o
 *fill*         0xffffffff80130476        0xa 
 .text.clear_items.part.0
                0xffffffff80130480       0xc3 kernel/libnoninstrumentables.a.p/generic_common_adt_hash_table.c.o
 *fill*         0xffffffff80130543        0xd 
 .text.resize   0xffffffff80130550      0x209 kernel/libnoninstrumentables.a.p/generic_common_adt_hash_table.c.o
 *fill*         0xffffffff80130759        0x7 
 .text.hash_table_create
                0xffffffff80130760      0x1b6 kernel/libnoninstrumentables.a.p/generic_common_adt_hash_table.c.o
                0xffffffff80130760                hash_table_create
 *fill*         0xffffffff80130916        0xa 
 .text.hash_table_destroy
                0xffffffff80130920       0x9d kernel/libnoninstrumentables.a.p/generic_common_adt_hash_table.c.o
                0xffffffff80130920                hash_table_destroy
 *fill*         0xffffffff801309bd        0x3 
 .text.hash_table_insert
                0xffffffff801309c0       0xec kernel/libnoninstrumentables.a.p/generic_common_adt_hash_table.c.o
                0xffffffff801309c0                hash_table_insert
 *fill*         0xffffffff80130aac        0x4 
 .text.hash_table_find
                0xffffffff80130ab0       0xd3 kernel/libnoninstrumentables.a.p/generic_common_adt_hash_table.c.o
                0xffffffff80130ab0                hash_table_find
 *fill*         0xffffffff80130b83        0xd 
 .text.hash_table_find_next
                0xffffffff80130b90       0xff kernel/libnoninstrumentables.a.p/generic_common_adt_hash_table.c.o
                0xffffffff80130b90                hash_table_find_next
 *fill*         0xffffffff80130c8f        0x1 
 .text.hash_table_remove_item
                0xffffffff80130c90       0xff kernel/libnoninstrumentables.a.p/generic_common_adt_hash_table.c.o
                0xffffffff80130c90                hash_table_remove_item
 *fill*         0xffffffff80130d8f        0x1 
 .text.list_splice
                0xffffffff80130d90       0x2f kernel/libnoninstrumentables.a.p/generic_common_adt_list.c.o
                0xffffffff80130d90                list_splice
 *fill*         0xffffffff80130dbf        0x1 
 .text.odict_pgu
                0xffffffff80130dc0      0x107 kernel/libnoninstrumentables.a.p/generic_common_adt_odict.c.o
 *fill*         0xffffffff80130ec7        0x9 
 .text.odict_unlink
                0xffffffff80130ed0      0x110 kernel/libnoninstrumentables.a.p/generic_common_adt_odict.c.o
 .text.odict_search_start_node
                0xffffffff80130fe0      0x24b kernel/libnoninstrumentables.a.p/generic_common_adt_odict.c.o
 *fill*         0xffffffff8013122b        0x5 
 .text.odict_rotate_right
                0xffffffff80131230      0x103 kernel/libnoninstrumentables.a.p/generic_common_adt_odict.c.o
 *fill*         0xffffffff80131333        0xd 
 .text.odict_rotate_left
                0xffffffff80131340      0x103 kernel/libnoninstrumentables.a.p/generic_common_adt_odict.c.o
 *fill*         0xffffffff80131443        0xd 
 .text.odict_initialize
                0xffffffff80131450       0x21 kernel/libnoninstrumentables.a.p/generic_common_adt_odict.c.o
                0xffffffff80131450                odict_initialize
 *fill*         0xffffffff80131471        0xf 
 .text.odict_finalize
                0xffffffff80131480       0x49 kernel/libnoninstrumentables.a.p/generic_common_adt_odict.c.o
                0xffffffff80131480                odict_finalize
 *fill*         0xffffffff801314c9        0x7 
 .text.odlink_initialize
                0xffffffff801314d0       0x35 kernel/libnoninstrumentables.a.p/generic_common_adt_odict.c.o
                0xffffffff801314d0                odlink_initialize
 *fill*         0xffffffff80131505        0xb 
 .text.odict_insert
                0xffffffff80131510      0x294 kernel/libnoninstrumentables.a.p/generic_common_adt_odict.c.o
                0xffffffff80131510                odict_insert
 *fill*         0xffffffff801317a4        0xc 
 .text.odict_remove
                0xffffffff801317b0      0x7c7 kernel/libnoninstrumentables.a.p/generic_common_adt_odict.c.o
                0xffffffff801317b0                odict_remove
 *fill*         0xffffffff80131f77        0x9 
 .text.odict_empty
                0xffffffff80131f80        0xd kernel/libnoninstrumentables.a.p/generic_common_adt_odict.c.o
                0xffffffff80131f80                odict_empty
 *fill*         0xffffffff80131f8d        0x3 
 .text.odict_count
                0xffffffff80131f90       0x57 kernel/libnoninstrumentables.a.p/generic_common_adt_odict.c.o
                0xffffffff80131f90                odict_count
 *fill*         0xffffffff80131fe7        0x9 
 .text.odict_first
                0xffffffff80131ff0       0x24 kernel/libnoninstrumentables.a.p/generic_common_adt_odict.c.o
                0xffffffff80131ff0                odict_first
 *fill*         0xffffffff80132014        0xc 
 .text.odict_last
                0xffffffff80132020       0x24 kernel/libnoninstrumentables.a.p/generic_common_adt_odict.c.o
                0xffffffff80132020                odict_last
 *fill*         0xffffffff80132044        0xc 
 .text.odict_next
                0xffffffff80132050       0x24 kernel/libnoninstrumentables.a.p/generic_common_adt_odict.c.o
                0xffffffff80132050                odict_next
 *fill*         0xffffffff80132074        0xc 
 .text.odict_find_eq
                0xffffffff80132080       0xad kernel/libnoninstrumentables.a.p/generic_common_adt_odict.c.o
                0xffffffff80132080                odict_find_eq
 *fill*         0xffffffff8013212d        0x3 
 .text.odict_find_leq
                0xffffffff80132130       0x9e kernel/libnoninstrumentables.a.p/generic_common_adt_odict.c.o
                0xffffffff80132130                odict_find_leq
 *fill*         0xffffffff801321ce        0x2 
 .text.odict_find_lt
                0xffffffff801321d0       0xdb kernel/libnoninstrumentables.a.p/generic_common_adt_odict.c.o
                0xffffffff801321d0                odict_find_lt
 *fill*         0xffffffff801322ab        0x5 
 .text.printf_core
                0xffffffff801322b0     0x1573 kernel/libnoninstrumentables.a.p/generic_common_printf_printf_core.c.o
                0xffffffff801322b0                printf_core
 *fill*         0xffffffff80133823        0xd 
 .text.calloc   0xffffffff80133830       0x43 kernel/libnoninstrumentables.a.p/generic_common_stdc_calloc.c.o
                0xffffffff80133830                calloc
 *fill*         0xffffffff80133873        0xd 
 .text.islower  0xffffffff80133880       0x11 kernel/libnoninstrumentables.a.p/generic_common_stdc_ctype.c.o
                0xffffffff80133880                islower
 *fill*         0xffffffff80133891        0xf 
 .text.isupper  0xffffffff801338a0       0x11 kernel/libnoninstrumentables.a.p/generic_common_stdc_ctype.c.o
                0xffffffff801338a0                isupper
 *fill*         0xffffffff801338b1        0xf 
 .text.isdigit  0xffffffff801338c0       0x11 kernel/libnoninstrumentables.a.p/generic_common_stdc_ctype.c.o
                0xffffffff801338c0                isdigit
 *fill*         0xffffffff801338d1        0xf 
 .text.isspace  0xffffffff801338e0       0x22 kernel/libnoninstrumentables.a.p/generic_common_stdc_ctype.c.o
                0xffffffff801338e0                isspace
 *fill*         0xffffffff80133902        0xe 
 .text.memset   0xffffffff80133910      0x178 kernel/libnoninstrumentables.a.p/generic_common_stdc_mem.c.o
                0xffffffff80133910                memset
 *fill*         0xffffffff80133a88        0x8 
 .text.memcpy   0xffffffff80133a90      0x3c7 kernel/libnoninstrumentables.a.p/generic_common_stdc_mem.c.o
                0xffffffff80133a90                memcpy
 *fill*         0xffffffff80133e57        0x9 
 .text.memmove  0xffffffff80133e60      0x1cc kernel/libnoninstrumentables.a.p/generic_common_stdc_mem.c.o
                0xffffffff80133e60                memmove
 *fill*         0xffffffff8013402c        0x4 
 .text.gsort    0xffffffff80134030      0x10f kernel/libnoninstrumentables.a.p/generic_common_gsort.c.o
                0xffffffff80134030                gsort
 *fill*         0xffffffff8013413f        0x1 
 .text.str_ncpy.part.0
                0xffffffff80134140       0x41 kernel/libnoninstrumentables.a.p/generic_common_str.c.o
 *fill*         0xffffffff80134181        0xf 
 .text.str_decode
                0xffffffff80134190      0x127 kernel/libnoninstrumentables.a.p/generic_common_str.c.o
                0xffffffff80134190                str_decode
 *fill*         0xffffffff801342b7        0x9 
 .text.chr_encode
                0xffffffff801342c0      0x144 kernel/libnoninstrumentables.a.p/generic_common_str.c.o
                0xffffffff801342c0                chr_encode
 *fill*         0xffffffff80134404        0xc 
 .text.str_size
                0xffffffff80134410       0x1b kernel/libnoninstrumentables.a.p/generic_common_str.c.o
                0xffffffff80134410                str_size
 *fill*         0xffffffff8013442b        0x5 
 .text.str_lsize
                0xffffffff80134430      0x13a kernel/libnoninstrumentables.a.p/generic_common_str.c.o
                0xffffffff80134430                str_lsize
 *fill*         0xffffffff8013456a        0x6 
 .text.wstr_lsize
                0xffffffff80134570       0x38 kernel/libnoninstrumentables.a.p/generic_common_str.c.o
                0xffffffff80134570                wstr_lsize
 *fill*         0xffffffff801345a8        0x8 
 .text.str_length
                0xffffffff801345b0      0x126 kernel/libnoninstrumentables.a.p/generic_common_str.c.o
                0xffffffff801345b0                str_length
 *fill*         0xffffffff801346d6        0xa 
 .text.wstr_length
                0xffffffff801346e0       0x1c kernel/libnoninstrumentables.a.p/generic_common_str.c.o
                0xffffffff801346e0                wstr_length
 *fill*         0xffffffff801346fc        0x4 
 .text.str_nlength
                0xffffffff80134700      0x13e kernel/libnoninstrumentables.a.p/generic_common_str.c.o
                0xffffffff80134700                str_nlength
 *fill*         0xffffffff8013483e        0x2 
 .text.ascii_check
                0xffffffff80134840        0xc kernel/libnoninstrumentables.a.p/generic_common_str.c.o
                0xffffffff80134840                ascii_check
 *fill*         0xffffffff8013484c        0x4 
 .text.chr_check
                0xffffffff80134850        0xf kernel/libnoninstrumentables.a.p/generic_common_str.c.o
                0xffffffff80134850                chr_check
 *fill*         0xffffffff8013485f        0x1 
 .text.str_cmp  0xffffffff80134860      0x2ad kernel/libnoninstrumentables.a.p/generic_common_str.c.o
                0xffffffff80134860                str_cmp
 *fill*         0xffffffff80134b0d        0x3 
 .text.str_lcmp
                0xffffffff80134b10      0x2c1 kernel/libnoninstrumentables.a.p/generic_common_str.c.o
                0xffffffff80134b10                str_lcmp
 *fill*         0xffffffff80134dd1        0xf 
 .text.str_cpy  0xffffffff80134de0      0x300 kernel/libnoninstrumentables.a.p/generic_common_str.c.o
                0xffffffff80134de0                str_cpy
 .text.str_ncpy
                0xffffffff801350e0      0x295 kernel/libnoninstrumentables.a.p/generic_common_str.c.o
                0xffffffff801350e0                str_ncpy
 *fill*         0xffffffff80135375        0xb 
 .text.wstr_to_str
                0xffffffff80135380      0x186 kernel/libnoninstrumentables.a.p/generic_common_str.c.o
                0xffffffff80135380                wstr_to_str
 *fill*         0xffffffff80135506        0xa 
 .text.str_chr  0xffffffff80135510      0x13d kernel/libnoninstrumentables.a.p/generic_common_str.c.o
                0xffffffff80135510                str_chr
 *fill*         0xffffffff8013564d        0x3 
 .text.wstr_linsert
                0xffffffff80135650      0x14e kernel/libnoninstrumentables.a.p/generic_common_str.c.o
                0xffffffff80135650                wstr_linsert
 *fill*         0xffffffff8013579e        0x2 
 .text.wstr_remove
                0xffffffff801357a0      0x14a kernel/libnoninstrumentables.a.p/generic_common_str.c.o
                0xffffffff801357a0                wstr_remove
 *fill*         0xffffffff801358ea        0x6 
 .text.str_ndup
                0xffffffff801358f0      0x2ef kernel/libnoninstrumentables.a.p/generic_common_str.c.o
                0xffffffff801358f0                str_ndup
 *fill*         0xffffffff80135bdf        0x1 
 .text.order_suffix
                0xffffffff80135be0      0x13e kernel/libnoninstrumentables.a.p/generic_common_str.c.o
                0xffffffff80135be0                order_suffix
 *fill*         0xffffffff80135d1e        0x2 
 .text.bin_order_suffix
                0xffffffff80135d20       0xc9 kernel/libnoninstrumentables.a.p/generic_common_str.c.o
                0xffffffff80135d20                bin_order_suffix
 *fill*         0xffffffff80135de9        0x7 
 .text.str_error_name
                0xffffffff80135df0       0x2a kernel/libnoninstrumentables.a.p/generic_common_str_error.c.o
                0xffffffff80135df0                str_error_name
 *fill*         0xffffffff80135e1a        0x6 
 .text.str_error
                0xffffffff80135e20       0x2a kernel/libnoninstrumentables.a.p/generic_common_str_error.c.o
                0xffffffff80135e20                str_error
 *fill*         0xffffffff80135e4a        0x6 
 .text._max_value
                0xffffffff80135e50       0x15 kernel/libnoninstrumentables.a.p/generic_common_strtol.c.o
 *fill*         0xffffffff80135e65        0xb 
 .text._strtoumax.constprop.0
                0xffffffff80135e70      0x552 kernel/libnoninstrumentables.a.p/generic_common_strtol.c.o
 *fill*         0xffffffff801363c2        0xe 
 .text.str_uint64_t
                0xffffffff801363d0       0xdc kernel/libnoninstrumentables.a.p/generic_common_strtol.c.o
                0xffffffff801363d0                str_uint64_t
 *fill*         0xffffffff801364ac        0x4 
 .text.caps_hash
                0xffffffff801364b0       0x3b kernel/libnoninstrumentables.a.p/generic_src_cap_cap.c.o
 *fill*         0xffffffff801364eb        0x5 
 .text.caps_key_hash
                0xffffffff801364f0       0x3a kernel/libnoninstrumentables.a.p/generic_src_cap_cap.c.o
 *fill*         0xffffffff8013652a        0x6 
 .text.caps_key_equal
                0xffffffff80136530       0x10 kernel/libnoninstrumentables.a.p/generic_src_cap_cap.c.o
 .text.cap_get.part.0
                0xffffffff80136540       0x41 kernel/libnoninstrumentables.a.p/generic_src_cap_cap.c.o
 *fill*         0xffffffff80136581        0xf 
 .text.caps_init
                0xffffffff80136590       0x4a kernel/libnoninstrumentables.a.p/generic_src_cap_cap.c.o
                0xffffffff80136590                caps_init
 *fill*         0xffffffff801365da        0x6 
 .text.caps_task_alloc
                0xffffffff801365e0       0xb1 kernel/libnoninstrumentables.a.p/generic_src_cap_cap.c.o
                0xffffffff801365e0                caps_task_alloc
 *fill*         0xffffffff80136691        0xf 
 .text.caps_task_init
                0xffffffff801366a0       0x6f kernel/libnoninstrumentables.a.p/generic_src_cap_cap.c.o
                0xffffffff801366a0                caps_task_init
 *fill*         0xffffffff8013670f        0x1 
 .text.caps_task_free
                0xffffffff80136710       0x46 kernel/libnoninstrumentables.a.p/generic_src_cap_cap.c.o
                0xffffffff80136710                caps_task_free
 *fill*         0xffffffff80136756        0xa 
 .text.caps_apply_to_kobject_type
                0xffffffff80136760       0xa6 kernel/libnoninstrumentables.a.p/generic_src_cap_cap.c.o
                0xffffffff80136760                caps_apply_to_kobject_type
 *fill*         0xffffffff80136806        0xa 
 .text.cap_alloc
                0xffffffff80136810      0x104 kernel/libnoninstrumentables.a.p/generic_src_cap_cap.c.o
                0xffffffff80136810                cap_alloc
 *fill*         0xffffffff80136914        0xc 
 .text.cap_publish
                0xffffffff80136920      0x12e kernel/libnoninstrumentables.a.p/generic_src_cap_cap.c.o
                0xffffffff80136920                cap_publish
 *fill*         0xffffffff80136a4e        0x2 
 .text.cap_unpublish
                0xffffffff80136a50      0x186 kernel/libnoninstrumentables.a.p/generic_src_cap_cap.c.o
                0xffffffff80136a50                cap_unpublish
 *fill*         0xffffffff80136bd6        0xa 
 .text.cap_free
                0xffffffff80136be0      0x13c kernel/libnoninstrumentables.a.p/generic_src_cap_cap.c.o
                0xffffffff80136be0                cap_free
 *fill*         0xffffffff80136d1c        0x4 
 .text.kobject_alloc
                0xffffffff80136d20       0x13 kernel/libnoninstrumentables.a.p/generic_src_cap_cap.c.o
                0xffffffff80136d20                kobject_alloc
 *fill*         0xffffffff80136d33        0xd 
 .text.kobject_free
                0xffffffff80136d40       0x14 kernel/libnoninstrumentables.a.p/generic_src_cap_cap.c.o
                0xffffffff80136d40                kobject_free
 *fill*         0xffffffff80136d54        0xc 
 .text.kobject_initialize
                0xffffffff80136d60       0x57 kernel/libnoninstrumentables.a.p/generic_src_cap_cap.c.o
                0xffffffff80136d60                kobject_initialize
 *fill*         0xffffffff80136db7        0x9 
 .text.kobject_get
                0xffffffff80136dc0       0xb4 kernel/libnoninstrumentables.a.p/generic_src_cap_cap.c.o
                0xffffffff80136dc0                kobject_get
 *fill*         0xffffffff80136e74        0xc 
 .text.kobject_add_ref
                0xffffffff80136e80        0xb kernel/libnoninstrumentables.a.p/generic_src_cap_cap.c.o
                0xffffffff80136e80                kobject_add_ref
 *fill*         0xffffffff80136e8b        0x5 
 .text.kobject_put
                0xffffffff80136e90       0x42 kernel/libnoninstrumentables.a.p/generic_src_cap_cap.c.o
                0xffffffff80136e90                kobject_put
 *fill*         0xffffffff80136ed2        0xe 
 .text.indev_initialize
                0xffffffff80136ee0       0x5b kernel/libnoninstrumentables.a.p/generic_src_console_chardev.c.o
                0xffffffff80136ee0                indev_initialize
 *fill*         0xffffffff80136f3b        0x5 
 .text.indev_push_character
                0xffffffff80136f40       0xc0 kernel/libnoninstrumentables.a.p/generic_src_console_chardev.c.o
                0xffffffff80136f40                indev_push_character
 .text.indev_pop_character
                0xffffffff80137000       0xf5 kernel/libnoninstrumentables.a.p/generic_src_console_chardev.c.o
                0xffffffff80137000                indev_pop_character
 *fill*         0xffffffff801370f5        0xb 
 .text.indev_signal
                0xffffffff80137100       0x2a kernel/libnoninstrumentables.a.p/generic_src_console_chardev.c.o
                0xffffffff80137100                indev_signal
 *fill*         0xffffffff8013712a        0x6 
 .text.outdev_initialize
                0xffffffff80137130       0x53 kernel/libnoninstrumentables.a.p/generic_src_console_chardev.c.o
                0xffffffff80137130                outdev_initialize
 *fill*         0xffffffff80137183        0xd 
 .text.check_poll
                0xffffffff80137190       0x24 kernel/libnoninstrumentables.a.p/generic_src_console_chardev.c.o
                0xffffffff80137190                check_poll
 *fill*         0xffffffff801371b4        0xc 
 .text.stdout_write
                0xffffffff801371c0       0x57 kernel/libnoninstrumentables.a.p/generic_src_console_console.c.o
 *fill*         0xffffffff80137217        0x9 
 .text.stdout_redraw
                0xffffffff80137220       0x47 kernel/libnoninstrumentables.a.p/generic_src_console_console.c.o
 *fill*         0xffffffff80137267        0x9 
 .text.stdout_scroll_up
                0xffffffff80137270       0x47 kernel/libnoninstrumentables.a.p/generic_src_console_console.c.o
 *fill*         0xffffffff801372b7        0x9 
 .text.stdout_scroll_down
                0xffffffff801372c0       0x47 kernel/libnoninstrumentables.a.p/generic_src_console_console.c.o
 *fill*         0xffffffff80137307        0x9 
 .text.kio_update
                0xffffffff80137310       0x76 kernel/libnoninstrumentables.a.p/generic_src_console_console.c.o
                0xffffffff80137310                kio_update
 *fill*         0xffffffff80137386        0xa 
 .text.stdin_signal
                0xffffffff80137390       0xa7 kernel/libnoninstrumentables.a.p/generic_src_console_console.c.o
 *fill*         0xffffffff80137437        0x9 
 .text.stdin_wire
                0xffffffff80137440       0x42 kernel/libnoninstrumentables.a.p/generic_src_console_console.c.o
                0xffffffff80137440                stdin_wire
 *fill*         0xffffffff80137482        0xe 
 .text.stdout_wire
                0xffffffff80137490       0x6e kernel/libnoninstrumentables.a.p/generic_src_console_console.c.o
                0xffffffff80137490                stdout_wire
 *fill*         0xffffffff801374fe        0x2 
 .text.kio_init
                0xffffffff80137500       0x8b kernel/libnoninstrumentables.a.p/generic_src_console_console.c.o
                0xffffffff80137500                kio_init
 *fill*         0xffffffff8013758b        0x5 
 .text.release_console
                0xffffffff80137590       0x3f kernel/libnoninstrumentables.a.p/generic_src_console_console.c.o
                0xffffffff80137590                release_console
 *fill*         0xffffffff801375cf        0x1 
 .text.sys_debug_console
                0xffffffff801375d0       0x9d kernel/libnoninstrumentables.a.p/generic_src_console_console.c.o
                0xffffffff801375d0                sys_debug_console
 *fill*         0xffffffff8013766d        0x3 
 .text.kio_flush
                0xffffffff80137670       0x9a kernel/libnoninstrumentables.a.p/generic_src_console_console.c.o
                0xffffffff80137670                kio_flush
 *fill*         0xffffffff8013770a        0x6 
 .text.kio_push_char
                0xffffffff80137710       0x7a kernel/libnoninstrumentables.a.p/generic_src_console_console.c.o
                0xffffffff80137710                kio_push_char
 *fill*         0xffffffff8013778a        0x6 
 .text.putuchar
                0xffffffff80137790      0x14e kernel/libnoninstrumentables.a.p/generic_src_console_console.c.o
                0xffffffff80137790                putuchar
 *fill*         0xffffffff801378de        0x2 
 .text.sys_kio  0xffffffff801378e0      0x1b6 kernel/libnoninstrumentables.a.p/generic_src_console_console.c.o
                0xffffffff801378e0                sys_kio
 *fill*         0xffffffff80137a96        0xa 
 .text.console_prompt_display_all_hints
                0xffffffff80137aa0       0xe6 kernel/libnoninstrumentables.a.p/generic_src_console_prompt.c.o
                0xffffffff80137aa0                console_prompt_display_all_hints
 *fill*         0xffffffff80137b86        0xa 
 .text.console_prompt_more_hints
                0xffffffff80137b90      0x100 kernel/libnoninstrumentables.a.p/generic_src_console_prompt.c.o
                0xffffffff80137b90                console_prompt_more_hints
 .text.irq_ht_hash
                0xffffffff80137c90       0x3b kernel/libnoninstrumentables.a.p/generic_src_ddi_irq.c.o
 *fill*         0xffffffff80137ccb        0x5 
 .text.irq_ht_key_hash
                0xffffffff80137cd0       0x3a kernel/libnoninstrumentables.a.p/generic_src_ddi_irq.c.o
 *fill*         0xffffffff80137d0a        0x6 
 .text.irq_ht_equal
                0xffffffff80137d10        0xf kernel/libnoninstrumentables.a.p/generic_src_ddi_irq.c.o
 *fill*         0xffffffff80137d1f        0x1 
 .text.irq_ht_key_equal
                0xffffffff80137d20        0xe kernel/libnoninstrumentables.a.p/generic_src_ddi_irq.c.o
 *fill*         0xffffffff80137d2e        0x2 
 .text.irq_init
                0xffffffff80137d30       0xad kernel/libnoninstrumentables.a.p/generic_src_ddi_irq.c.o
                0xffffffff80137d30                irq_init
 *fill*         0xffffffff80137ddd        0x3 
 .text.irq_initialize
                0xffffffff80137de0       0x3f kernel/libnoninstrumentables.a.p/generic_src_ddi_irq.c.o
                0xffffffff80137de0                irq_initialize
 *fill*         0xffffffff80137e1f        0x1 
 .text.irq_register
                0xffffffff80137e20       0x65 kernel/libnoninstrumentables.a.p/generic_src_ddi_irq.c.o
                0xffffffff80137e20                irq_register
 *fill*         0xffffffff80137e85        0xb 
 .text.irq_dispatch_and_lock
                0xffffffff80137e90      0x285 kernel/libnoninstrumentables.a.p/generic_src_ddi_irq.c.o
                0xffffffff80137e90                irq_dispatch_and_lock
 *fill*         0xffffffff80138115        0xb 
 .text.has_usable_name
                0xffffffff80138120       0xc1 kernel/libnoninstrumentables.a.p/generic_src_debug_line.c.o
 *fill*         0xffffffff801381e1        0xf 
 .text.read_uint.part.0
                0xffffffff801381f0       0x1a kernel/libnoninstrumentables.a.p/generic_src_debug_line.c.o
 *fill*         0xffffffff8013820a        0x6 
 .text.safe_increment.part.0
                0xffffffff80138210       0x41 kernel/libnoninstrumentables.a.p/generic_src_debug_line.c.o
 *fill*         0xffffffff80138251        0xf 
 .text.debug_line_program_header_parse
                0xffffffff80138260      0x754 kernel/libnoninstrumentables.a.p/generic_src_debug_line.c.o
 *fill*         0xffffffff801389b4        0xc 
 .text.debug_line_program_skip_to_sequence_end
                0xffffffff801389c0      0x1f9 kernel/libnoninstrumentables.a.p/generic_src_debug_line.c.o
 *fill*         0xffffffff80138bb9        0x7 
 .text.debug_line_program_advance
                0xffffffff80138bc0      0x53e kernel/libnoninstrumentables.a.p/generic_src_debug_line.c.o
 *fill*         0xffffffff801390fe        0x2 
 .text.debug_line_get_address_info
                0xffffffff80139100      0xc71 kernel/libnoninstrumentables.a.p/generic_src_debug_line.c.o
                0xffffffff80139100                debug_line_get_address_info
 *fill*         0xffffffff80139d71        0xf 
 .text.dw_form_name
                0xffffffff80139d80       0x1c kernel/libnoninstrumentables.a.p/generic_src_debug_names.c.o
                0xffffffff80139d80                dw_form_name
 *fill*         0xffffffff80139d9c        0x4 
 .text.dw_lnct_name
                0xffffffff80139da0       0x1c kernel/libnoninstrumentables.a.p/generic_src_debug_names.c.o
                0xffffffff80139da0                dw_lnct_name
 *fill*         0xffffffff80139dbc        0x4 
 .text.dw_lne_name
                0xffffffff80139dc0       0x1c kernel/libnoninstrumentables.a.p/generic_src_debug_names.c.o
                0xffffffff80139dc0                dw_lne_name
 *fill*         0xffffffff80139ddc        0x4 
 .text.dw_lns_name
                0xffffffff80139de0       0x1c kernel/libnoninstrumentables.a.p/generic_src_debug_names.c.o
                0xffffffff80139de0                dw_lns_name
 *fill*         0xffffffff80139dfc        0x4 
 .text.panic_common
                0xffffffff80139e00      0x265 kernel/libnoninstrumentables.a.p/generic_src_debug_panic.c.o
                0xffffffff80139e00                panic_common
 *fill*         0xffffffff8013a065        0xb 
 .text.get_debug_sections
                0xffffffff8013a070      0x53b kernel/libnoninstrumentables.a.p/generic_src_debug_sections.c.o
                0xffffffff8013a070                get_debug_sections
 *fill*         0xffffffff8013a5ab        0x5 
 .text.register_debug_data
                0xffffffff8013a5b0       0x3c kernel/libnoninstrumentables.a.p/generic_src_debug_sections.c.o
                0xffffffff8013a5b0                register_debug_data
 *fill*         0xffffffff8013a5ec        0x4 
 .text.resolve_kernel_address
                0xffffffff8013a5f0       0x8d kernel/libnoninstrumentables.a.p/generic_src_debug_stacktrace.c.o
 *fill*         0xffffffff8013a67d        0x3 
 .text.resolve_uspace_address
                0xffffffff8013a680       0xb1 kernel/libnoninstrumentables.a.p/generic_src_debug_stacktrace.c.o
 *fill*         0xffffffff8013a731        0xf 
 .text.stack_trace_ctx
                0xffffffff8013a740      0x1c9 kernel/libnoninstrumentables.a.p/generic_src_debug_stacktrace.c.o
                0xffffffff8013a740                stack_trace_ctx
 *fill*         0xffffffff8013a909        0x7 
 .text.stack_trace
                0xffffffff8013a910       0x39 kernel/libnoninstrumentables.a.p/generic_src_debug_stacktrace.c.o
                0xffffffff8013a910                stack_trace
 *fill*         0xffffffff8013a949        0x7 
 .text.stack_trace_istate
                0xffffffff8013a950       0x4e kernel/libnoninstrumentables.a.p/generic_src_debug_stacktrace.c.o
                0xffffffff8013a950                stack_trace_istate
 *fill*         0xffffffff8013a99e        0x2 
 .text.symtab_name_lookup
                0xffffffff8013a9a0      0x18c kernel/libnoninstrumentables.a.p/generic_src_debug_symtab.c.o
                0xffffffff8013a9a0                symtab_name_lookup
 *fill*         0xffffffff8013ab2c        0x4 
 .text.symtab_fmt_name_lookup
                0xffffffff8013ab30       0x22 kernel/libnoninstrumentables.a.p/generic_src_debug_symtab.c.o
                0xffffffff8013ab30                symtab_fmt_name_lookup
 *fill*         0xffffffff8013ab52        0xe 
 .text.symtab_addr_lookup
                0xffffffff8013ab60      0x1d0 kernel/libnoninstrumentables.a.p/generic_src_debug_symtab.c.o
                0xffffffff8013ab60                symtab_addr_lookup
 .text.symtab_print_search
                0xffffffff8013ad30      0x23c kernel/libnoninstrumentables.a.p/generic_src_debug_symtab.c.o
                0xffffffff8013ad30                symtab_print_search
 *fill*         0xffffffff8013af6c        0x4 
 .text.symtab_hints_enum
                0xffffffff8013af70      0x23b kernel/libnoninstrumentables.a.p/generic_src_debug_symtab.c.o
                0xffffffff8013af70                symtab_hints_enum
 *fill*         0xffffffff8013b1ab        0x5 
 .text.safe_increment.part.0
                0xffffffff8013b1b0       0x41 kernel/libnoninstrumentables.a.p/generic_src_debug_util.c.o
 *fill*         0xffffffff8013b1f1        0xf 
 .text.read_uint.part.0
                0xffffffff8013b200       0x1a kernel/libnoninstrumentables.a.p/generic_src_debug_util.c.o
 *fill*         0xffffffff8013b21a        0x6 
 .text.skip_data
                0xffffffff8013b220      0x2da kernel/libnoninstrumentables.a.p/generic_src_debug_util.c.o
                0xffffffff8013b220                skip_data
 *fill*         0xffffffff8013b4fa        0x6 
 .text.print_format
                0xffffffff8013b500       0xa7 kernel/libnoninstrumentables.a.p/generic_src_debug_util.c.o
                0xffffffff8013b500                print_format
 *fill*         0xffffffff8013b5a7        0x9 
 .text.print_formed_data
                0xffffffff8013b5b0      0x2a4 kernel/libnoninstrumentables.a.p/generic_src_debug_util.c.o
                0xffffffff8013b5b0                print_formed_data
 *fill*         0xffffffff8013b854        0xc 
 .text.print_formatted_list
                0xffffffff8013b860      0x117 kernel/libnoninstrumentables.a.p/generic_src_debug_util.c.o
                0xffffffff8013b860                print_formatted_list
 *fill*         0xffffffff8013b977        0x9 
 .text.event_init
                0xffffffff8013b980       0x59 kernel/libnoninstrumentables.a.p/generic_src_ipc_event.c.o
                0xffffffff8013b980                event_init
 *fill*         0xffffffff8013b9d9        0x7 
 .text.event_task_init
                0xffffffff8013b9e0       0x5b kernel/libnoninstrumentables.a.p/generic_src_ipc_event.c.o
                0xffffffff8013b9e0                event_task_init
 *fill*         0xffffffff8013ba3b        0x5 
 .text.event_cleanup_answerbox
                0xffffffff8013ba40       0x5e kernel/libnoninstrumentables.a.p/generic_src_ipc_event.c.o
                0xffffffff8013ba40                event_cleanup_answerbox
 *fill*         0xffffffff8013ba9e        0x2 
 .text.event_set_unmask_callback
                0xffffffff8013baa0       0x84 kernel/libnoninstrumentables.a.p/generic_src_ipc_event.c.o
                0xffffffff8013baa0                event_set_unmask_callback
 *fill*         0xffffffff8013bb24        0xc 
 .text.event_notify
                0xffffffff8013bb30      0x1d3 kernel/libnoninstrumentables.a.p/generic_src_ipc_event.c.o
                0xffffffff8013bb30                event_notify
 *fill*         0xffffffff8013bd03        0xd 
 .text.event_task_notify
                0xffffffff8013bd10      0x1ee kernel/libnoninstrumentables.a.p/generic_src_ipc_event.c.o
                0xffffffff8013bd10                event_task_notify
 *fill*         0xffffffff8013befe        0x2 
 .text.sys_ipc_event_subscribe
                0xffffffff8013bf00       0xa8 kernel/libnoninstrumentables.a.p/generic_src_ipc_event.c.o
                0xffffffff8013bf00                sys_ipc_event_subscribe
 *fill*         0xffffffff8013bfa8        0x8 
 .text.sys_ipc_event_unsubscribe
                0xffffffff8013bfb0       0xa1 kernel/libnoninstrumentables.a.p/generic_src_ipc_event.c.o
                0xffffffff8013bfb0                sys_ipc_event_unsubscribe
 *fill*         0xffffffff8013c051        0xf 
 .text.sys_ipc_event_unmask
                0xffffffff8013c060       0x6e kernel/libnoninstrumentables.a.p/generic_src_ipc_event.c.o
                0xffffffff8013c060                sys_ipc_event_unmask
 *fill*         0xffffffff8013c0ce        0x2 
 .text.call_destroy
                0xffffffff8013c0d0       0x49 kernel/libnoninstrumentables.a.p/generic_src_ipc_ipc.c.o
 *fill*         0xffffffff8013c119        0x7 
 .text.ipc_forget_call
                0xffffffff8013c120      0x153 kernel/libnoninstrumentables.a.p/generic_src_ipc_ipc.c.o
 *fill*         0xffffffff8013c273        0xd 
 .text._ipc_call_actions_internal
                0xffffffff8013c280       0xea kernel/libnoninstrumentables.a.p/generic_src_ipc_ipc.c.o
 *fill*         0xffffffff8013c36a        0x6 
 .text.call_cap_cleanup_cb
                0xffffffff8013c370       0x3e kernel/libnoninstrumentables.a.p/generic_src_ipc_ipc.c.o
 *fill*         0xffffffff8013c3ae        0x2 
 .text.irq_cap_cleanup_cb
                0xffffffff8013c3b0       0x28 kernel/libnoninstrumentables.a.p/generic_src_ipc_ipc.c.o
 *fill*         0xffffffff8013c3d8        0x8 
 .text.print_task_phone_cb
                0xffffffff8013c3e0       0xf4 kernel/libnoninstrumentables.a.p/generic_src_ipc_ipc.c.o
 *fill*         0xffffffff8013c4d4        0xc 
 .text.ipc_print_call_list
                0xffffffff8013c4e0      0x105 kernel/libnoninstrumentables.a.p/generic_src_ipc_ipc.c.o
 *fill*         0xffffffff8013c5e5        0xb 
 .text.ipc_wait_for_call.part.0
                0xffffffff8013c5f0      0x237 kernel/libnoninstrumentables.a.p/generic_src_ipc_ipc.c.o
 *fill*         0xffffffff8013c827        0x9 
 .text.ipc_call_alloc
                0xffffffff8013c830       0x9b kernel/libnoninstrumentables.a.p/generic_src_ipc_ipc.c.o
                0xffffffff8013c830                ipc_call_alloc
 *fill*         0xffffffff8013c8cb        0x5 
 .text.ipc_answerbox_init
                0xffffffff8013c8d0       0xb5 kernel/libnoninstrumentables.a.p/generic_src_ipc_ipc.c.o
                0xffffffff8013c8d0                ipc_answerbox_init
 *fill*         0xffffffff8013c985        0xb 
 .text.ipc_phone_connect
                0xffffffff8013c990       0xc3 kernel/libnoninstrumentables.a.p/generic_src_ipc_ipc.c.o
                0xffffffff8013c990                ipc_phone_connect
 *fill*         0xffffffff8013ca53        0xd 
 .text.ipc_phone_init
                0xffffffff8013ca60       0x61 kernel/libnoninstrumentables.a.p/generic_src_ipc_ipc.c.o
                0xffffffff8013ca60                ipc_phone_init
 *fill*         0xffffffff8013cac1        0xf 
 .text._ipc_answer_free_call
                0xffffffff8013cad0      0x1ea kernel/libnoninstrumentables.a.p/generic_src_ipc_ipc.c.o
                0xffffffff8013cad0                _ipc_answer_free_call
 *fill*         0xffffffff8013ccba        0x6 
 .text.ipc_answer
                0xffffffff8013ccc0       0x5b kernel/libnoninstrumentables.a.p/generic_src_ipc_ipc.c.o
                0xffffffff8013ccc0                ipc_answer
 *fill*         0xffffffff8013cd1b        0x5 
 .text.ipc_backsend_err
                0xffffffff8013cd20       0xf5 kernel/libnoninstrumentables.a.p/generic_src_ipc_ipc.c.o
                0xffffffff8013cd20                ipc_backsend_err
 *fill*         0xffffffff8013ce15        0xb 
 .text.ipc_call
                0xffffffff8013ce20      0x29d kernel/libnoninstrumentables.a.p/generic_src_ipc_ipc.c.o
                0xffffffff8013ce20                ipc_call
 *fill*         0xffffffff8013d0bd        0x3 
 .text.ipc_call_sync
                0xffffffff8013d0c0      0x263 kernel/libnoninstrumentables.a.p/generic_src_ipc_ipc.c.o
                0xffffffff8013d0c0                ipc_call_sync
 *fill*         0xffffffff8013d323        0xd 
 .text.ipc_phone_hangup
                0xffffffff8013d330      0x1d3 kernel/libnoninstrumentables.a.p/generic_src_ipc_ipc.c.o
                0xffffffff8013d330                ipc_phone_hangup
 *fill*         0xffffffff8013d503        0xd 
 .text.phone_cap_cleanup_cb
                0xffffffff8013d510       0x51 kernel/libnoninstrumentables.a.p/generic_src_ipc_ipc.c.o
 *fill*         0xffffffff8013d561        0xf 
 .text.ipc_forward
                0xffffffff8013d570       0xe4 kernel/libnoninstrumentables.a.p/generic_src_ipc_ipc.c.o
                0xffffffff8013d570                ipc_forward
 *fill*         0xffffffff8013d654        0xc 
 .text.ipc_wait_for_call
                0xffffffff8013d660       0x44 kernel/libnoninstrumentables.a.p/generic_src_ipc_ipc.c.o
                0xffffffff8013d660                ipc_wait_for_call
 *fill*         0xffffffff8013d6a4        0xc 
 .text.ipc_cleanup_call_list
                0xffffffff8013d6b0      0x50d kernel/libnoninstrumentables.a.p/generic_src_ipc_ipc.c.o
                0xffffffff8013d6b0                ipc_cleanup_call_list
 *fill*         0xffffffff8013dbbd        0x3 
 .text.ipc_answerbox_slam_phones
                0xffffffff8013dbc0      0x38e kernel/libnoninstrumentables.a.p/generic_src_ipc_ipc.c.o
                0xffffffff8013dbc0                ipc_answerbox_slam_phones
 *fill*         0xffffffff8013df4e        0x2 
 .text.ipc_cleanup
                0xffffffff8013df50      0x4b4 kernel/libnoninstrumentables.a.p/generic_src_ipc_ipc.c.o
                0xffffffff8013df50                ipc_cleanup
 *fill*         0xffffffff8013e404        0xc 
 .text.ipc_init
                0xffffffff8013e410       0x6c kernel/libnoninstrumentables.a.p/generic_src_ipc_ipc.c.o
                0xffffffff8013e410                ipc_init
 *fill*         0xffffffff8013e47c        0x4 
 .text.ipc_print_task
                0xffffffff8013e480      0x10b kernel/libnoninstrumentables.a.p/generic_src_ipc_ipc.c.o
                0xffffffff8013e480                ipc_print_task
 *fill*         0xffffffff8013e58b        0x5 
 .text.phone_destroy
                0xffffffff8013e590       0x37 kernel/libnoninstrumentables.a.p/generic_src_ipc_ipcrsc.c.o
 *fill*         0xffffffff8013e5c7        0x9 
 .text.phone_alloc
                0xffffffff8013e5d0      0x190 kernel/libnoninstrumentables.a.p/generic_src_ipc_ipcrsc.c.o
                0xffffffff8013e5d0                phone_alloc
 .text.ipc_irq_top_half_claim
                0xffffffff8013e760      0x1d5 kernel/libnoninstrumentables.a.p/generic_src_ipc_irq.c.o
                0xffffffff8013e760                ipc_irq_top_half_claim
 *fill*         0xffffffff8013e935        0xb 
 .text.ipc_irq_top_half_handler
                0xffffffff8013e940      0x19c kernel/libnoninstrumentables.a.p/generic_src_ipc_irq.c.o
                0xffffffff8013e940                ipc_irq_top_half_handler
 *fill*         0xffffffff8013eadc        0x4 
 .text.irq_destroy
                0xffffffff8013eae0      0x119 kernel/libnoninstrumentables.a.p/generic_src_ipc_irq.c.o
 *fill*         0xffffffff8013ebf9        0x7 
 .text.ipc_irq_subscribe
                0xffffffff8013ec00      0x686 kernel/libnoninstrumentables.a.p/generic_src_ipc_irq.c.o
                0xffffffff8013ec00                ipc_irq_subscribe
 *fill*         0xffffffff8013f286        0xa 
 .text.ipc_irq_unsubscribe
                0xffffffff8013f290      0x120 kernel/libnoninstrumentables.a.p/generic_src_ipc_irq.c.o
                0xffffffff8013f290                ipc_irq_unsubscribe
 .text.request_forget
                0xffffffff8013f3b0       0x49 kernel/libnoninstrumentables.a.p/generic_src_ipc_ops_conctmeto.c.o
 *fill*         0xffffffff8013f3f9        0x7 
 .text.answer_process
                0xffffffff8013f400       0x6e kernel/libnoninstrumentables.a.p/generic_src_ipc_ops_conctmeto.c.o
 *fill*         0xffffffff8013f46e        0x2 
 .text.answer_preprocess
                0xffffffff8013f470       0x90 kernel/libnoninstrumentables.a.p/generic_src_ipc_ops_conctmeto.c.o
 .text.request_preprocess
                0xffffffff8013f500       0x4a kernel/libnoninstrumentables.a.p/generic_src_ipc_ops_conctmeto.c.o
 *fill*         0xffffffff8013f54a        0x6 
 .text.answer_cleanup
                0xffffffff8013f550       0x46 kernel/libnoninstrumentables.a.p/generic_src_ipc_ops_concttome.c.o
 *fill*         0xffffffff8013f596        0xa 
 .text.request_process
                0xffffffff8013f5a0       0x6f kernel/libnoninstrumentables.a.p/generic_src_ipc_ops_concttome.c.o
 *fill*         0xffffffff8013f60f        0x1 
 .text.answer_preprocess
                0xffffffff8013f610       0xf1 kernel/libnoninstrumentables.a.p/generic_src_ipc_ops_concttome.c.o
 *fill*         0xffffffff8013f701        0xf 
 .text.request_preprocess
                0xffffffff8013f710       0x28 kernel/libnoninstrumentables.a.p/generic_src_ipc_ops_dataread.c.o
 *fill*         0xffffffff8013f738        0x8 
 .text.answer_process
                0xffffffff8013f740       0x43 kernel/libnoninstrumentables.a.p/generic_src_ipc_ops_dataread.c.o
 *fill*         0xffffffff8013f783        0xd 
 .text.answer_preprocess
                0xffffffff8013f790       0xd8 kernel/libnoninstrumentables.a.p/generic_src_ipc_ops_dataread.c.o
 *fill*         0xffffffff8013f868        0x8 
 .text.request_preprocess
                0xffffffff8013f870       0x8a kernel/libnoninstrumentables.a.p/generic_src_ipc_ops_datawrite.c.o
 *fill*         0xffffffff8013f8fa        0x6 
 .text.answer_preprocess
                0xffffffff8013f900       0x8b kernel/libnoninstrumentables.a.p/generic_src_ipc_ops_datawrite.c.o
 *fill*         0xffffffff8013f98b        0x5 
 .text.request_process
                0xffffffff8013f990        0xb kernel/libnoninstrumentables.a.p/generic_src_ipc_ops_debug.c.o
 *fill*         0xffffffff8013f99b        0x5 
 .text.answer_process
                0xffffffff8013f9a0       0x43 kernel/libnoninstrumentables.a.p/generic_src_ipc_ops_debug.c.o
 *fill*         0xffffffff8013f9e3        0xd 
 .text.pagein_request_preprocess
                0xffffffff8013f9f0       0x30 kernel/libnoninstrumentables.a.p/generic_src_ipc_ops_pagein.c.o
 .text.pagein_answer_preprocess
                0xffffffff8013fa20       0xea kernel/libnoninstrumentables.a.p/generic_src_ipc_ops_pagein.c.o
 *fill*         0xffffffff8013fb0a        0x6 
 .text.answer_preprocess
                0xffffffff8013fb10       0xae kernel/libnoninstrumentables.a.p/generic_src_ipc_ops_sharein.c.o
 *fill*         0xffffffff8013fbbe        0x2 
 .text.request_preprocess
                0xffffffff8013fbc0       0x30 kernel/libnoninstrumentables.a.p/generic_src_ipc_ops_shareout.c.o
 .text.answer_preprocess
                0xffffffff8013fbf0       0xbc kernel/libnoninstrumentables.a.p/generic_src_ipc_ops_shareout.c.o
 *fill*         0xffffffff8013fcac        0x4 
 .text.request_preprocess
                0xffffffff8013fcb0       0xb0 kernel/libnoninstrumentables.a.p/generic_src_ipc_ops_stchngath.c.o
 .text.answer_preprocess
                0xffffffff8013fd60      0x12d kernel/libnoninstrumentables.a.p/generic_src_ipc_ops_stchngath.c.o
 *fill*         0xffffffff8013fe8d        0x3 
 .text.request_preprocess.part.0
                0xffffffff8013fe90       0x41 kernel/libnoninstrumentables.a.p/generic_src_ipc_sysipc.c.o
 *fill*         0xffffffff8013fed1        0xf 
 .text.answer_preprocess
                0xffffffff8013fee0      0x21c kernel/libnoninstrumentables.a.p/generic_src_ipc_sysipc.c.o
                0xffffffff8013fee0                answer_preprocess
 *fill*         0xffffffff801400fc        0x4 
 .text.ipc_req_internal
                0xffffffff80140100      0x2a1 kernel/libnoninstrumentables.a.p/generic_src_ipc_sysipc.c.o
                0xffffffff80140100                ipc_req_internal
 *fill*         0xffffffff801403a1        0xf 
 .text.sys_ipc_call_async_fast
                0xffffffff801403b0      0x143 kernel/libnoninstrumentables.a.p/generic_src_ipc_sysipc.c.o
                0xffffffff801403b0                sys_ipc_call_async_fast
 *fill*         0xffffffff801404f3        0xd 
 .text.sys_ipc_call_async_slow
                0xffffffff80140500      0x14b kernel/libnoninstrumentables.a.p/generic_src_ipc_sysipc.c.o
                0xffffffff80140500                sys_ipc_call_async_slow
 *fill*         0xffffffff8014064b        0x5 
 .text.sys_ipc_forward_fast
                0xffffffff80140650      0x34f kernel/libnoninstrumentables.a.p/generic_src_ipc_sysipc.c.o
                0xffffffff80140650                sys_ipc_forward_fast
 *fill*         0xffffffff8014099f        0x1 
 .text.sys_ipc_forward_slow
                0xffffffff801409a0      0x3f8 kernel/libnoninstrumentables.a.p/generic_src_ipc_sysipc.c.o
                0xffffffff801409a0                sys_ipc_forward_slow
 *fill*         0xffffffff80140d98        0x8 
 .text.sys_ipc_answer_fast
                0xffffffff80140da0      0x178 kernel/libnoninstrumentables.a.p/generic_src_ipc_sysipc.c.o
                0xffffffff80140da0                sys_ipc_answer_fast
 *fill*         0xffffffff80140f18        0x8 
 .text.sys_ipc_answer_slow
                0xffffffff80140f20      0x170 kernel/libnoninstrumentables.a.p/generic_src_ipc_sysipc.c.o
                0xffffffff80140f20                sys_ipc_answer_slow
 .text.sys_ipc_hangup
                0xffffffff80141090       0x7a kernel/libnoninstrumentables.a.p/generic_src_ipc_sysipc.c.o
                0xffffffff80141090                sys_ipc_hangup
 *fill*         0xffffffff8014110a        0x6 
 .text.sys_ipc_wait_for_call
                0xffffffff80141110      0x334 kernel/libnoninstrumentables.a.p/generic_src_ipc_sysipc.c.o
                0xffffffff80141110                sys_ipc_wait_for_call
 *fill*         0xffffffff80141444        0xc 
 .text.sys_ipc_poke
                0xffffffff80141450       0x21 kernel/libnoninstrumentables.a.p/generic_src_ipc_sysipc.c.o
                0xffffffff80141450                sys_ipc_poke
 *fill*         0xffffffff80141471        0xf 
 .text.sys_ipc_irq_subscribe
                0xffffffff80141480       0x79 kernel/libnoninstrumentables.a.p/generic_src_ipc_sysipc.c.o
                0xffffffff80141480                sys_ipc_irq_subscribe
 *fill*         0xffffffff801414f9        0x7 
 .text.sys_ipc_irq_unsubscribe
                0xffffffff80141500       0x53 kernel/libnoninstrumentables.a.p/generic_src_ipc_sysipc.c.o
                0xffffffff80141500                sys_ipc_irq_unsubscribe
 *fill*         0xffffffff80141553        0xd 
 .text.sys_ipc_connect_kbox
                0xffffffff80141560       0xca kernel/libnoninstrumentables.a.p/generic_src_ipc_sysipc.c.o
                0xffffffff80141560                sys_ipc_connect_kbox
 *fill*         0xffffffff8014162a        0x6 
 .text.null_request_preprocess
                0xffffffff80141630        0x8 kernel/libnoninstrumentables.a.p/generic_src_ipc_sysipc_ops.c.o
                0xffffffff80141630                null_request_preprocess
 *fill*         0xffffffff80141638        0x8 
 .text.null_request_forget
                0xffffffff80141640        0x8 kernel/libnoninstrumentables.a.p/generic_src_ipc_sysipc_ops.c.o
                0xffffffff80141640                null_request_forget
 *fill*         0xffffffff80141648        0x8 
 .text.null_answer_process
                0xffffffff80141650        0x8 kernel/libnoninstrumentables.a.p/generic_src_ipc_sysipc_ops.c.o
                0xffffffff80141650                null_answer_process
 *fill*         0xffffffff80141658        0x8 
 .text.null_answer_cleanup
                0xffffffff80141660        0x8 kernel/libnoninstrumentables.a.p/generic_src_ipc_sysipc_ops.c.o
                0xffffffff80141660                null_answer_cleanup
 *fill*         0xffffffff80141668        0x8 
 .text.null_answer_preprocess
                0xffffffff80141670        0x8 kernel/libnoninstrumentables.a.p/generic_src_ipc_sysipc_ops.c.o
                0xffffffff80141670                null_answer_preprocess
 *fill*         0xffffffff80141678        0x8 
 .text.null_request_process
                0xffffffff80141680        0x8 kernel/libnoninstrumentables.a.p/generic_src_ipc_sysipc_ops.c.o
                0xffffffff80141680                null_request_process
 *fill*         0xffffffff80141688        0x8 
 .text.sysipc_ops_get
                0xffffffff80141690       0x30 kernel/libnoninstrumentables.a.p/generic_src_ipc_sysipc_ops.c.o
                0xffffffff80141690                sysipc_ops_get
 .text.elf_load
                0xffffffff801416c0      0x196 kernel/libnoninstrumentables.a.p/generic_src_lib_elf.c.o
                0xffffffff801416c0                elf_load
 *fill*         0xffffffff80141856        0xa 
 .text.halt     0xffffffff80141860       0x8f kernel/libnoninstrumentables.a.p/generic_src_lib_halt.c.o
                0xffffffff80141860                halt
 *fill*         0xffffffff801418ef        0x1 
 .text.memsetb  0xffffffff801418f0       0x13 kernel/libnoninstrumentables.a.p/generic_src_lib_mem.c.o
                0xffffffff801418f0                memsetb
 *fill*         0xffffffff80141903        0xd 
 .text.memsetw  0xffffffff80141910      0x13d kernel/libnoninstrumentables.a.p/generic_src_lib_mem.c.o
                0xffffffff80141910                memsetw
 *fill*         0xffffffff80141a4d        0x3 
 .text.used_hash
                0xffffffff80141a50       0x3b kernel/libnoninstrumentables.a.p/generic_src_lib_ra.c.o
 *fill*         0xffffffff80141a8b        0x5 
 .text.used_key_hash
                0xffffffff80141a90       0x3a kernel/libnoninstrumentables.a.p/generic_src_lib_ra.c.o
 *fill*         0xffffffff80141aca        0x6 
 .text.used_key_equal
                0xffffffff80141ad0       0x10 kernel/libnoninstrumentables.a.p/generic_src_lib_ra.c.o
 .text.ra_arena_create
                0xffffffff80141ae0       0x42 kernel/libnoninstrumentables.a.p/generic_src_lib_ra.c.o
                0xffffffff80141ae0                ra_arena_create
 *fill*         0xffffffff80141b22        0xe 
 .text.ra_arena_destroy
                0xffffffff80141b30      0x197 kernel/libnoninstrumentables.a.p/generic_src_lib_ra.c.o
                0xffffffff80141b30                ra_arena_destroy
 *fill*         0xffffffff80141cc7        0x9 
 .text.ra_span_add
                0xffffffff80141cd0      0x268 kernel/libnoninstrumentables.a.p/generic_src_lib_ra.c.o
                0xffffffff80141cd0                ra_span_add
 *fill*         0xffffffff80141f38        0x8 
 .text.ra_alloc
                0xffffffff80141f40      0x57c kernel/libnoninstrumentables.a.p/generic_src_lib_ra.c.o
                0xffffffff80141f40                ra_alloc
 *fill*         0xffffffff801424bc        0x4 
 .text.ra_free  0xffffffff801424c0      0x3cb kernel/libnoninstrumentables.a.p/generic_src_lib_ra.c.o
                0xffffffff801424c0                ra_free
 *fill*         0xffffffff8014288b        0x5 
 .text.ra_init  0xffffffff80142890       0x2b kernel/libnoninstrumentables.a.p/generic_src_lib_ra.c.o
                0xffffffff80142890                ra_init
 *fill*         0xffffffff801428bb        0x5 
 .text.init_rd  0xffffffff801428c0       0xf0 kernel/libnoninstrumentables.a.p/generic_src_lib_rd.c.o
                0xffffffff801428c0                init_rd
 .text.log_append
                0xffffffff801429b0      0x1d3 kernel/libnoninstrumentables.a.p/generic_src_log_log.c.o
 *fill*         0xffffffff80142b83        0xd 
 .text.log_printf_wstr_write
                0xffffffff80142b90       0x88 kernel/libnoninstrumentables.a.p/generic_src_log_log.c.o
 *fill*         0xffffffff80142c18        0x8 
 .text.log_printf_str_write
                0xffffffff80142c20       0x65 kernel/libnoninstrumentables.a.p/generic_src_log_log.c.o
 *fill*         0xffffffff80142c85        0xb 
 .text.log_update
                0xffffffff80142c90       0x76 kernel/libnoninstrumentables.a.p/generic_src_log_log.c.o
 *fill*         0xffffffff80142d06        0xa 
 .text.log_init
                0xffffffff80142d10       0x21 kernel/libnoninstrumentables.a.p/generic_src_log_log.c.o
                0xffffffff80142d10                log_init
 *fill*         0xffffffff80142d31        0xf 
 .text.log_begin
                0xffffffff80142d40       0xa1 kernel/libnoninstrumentables.a.p/generic_src_log_log.c.o
                0xffffffff80142d40                log_begin
 *fill*         0xffffffff80142de1        0xf 
 .text.log_end  0xffffffff80142df0      0x156 kernel/libnoninstrumentables.a.p/generic_src_log_log.c.o
                0xffffffff80142df0                log_end
 *fill*         0xffffffff80142f46        0xa 
 .text.log_printf
                0xffffffff80142f50       0x5a kernel/libnoninstrumentables.a.p/generic_src_log_log.c.o
                0xffffffff80142f50                log_printf
 *fill*         0xffffffff80142faa        0x6 
 .text.log      0xffffffff80142fb0       0xfe kernel/libnoninstrumentables.a.p/generic_src_log_log.c.o
                0xffffffff80142fb0                log
 *fill*         0xffffffff801430ae        0x2 
 .text.sys_klog
                0xffffffff801430b0      0x351 kernel/libnoninstrumentables.a.p/generic_src_log_log.c.o
                0xffffffff801430b0                sys_klog
 *fill*         0xffffffff80143401        0xf 
 .text.reboot   0xffffffff80143410       0x28 kernel/libnoninstrumentables.a.p/generic_src_main_shutdown.c.o
                0xffffffff80143410                reboot
 *fill*         0xffffffff80143438        0x8 
 .text.uinit    0xffffffff80143440       0x2f kernel/libnoninstrumentables.a.p/generic_src_main_uinit.c.o
                0xffffffff80143440                uinit
 *fill*         0xffffffff8014346f        0x1 
 .text.version_print
                0xffffffff80143470       0x4c kernel/libnoninstrumentables.a.p/generic_src_main_version.c.o
                0xffffffff80143470                version_print
 *fill*         0xffffffff801434bc        0x4 
 .text.anon_is_resizable
                0xffffffff801434c0        0xb kernel/libnoninstrumentables.a.p/generic_src_mm_backend_anon.c.o
 *fill*         0xffffffff801434cb        0x5 
 .text.anon_is_shareable
                0xffffffff801434d0       0x15 kernel/libnoninstrumentables.a.p/generic_src_mm_backend_anon.c.o
 *fill*         0xffffffff801434e5        0xb 
 .text.anon_page_fault
                0xffffffff801434f0      0x25d kernel/libnoninstrumentables.a.p/generic_src_mm_backend_anon.c.o
 *fill*         0xffffffff8014374d        0x3 
 .text.anon_resize
                0xffffffff80143750       0x43 kernel/libnoninstrumentables.a.p/generic_src_mm_backend_anon.c.o
 *fill*         0xffffffff80143793        0xd 
 .text.anon_share
                0xffffffff801437a0      0x222 kernel/libnoninstrumentables.a.p/generic_src_mm_backend_anon.c.o
 *fill*         0xffffffff801439c2        0xe 
 .text.anon_frame_free
                0xffffffff801439d0       0x9f kernel/libnoninstrumentables.a.p/generic_src_mm_backend_anon.c.o
 *fill*         0xffffffff80143a6f        0x1 
 .text.anon_destroy
                0xffffffff80143a70       0x1d kernel/libnoninstrumentables.a.p/generic_src_mm_backend_anon.c.o
 *fill*         0xffffffff80143a8d        0x3 
 .text.anon_create
                0xffffffff80143a90       0x25 kernel/libnoninstrumentables.a.p/generic_src_mm_backend_anon.c.o
 *fill*         0xffffffff80143ab5        0xb 
 .text.elf_is_resizable
                0xffffffff80143ac0        0xb kernel/libnoninstrumentables.a.p/generic_src_mm_backend_elf.c.o
 *fill*         0xffffffff80143acb        0x5 
 .text.elf_frame_free
                0xffffffff80143ad0      0x164 kernel/libnoninstrumentables.a.p/generic_src_mm_backend_elf.c.o
 *fill*         0xffffffff80143c34        0xc 
 .text.elf_page_fault
                0xffffffff80143c40      0x511 kernel/libnoninstrumentables.a.p/generic_src_mm_backend_elf.c.o
 *fill*         0xffffffff80144151        0xf 
 .text.elf_destroy
                0xffffffff80144160       0x60 kernel/libnoninstrumentables.a.p/generic_src_mm_backend_elf.c.o
 .text.elf_share
                0xffffffff801441c0      0x2a8 kernel/libnoninstrumentables.a.p/generic_src_mm_backend_elf.c.o
 *fill*         0xffffffff80144468        0x8 
 .text.elf_resize
                0xffffffff80144470       0xb5 kernel/libnoninstrumentables.a.p/generic_src_mm_backend_elf.c.o
 *fill*         0xffffffff80144525        0xb 
 .text.elf_create
                0xffffffff80144530       0x65 kernel/libnoninstrumentables.a.p/generic_src_mm_backend_elf.c.o
 *fill*         0xffffffff80144595        0xb 
 .text.elf_is_shareable
                0xffffffff801445a0        0xb kernel/libnoninstrumentables.a.p/generic_src_mm_backend_elf.c.o
 *fill*         0xffffffff801445ab        0x5 
 .text.phys_create
                0xffffffff801445b0        0xb kernel/libnoninstrumentables.a.p/generic_src_mm_backend_phys.c.o
 *fill*         0xffffffff801445bb        0x5 
 .text.phys_is_resizable
                0xffffffff801445c0        0x8 kernel/libnoninstrumentables.a.p/generic_src_mm_backend_phys.c.o
 *fill*         0xffffffff801445c8        0x8 
 .text.phys_create_shared_data
                0xffffffff801445d0       0x60 kernel/libnoninstrumentables.a.p/generic_src_mm_backend_phys.c.o
 .text.phys_page_fault
                0xffffffff80144630      0x1a4 kernel/libnoninstrumentables.a.p/generic_src_mm_backend_phys.c.o
 *fill*         0xffffffff801447d4        0xc 
 .text.phys_destroy
                0xffffffff801447e0       0x1a kernel/libnoninstrumentables.a.p/generic_src_mm_backend_phys.c.o
 *fill*         0xffffffff801447fa        0x6 
 .text.phys_destroy_shared_data
                0xffffffff80144800       0x32 kernel/libnoninstrumentables.a.p/generic_src_mm_backend_phys.c.o
 *fill*         0xffffffff80144832        0xe 
 .text.phys_share
                0xffffffff80144840       0x7c kernel/libnoninstrumentables.a.p/generic_src_mm_backend_phys.c.o
 *fill*         0xffffffff801448bc        0x4 
 .text.phys_is_shareable
                0xffffffff801448c0        0xb kernel/libnoninstrumentables.a.p/generic_src_mm_backend_phys.c.o
 *fill*         0xffffffff801448cb        0x5 
 .text.user_create
                0xffffffff801448d0        0xb kernel/libnoninstrumentables.a.p/generic_src_mm_backend_user.c.o
 *fill*         0xffffffff801448db        0x5 
 .text.user_destroy
                0xffffffff801448e0        0x6 kernel/libnoninstrumentables.a.p/generic_src_mm_backend_user.c.o
 *fill*         0xffffffff801448e6        0xa 
 .text.user_is_resizable
                0xffffffff801448f0        0x8 kernel/libnoninstrumentables.a.p/generic_src_mm_backend_user.c.o
 *fill*         0xffffffff801448f8        0x8 
 .text.user_page_fault
                0xffffffff80144900      0x237 kernel/libnoninstrumentables.a.p/generic_src_mm_backend_user.c.o
 *fill*         0xffffffff80144b37        0x9 
 .text.user_frame_free
                0xffffffff80144b40       0xaf kernel/libnoninstrumentables.a.p/generic_src_mm_backend_user.c.o
 *fill*         0xffffffff80144bef        0x1 
 .text.user_is_shareable
                0xffffffff80144bf0        0x8 kernel/libnoninstrumentables.a.p/generic_src_mm_backend_user.c.o
 *fill*         0xffffffff80144bf8        0x8 
 .text.km_page_alloc.part.0
                0xffffffff80144c00       0x1a kernel/libnoninstrumentables.a.p/generic_src_mm_km.c.o
 *fill*         0xffffffff80144c1a        0x6 
 .text.km_map_aligned
                0xffffffff80144c20      0x1bb kernel/libnoninstrumentables.a.p/generic_src_mm_km.c.o
 *fill*         0xffffffff80144ddb        0x5 
 .text.km_identity_init
                0xffffffff80144de0       0x12 kernel/libnoninstrumentables.a.p/generic_src_mm_km.c.o
                0xffffffff80144de0                km_identity_init
 *fill*         0xffffffff80144df2        0xe 
 .text.km_non_identity_init
                0xffffffff80144e00       0x5e kernel/libnoninstrumentables.a.p/generic_src_mm_km.c.o
                0xffffffff80144e00                km_non_identity_init
 *fill*         0xffffffff80144e5e        0x2 
 .text.km_is_non_identity
                0xffffffff80144e60        0xa kernel/libnoninstrumentables.a.p/generic_src_mm_km.c.o
                0xffffffff80144e60                km_is_non_identity
 *fill*         0xffffffff80144e6a        0x6 
 .text.km_non_identity_span_add
                0xffffffff80144e70       0x72 kernel/libnoninstrumentables.a.p/generic_src_mm_km.c.o
                0xffffffff80144e70                km_non_identity_span_add
 *fill*         0xffffffff80144ee2        0xe 
 .text.km_map   0xffffffff80144ef0       0x39 kernel/libnoninstrumentables.a.p/generic_src_mm_km.c.o
                0xffffffff80144ef0                km_map
 *fill*         0xffffffff80144f29        0x7 
 .text.km_unmap
                0xffffffff80144f30       0xca kernel/libnoninstrumentables.a.p/generic_src_mm_km.c.o
                0xffffffff80144f30                km_unmap
 *fill*         0xffffffff80144ffa        0x6 
 .text.km_temporary_page_get
                0xffffffff80145000      0x10d kernel/libnoninstrumentables.a.p/generic_src_mm_km.c.o
                0xffffffff80145000                km_temporary_page_get
 *fill*         0xffffffff8014510d        0x3 
 .text.km_temporary_page_put
                0xffffffff80145110      0x152 kernel/libnoninstrumentables.a.p/generic_src_mm_km.c.o
                0xffffffff80145110                km_temporary_page_put
 *fill*         0xffffffff80145262        0xe 
 .text.malloc_init
                0xffffffff80145270       0x46 kernel/libnoninstrumentables.a.p/generic_src_mm_malloc.c.o
                0xffffffff80145270                malloc_init
 *fill*         0xffffffff801452b6        0xa 
 .text.malloc   0xffffffff801452c0      0x1a0 kernel/libnoninstrumentables.a.p/generic_src_mm_malloc.c.o
                0xffffffff801452c0                malloc
 .text.free     0xffffffff80145460      0x14b kernel/libnoninstrumentables.a.p/generic_src_mm_malloc.c.o
                0xffffffff80145460                free
 *fill*         0xffffffff801455ab        0x5 
 .text.reserve_init
                0xffffffff801455b0       0x19 kernel/libnoninstrumentables.a.p/generic_src_mm_reserve.c.o
                0xffffffff801455b0                reserve_init
 *fill*         0xffffffff801455c9        0x7 
 .text.reserve_try_alloc
                0xffffffff801455d0      0x124 kernel/libnoninstrumentables.a.p/generic_src_mm_reserve.c.o
                0xffffffff801455d0                reserve_try_alloc
 *fill*         0xffffffff801456f4        0xc 
 .text.reserve_force_alloc
                0xffffffff80145700       0x4d kernel/libnoninstrumentables.a.p/generic_src_mm_reserve.c.o
                0xffffffff80145700                reserve_force_alloc
 *fill*         0xffffffff8014574d        0x3 
 .text.reserve_free
                0xffffffff80145750       0x4d kernel/libnoninstrumentables.a.p/generic_src_mm_reserve.c.o
                0xffffffff80145750                reserve_free
 *fill*         0xffffffff8014579d        0x3 
 .text.printf   0xffffffff801457a0       0x3e kernel/libnoninstrumentables.a.p/generic_src_printf_printf.c.o
                0xffffffff801457a0                printf
 *fill*         0xffffffff801457de        0x2 
 .text.snprintf
                0xffffffff801457e0       0x36 kernel/libnoninstrumentables.a.p/generic_src_printf_snprintf.c.o
                0xffffffff801457e0                snprintf
 *fill*         0xffffffff80145816        0xa 
 .text.vprintf_wstr_write
                0xffffffff80145820       0x4b kernel/libnoninstrumentables.a.p/generic_src_printf_vprintf.c.o
 *fill*         0xffffffff8014586b        0x5 
 .text.vprintf_str_write
                0xffffffff80145870       0x65 kernel/libnoninstrumentables.a.p/generic_src_printf_vprintf.c.o
 *fill*         0xffffffff801458d5        0xb 
 .text.vprintf  0xffffffff801458e0       0x2e kernel/libnoninstrumentables.a.p/generic_src_printf_vprintf.c.o
                0xffffffff801458e0                vprintf
 *fill*         0xffffffff8014590e        0x2 
 .text.vsnprintf_wstr_write
                0xffffffff80145910       0xb1 kernel/libnoninstrumentables.a.p/generic_src_printf_vsnprintf.c.o
 *fill*         0xffffffff801459c1        0xf 
 .text.vsnprintf_str_write
                0xffffffff801459d0       0xea kernel/libnoninstrumentables.a.p/generic_src_printf_vsnprintf.c.o
 *fill*         0xffffffff80145aba        0x6 
 .text.vsnprintf
                0xffffffff80145ac0       0x4c kernel/libnoninstrumentables.a.p/generic_src_printf_vsnprintf.c.o
                0xffffffff80145ac0                vsnprintf
 *fill*         0xffffffff80145b0c        0x4 
 .text.program_create
                0xffffffff80145b10      0x14d kernel/libnoninstrumentables.a.p/generic_src_proc_program.c.o
                0xffffffff80145b10                program_create
 *fill*         0xffffffff80145c5d        0x3 
 .text.program_create_from_image
                0xffffffff80145c60      0x103 kernel/libnoninstrumentables.a.p/generic_src_proc_program.c.o
                0xffffffff80145c60                program_create_from_image
 *fill*         0xffffffff80145d63        0xd 
 .text.program_create_loader
                0xffffffff80145d70       0xf3 kernel/libnoninstrumentables.a.p/generic_src_proc_program.c.o
                0xffffffff80145d70                program_create_loader
 *fill*         0xffffffff80145e63        0xd 
 .text.program_ready
                0xffffffff80145e70       0x2f kernel/libnoninstrumentables.a.p/generic_src_proc_program.c.o
                0xffffffff80145e70                program_ready
 *fill*         0xffffffff80145e9f        0x1 
 .text.sys_program_spawn_loader
                0xffffffff80145ea0       0x95 kernel/libnoninstrumentables.a.p/generic_src_proc_program.c.o
                0xffffffff80145ea0                sys_program_spawn_loader
 *fill*         0xffffffff80145f35        0xb 
 .text.try_find_thread
                0xffffffff80145f40      0x190 kernel/libnoninstrumentables.a.p/generic_src_proc_scheduler.c.o
 .text.context_swap
                0xffffffff801460d0       0x25 kernel/libnoninstrumentables.a.p/generic_src_proc_scheduler.c.o
 *fill*         0xffffffff801460f5        0xb 
 .text.prepare_to_run_thread
                0xffffffff80146100      0x45e kernel/libnoninstrumentables.a.p/generic_src_proc_scheduler.c.o
 *fill*         0xffffffff8014655e        0x2 
 .text.scheduler_fpu_lazy_request
                0xffffffff80146560       0xc8 kernel/libnoninstrumentables.a.p/generic_src_proc_scheduler.c.o
                0xffffffff80146560                scheduler_fpu_lazy_request
 *fill*         0xffffffff80146628        0x8 
 .text.scheduler_init
                0xffffffff80146630        0x6 kernel/libnoninstrumentables.a.p/generic_src_proc_scheduler.c.o
                0xffffffff80146630                scheduler_init
 *fill*         0xffffffff80146636        0xa 
 .text.thread_requeue_sleeping
                0xffffffff80146640      0x12b kernel/libnoninstrumentables.a.p/generic_src_proc_scheduler.c.o
                0xffffffff80146640                thread_requeue_sleeping
 *fill*         0xffffffff8014676b        0x5 
 .text.cleanup_after_thread
                0xffffffff80146770      0x2a9 kernel/libnoninstrumentables.a.p/generic_src_proc_scheduler.c.o
 *fill*         0xffffffff80146a19        0x7 
 .text.scheduler_enter
                0xffffffff80146a20      0x202 kernel/libnoninstrumentables.a.p/generic_src_proc_scheduler.c.o
                0xffffffff80146a20                scheduler_enter
 *fill*         0xffffffff80146c22        0xe 
 .text.scheduler_run
                0xffffffff80146c30      0x253 kernel/libnoninstrumentables.a.p/generic_src_proc_scheduler.c.o
                0xffffffff80146c30                scheduler_run
 *fill*         0xffffffff80146e83        0xd 
 .text.thread_main_func
                0xffffffff80146e90       0x9e kernel/libnoninstrumentables.a.p/generic_src_proc_scheduler.c.o
                0xffffffff80146e90                thread_main_func
 *fill*         0xffffffff80146f2e        0x2 
 .text.kcpulb   0xffffffff80146f30      0x295 kernel/libnoninstrumentables.a.p/generic_src_proc_scheduler.c.o
                0xffffffff80146f30                kcpulb
 *fill*         0xffffffff801471c5        0xb 
 .text.sched_print_list
                0xffffffff801471d0      0x1a2 kernel/libnoninstrumentables.a.p/generic_src_proc_scheduler.c.o
                0xffffffff801471d0                sched_print_list
 *fill*         0xffffffff80147372        0xe 
 .text.tasks_getkey
                0xffffffff80147380        0xd kernel/libnoninstrumentables.a.p/generic_src_proc_task.c.o
 *fill*         0xffffffff8014738d        0x3 
 .text.tasks_cmp
                0xffffffff80147390       0x19 kernel/libnoninstrumentables.a.p/generic_src_proc_task.c.o
 *fill*         0xffffffff801473a9        0x7 
 .text.tsk_destructor
                0xffffffff801473b0        0xd kernel/libnoninstrumentables.a.p/generic_src_proc_task.c.o
 *fill*         0xffffffff801473bd        0x3 
 .text.tsk_constructor
                0xffffffff801473c0       0xba kernel/libnoninstrumentables.a.p/generic_src_proc_task.c.o
 *fill*         0xffffffff8014747a        0x6 
 .text.task_first.part.0
                0xffffffff80147480       0x41 kernel/libnoninstrumentables.a.p/generic_src_proc_task.c.o
 *fill*         0xffffffff801474c1        0xf 
 .text.task_init
                0xffffffff801474d0       0x5c kernel/libnoninstrumentables.a.p/generic_src_proc_task.c.o
                0xffffffff801474d0                task_init
 *fill*         0xffffffff8014752c        0x4 
 .text.task_create
                0xffffffff80147530      0x206 kernel/libnoninstrumentables.a.p/generic_src_proc_task.c.o
                0xffffffff80147530                task_create
 *fill*         0xffffffff80147736        0xa 
 .text.task_hold
                0xffffffff80147740       0x54 kernel/libnoninstrumentables.a.p/generic_src_proc_task.c.o
                0xffffffff80147740                task_hold
 *fill*         0xffffffff80147794        0xc 
 .text.task_release
                0xffffffff801477a0       0xd7 kernel/libnoninstrumentables.a.p/generic_src_proc_task.c.o
                0xffffffff801477a0                task_release
 *fill*         0xffffffff80147877        0x9 
 .text.task_done
                0xffffffff80147880      0x276 kernel/libnoninstrumentables.a.p/generic_src_proc_task.c.o
                0xffffffff80147880                task_done
 *fill*         0xffffffff80147af6        0xa 
 .text.sys_task_get_id
                0xffffffff80147b00       0x1a kernel/libnoninstrumentables.a.p/generic_src_proc_task.c.o
                0xffffffff80147b00                sys_task_get_id
 *fill*         0xffffffff80147b1a        0x6 
 .text.sys_task_set_name
                0xffffffff80147b20       0xa5 kernel/libnoninstrumentables.a.p/generic_src_proc_task.c.o
                0xffffffff80147b20                sys_task_set_name
 *fill*         0xffffffff80147bc5        0xb 
 .text.sys_task_kill
                0xffffffff80147bd0      0x12b kernel/libnoninstrumentables.a.p/generic_src_proc_task.c.o
                0xffffffff80147bd0                sys_task_kill
 *fill*         0xffffffff80147cfb        0x5 
 .text.task_find_by_id
                0xffffffff80147d00       0x74 kernel/libnoninstrumentables.a.p/generic_src_proc_task.c.o
                0xffffffff80147d00                task_find_by_id
 *fill*         0xffffffff80147d74        0xc 
 .text.task_count
                0xffffffff80147d80       0x9c kernel/libnoninstrumentables.a.p/generic_src_proc_task.c.o
                0xffffffff80147d80                task_count
 *fill*         0xffffffff80147e1c        0x4 
 .text.task_first
                0xffffffff80147e20       0x6a kernel/libnoninstrumentables.a.p/generic_src_proc_task.c.o
                0xffffffff80147e20                task_first
 *fill*         0xffffffff80147e8a        0x6 
 .text.task_next
                0xffffffff80147e90       0xaa kernel/libnoninstrumentables.a.p/generic_src_proc_task.c.o
                0xffffffff80147e90                task_next
 *fill*         0xffffffff80147f3a        0x6 
 .text.task_get_accounting
                0xffffffff80147f40      0x149 kernel/libnoninstrumentables.a.p/generic_src_proc_task.c.o
                0xffffffff80147f40                task_get_accounting
 *fill*         0xffffffff80148089        0x7 
 .text.task_kill
                0xffffffff80148090      0x10a kernel/libnoninstrumentables.a.p/generic_src_proc_task.c.o
                0xffffffff80148090                task_kill
 *fill*         0xffffffff8014819a        0x6 
 .text.task_kill_self
                0xffffffff801481a0       0xb5 kernel/libnoninstrumentables.a.p/generic_src_proc_task.c.o
                0xffffffff801481a0                task_kill_self
 *fill*         0xffffffff80148255        0xb 
 .text.sys_task_exit
                0xffffffff80148260       0x14 kernel/libnoninstrumentables.a.p/generic_src_proc_task.c.o
                0xffffffff80148260                sys_task_exit
 *fill*         0xffffffff80148274        0xc 
 .text.task_print_list
                0xffffffff80148280      0x28e kernel/libnoninstrumentables.a.p/generic_src_proc_task.c.o
                0xffffffff80148280                task_print_list
 *fill*         0xffffffff8014850e        0x2 
 .text.threads_getkey
                0xffffffff80148510        0xa kernel/libnoninstrumentables.a.p/generic_src_proc_thread.c.o
 *fill*         0xffffffff8014851a        0x6 
 .text.threads_cmp
                0xffffffff80148520       0x18 kernel/libnoninstrumentables.a.p/generic_src_proc_thread.c.o
 *fill*         0xffffffff80148538        0x8 
 .text.thr_destructor
                0xffffffff80148540       0x24 kernel/libnoninstrumentables.a.p/generic_src_proc_thread.c.o
 *fill*         0xffffffff80148564        0xc 
 .text.thr_constructor
                0xffffffff80148570       0x86 kernel/libnoninstrumentables.a.p/generic_src_proc_thread.c.o
 *fill*         0xffffffff801485f6        0xa 
 .text.link_used.part.0
                0xffffffff80148600       0x41 kernel/libnoninstrumentables.a.p/generic_src_proc_thread.c.o
 *fill*         0xffffffff80148641        0xf 
 .text.thread_wakeup.part.0
                0xffffffff80148650       0x41 kernel/libnoninstrumentables.a.p/generic_src_proc_thread.c.o
 *fill*         0xffffffff80148691        0xf 
 .text.thread_join_timeout.part.0
                0xffffffff801486a0       0x41 kernel/libnoninstrumentables.a.p/generic_src_proc_thread.c.o
 *fill*         0xffffffff801486e1        0xf 
 .text.thread_wait_timeout_callback
                0xffffffff801486f0       0x26 kernel/libnoninstrumentables.a.p/generic_src_proc_thread.c.o
 *fill*         0xffffffff80148716        0xa 
 .text.thread_init
                0xffffffff80148720       0x6c kernel/libnoninstrumentables.a.p/generic_src_proc_thread.c.o
                0xffffffff80148720                thread_init
 *fill*         0xffffffff8014878c        0x4 
 .text.thread_wire
                0xffffffff80148790       0x18 kernel/libnoninstrumentables.a.p/generic_src_proc_thread.c.o
                0xffffffff80148790                thread_wire
 *fill*         0xffffffff801487a8        0x8 
 .text.thread_start
                0xffffffff801487b0       0x83 kernel/libnoninstrumentables.a.p/generic_src_proc_thread.c.o
                0xffffffff801487b0                thread_start
 *fill*         0xffffffff80148833        0xd 
 .text.thread_put
                0xffffffff80148840      0x2c7 kernel/libnoninstrumentables.a.p/generic_src_proc_thread.c.o
                0xffffffff80148840                thread_put
 *fill*         0xffffffff80148b07        0x9 
 .text.thread_attach
                0xffffffff80148b10       0xc6 kernel/libnoninstrumentables.a.p/generic_src_proc_thread.c.o
                0xffffffff80148b10                thread_attach
 *fill*         0xffffffff80148bd6        0xa 
 .text.thread_create
                0xffffffff80148be0      0x20c kernel/libnoninstrumentables.a.p/generic_src_proc_thread.c.o
                0xffffffff80148be0                thread_create
 *fill*         0xffffffff80148dec        0x4 
 .text.thread_exit
                0xffffffff80148df0       0x82 kernel/libnoninstrumentables.a.p/generic_src_proc_thread.c.o
                0xffffffff80148df0                thread_exit
 *fill*         0xffffffff80148e72        0xe 
 .text.thread_interrupt
                0xffffffff80148e80       0x5e kernel/libnoninstrumentables.a.p/generic_src_proc_thread.c.o
                0xffffffff80148e80                thread_interrupt
 *fill*         0xffffffff80148ede        0x2 
 .text.thread_wait_start
                0xffffffff80148ee0       0x64 kernel/libnoninstrumentables.a.p/generic_src_proc_thread.c.o
                0xffffffff80148ee0                thread_wait_start
 *fill*         0xffffffff80148f44        0xc 
 .text.thread_wait_finish
                0xffffffff80148f50       0xc4 kernel/libnoninstrumentables.a.p/generic_src_proc_thread.c.o
                0xffffffff80148f50                thread_wait_finish
 *fill*         0xffffffff80149014        0xc 
 .text.thread_wakeup
                0xffffffff80149020       0x26 kernel/libnoninstrumentables.a.p/generic_src_proc_thread.c.o
                0xffffffff80149020                thread_wakeup
 *fill*         0xffffffff80149046        0xa 
 .text.thread_migration_disable
                0xffffffff80149050       0x62 kernel/libnoninstrumentables.a.p/generic_src_proc_thread.c.o
                0xffffffff80149050                thread_migration_disable
 *fill*         0xffffffff801490b2        0xe 
 .text.thread_migration_enable
                0xffffffff801490c0       0x7f kernel/libnoninstrumentables.a.p/generic_src_proc_thread.c.o
                0xffffffff801490c0                thread_migration_enable
 *fill*         0xffffffff8014913f        0x1 
 .text.thread_sleep
                0xffffffff80149140       0x52 kernel/libnoninstrumentables.a.p/generic_src_proc_thread.c.o
                0xffffffff80149140                thread_sleep
 *fill*         0xffffffff80149192        0xe 
 .text.thread_join
                0xffffffff801491a0       0x68 kernel/libnoninstrumentables.a.p/generic_src_proc_thread.c.o
                0xffffffff801491a0                thread_join
 *fill*         0xffffffff80149208        0x8 
 .text.thread_detach
                0xffffffff80149210        0xa kernel/libnoninstrumentables.a.p/generic_src_proc_thread.c.o
                0xffffffff80149210                thread_detach
 *fill*         0xffffffff8014921a        0x6 
 .text.thread_usleep
                0xffffffff80149220       0x28 kernel/libnoninstrumentables.a.p/generic_src_proc_thread.c.o
                0xffffffff80149220                thread_usleep
 *fill*         0xffffffff80149248        0x8 
 .text.thread_yield
                0xffffffff80149250       0x5c kernel/libnoninstrumentables.a.p/generic_src_proc_thread.c.o
                0xffffffff80149250                thread_yield
 *fill*         0xffffffff801492ac        0x4 
 .text.thread_try_get
                0xffffffff801492b0       0x64 kernel/libnoninstrumentables.a.p/generic_src_proc_thread.c.o
                0xffffffff801492b0                thread_try_get
 *fill*         0xffffffff80149314        0xc 
 .text.thread_update_accounting
                0xffffffff80149320       0xae kernel/libnoninstrumentables.a.p/generic_src_proc_thread.c.o
                0xffffffff80149320                thread_update_accounting
 *fill*         0xffffffff801493ce        0x2 
 .text.thread_count
                0xffffffff801493d0       0x9c kernel/libnoninstrumentables.a.p/generic_src_proc_thread.c.o
                0xffffffff801493d0                thread_count
 *fill*         0xffffffff8014946c        0x4 
 .text.thread_first
                0xffffffff80149470       0xa8 kernel/libnoninstrumentables.a.p/generic_src_proc_thread.c.o
                0xffffffff80149470                thread_first
 *fill*         0xffffffff80149518        0x8 
 .text.thread_find_by_id
                0xffffffff80149520      0x144 kernel/libnoninstrumentables.a.p/generic_src_proc_thread.c.o
                0xffffffff80149520                thread_find_by_id
 *fill*         0xffffffff80149664        0xc 
 .text.thread_next
                0xffffffff80149670       0xb7 kernel/libnoninstrumentables.a.p/generic_src_proc_thread.c.o
                0xffffffff80149670                thread_next
 *fill*         0xffffffff80149727        0x9 
 .text.thread_print_list
                0xffffffff80149730      0x289 kernel/libnoninstrumentables.a.p/generic_src_proc_thread.c.o
                0xffffffff80149730                thread_print_list
 *fill*         0xffffffff801499b9        0x7 
 .text.thread_stack_trace
                0xffffffff801499c0       0xbd kernel/libnoninstrumentables.a.p/generic_src_proc_thread.c.o
                0xffffffff801499c0                thread_stack_trace
 *fill*         0xffffffff80149a7d        0x3 
 .text.sys_thread_create
                0xffffffff80149a80       0xda kernel/libnoninstrumentables.a.p/generic_src_proc_thread.c.o
                0xffffffff80149a80                sys_thread_create
 *fill*         0xffffffff80149b5a        0x6 
 .text.sys_thread_exit
                0xffffffff80149b60        0x9 kernel/libnoninstrumentables.a.p/generic_src_proc_thread.c.o
                0xffffffff80149b60                sys_thread_exit
 *fill*         0xffffffff80149b69        0x7 
 .text.sys_thread_get_id
                0xffffffff80149b70       0x26 kernel/libnoninstrumentables.a.p/generic_src_proc_thread.c.o
                0xffffffff80149b70                sys_thread_get_id
 *fill*         0xffffffff80149b96        0xa 
 .text.sys_thread_usleep
                0xffffffff80149ba0       0x2a kernel/libnoninstrumentables.a.p/generic_src_proc_thread.c.o
                0xffffffff80149ba0                sys_thread_usleep
 *fill*         0xffffffff80149bca        0x6 
 .text.sys_thread_udelay
                0xffffffff80149bd0        0xd kernel/libnoninstrumentables.a.p/generic_src_proc_thread.c.o
                0xffffffff80149bd0                sys_thread_udelay
 *fill*         0xffffffff80149bdd        0x3 
 .text.perm_set
                0xffffffff80149be0       0x4c kernel/libnoninstrumentables.a.p/generic_src_security_perm.c.o
                0xffffffff80149be0                perm_set
 *fill*         0xffffffff80149c2c        0x4 
 .text.perm_get
                0xffffffff80149c30       0x43 kernel/libnoninstrumentables.a.p/generic_src_security_perm.c.o
                0xffffffff80149c30                perm_get
 *fill*         0xffffffff80149c73        0xd 
 .text.sys_perm_grant
                0xffffffff80149c80       0xe2 kernel/libnoninstrumentables.a.p/generic_src_security_perm.c.o
                0xffffffff80149c80                sys_perm_grant
 *fill*         0xffffffff80149d62        0xe 
 .text.sys_perm_revoke
                0xffffffff80149d70       0xf8 kernel/libnoninstrumentables.a.p/generic_src_security_perm.c.o
                0xffffffff80149d70                sys_perm_revoke
 *fill*         0xffffffff80149e68        0x8 
 .text.ipi_broadcast
                0xffffffff80149e70       0x16 kernel/libnoninstrumentables.a.p/generic_src_smp_ipi.c.o
                0xffffffff80149e70                ipi_broadcast
 *fill*         0xffffffff80149e86        0xa 
 .text.condvar_initialize
                0xffffffff80149e90        0xa kernel/libnoninstrumentables.a.p/generic_src_synch_condvar.c.o
                0xffffffff80149e90                condvar_initialize
 *fill*         0xffffffff80149e9a        0x6 
 .text.condvar_broadcast
                0xffffffff80149ea0        0xa kernel/libnoninstrumentables.a.p/generic_src_synch_condvar.c.o
                0xffffffff80149ea0                condvar_broadcast
 *fill*         0xffffffff80149eaa        0x6 
 .text.condvar_wait
                0xffffffff80149eb0       0x51 kernel/libnoninstrumentables.a.p/generic_src_synch_condvar.c.o
                0xffffffff80149eb0                condvar_wait
 *fill*         0xffffffff80149f01        0xf 
 .text.irq_spinlock_initialize
                0xffffffff80149f10       0x29 kernel/libnoninstrumentables.a.p/generic_src_synch_irq_spinlock.c.o
                0xffffffff80149f10                irq_spinlock_initialize
 *fill*         0xffffffff80149f39        0x7 
 .text.irq_spinlock_lock
                0xffffffff80149f40      0x120 kernel/libnoninstrumentables.a.p/generic_src_synch_irq_spinlock.c.o
                0xffffffff80149f40                irq_spinlock_lock
 .text.irq_spinlock_unlock
                0xffffffff8014a060      0x11e kernel/libnoninstrumentables.a.p/generic_src_synch_irq_spinlock.c.o
                0xffffffff8014a060                irq_spinlock_unlock
 *fill*         0xffffffff8014a17e        0x2 
 .text.irq_spinlock_pass
                0xffffffff8014a180      0x189 kernel/libnoninstrumentables.a.p/generic_src_synch_irq_spinlock.c.o
                0xffffffff8014a180                irq_spinlock_pass
 *fill*         0xffffffff8014a309        0x7 
 .text.irq_spinlock_locked
                0xffffffff8014a310       0x36 kernel/libnoninstrumentables.a.p/generic_src_synch_irq_spinlock.c.o
                0xffffffff8014a310                irq_spinlock_locked
 *fill*         0xffffffff8014a346        0xa 
 .text.mutex_initialize
                0xffffffff8014a350       0x24 kernel/libnoninstrumentables.a.p/generic_src_synch_mutex.c.o
                0xffffffff8014a350                mutex_initialize
 *fill*         0xffffffff8014a374        0xc 
 .text.mutex_locked
                0xffffffff8014a380       0x41 kernel/libnoninstrumentables.a.p/generic_src_synch_mutex.c.o
                0xffffffff8014a380                mutex_locked
 *fill*         0xffffffff8014a3c1        0xf 
 .text.mutex_lock
                0xffffffff8014a3d0      0x14f kernel/libnoninstrumentables.a.p/generic_src_synch_mutex.c.o
                0xffffffff8014a3d0                mutex_lock
 *fill*         0xffffffff8014a51f        0x1 
 .text.mutex_trylock
                0xffffffff8014a520       0x9f kernel/libnoninstrumentables.a.p/generic_src_synch_mutex.c.o
                0xffffffff8014a520                mutex_trylock
 *fill*         0xffffffff8014a5bf        0x1 
 .text.mutex_unlock
                0xffffffff8014a5c0       0x83 kernel/libnoninstrumentables.a.p/generic_src_synch_mutex.c.o
                0xffffffff8014a5c0                mutex_unlock
 *fill*         0xffffffff8014a643        0xd 
 .text.semaphore_down_timeout.part.0
                0xffffffff8014a650       0x41 kernel/libnoninstrumentables.a.p/generic_src_synch_semaphore.c.o
 *fill*         0xffffffff8014a691        0xf 
 .text.semaphore_initialize
                0xffffffff8014a6a0        0xa kernel/libnoninstrumentables.a.p/generic_src_synch_semaphore.c.o
                0xffffffff8014a6a0                semaphore_initialize
 *fill*         0xffffffff8014a6aa        0x6 
 .text.semaphore_trydown
                0xffffffff8014a6b0       0x2a kernel/libnoninstrumentables.a.p/generic_src_synch_semaphore.c.o
                0xffffffff8014a6b0                semaphore_trydown
 *fill*         0xffffffff8014a6da        0x6 
 .text.semaphore_down_timeout
                0xffffffff8014a6e0       0x2a kernel/libnoninstrumentables.a.p/generic_src_synch_semaphore.c.o
                0xffffffff8014a6e0                semaphore_down_timeout
 *fill*         0xffffffff8014a70a        0x6 
 .text.semaphore_down
                0xffffffff8014a710       0x4c kernel/libnoninstrumentables.a.p/generic_src_synch_semaphore.c.o
                0xffffffff8014a710                semaphore_down
 *fill*         0xffffffff8014a75c        0x4 
 .text.semaphore_up
                0xffffffff8014a760        0xa kernel/libnoninstrumentables.a.p/generic_src_synch_semaphore.c.o
                0xffffffff8014a760                semaphore_up
 *fill*         0xffffffff8014a76a        0x6 
 .text.sys_smc_coherence
                0xffffffff8014a770       0x65 kernel/libnoninstrumentables.a.p/generic_src_synch_smc.c.o
                0xffffffff8014a770                sys_smc_coherence
 *fill*         0xffffffff8014a7d5        0xb 
 .text.spinlock_initialize
                0xffffffff8014a7e0        0xd kernel/libnoninstrumentables.a.p/generic_src_synch_spinlock.c.o
                0xffffffff8014a7e0                spinlock_initialize
 *fill*         0xffffffff8014a7ed        0x3 
 .text.spinlock_lock
                0xffffffff8014a7f0       0xd3 kernel/libnoninstrumentables.a.p/generic_src_synch_spinlock.c.o
                0xffffffff8014a7f0                spinlock_lock
 *fill*         0xffffffff8014a8c3        0xd 
 .text.spinlock_unlock
                0xffffffff8014a8d0       0xae kernel/libnoninstrumentables.a.p/generic_src_synch_spinlock.c.o
                0xffffffff8014a8d0                spinlock_unlock
 *fill*         0xffffffff8014a97e        0x2 
 .text.spinlock_trylock
                0xffffffff8014a980       0x6b kernel/libnoninstrumentables.a.p/generic_src_synch_spinlock.c.o
                0xffffffff8014a980                spinlock_trylock
 *fill*         0xffffffff8014a9eb        0x5 
 .text.spinlock_locked
                0xffffffff8014a9f0       0x1d kernel/libnoninstrumentables.a.p/generic_src_synch_spinlock.c.o
                0xffffffff8014a9f0                spinlock_locked
 *fill*         0xffffffff8014aa0d        0x3 
 .text.waitq_destroy
                0xffffffff8014aa10       0x14 kernel/libnoninstrumentables.a.p/generic_src_synch_syswaitq.c.o
 *fill*         0xffffffff8014aa24        0xc 
 .text.waitq_cap_cleanup_cb
                0xffffffff8014aa30       0x41 kernel/libnoninstrumentables.a.p/generic_src_synch_syswaitq.c.o
 *fill*         0xffffffff8014aa71        0xf 
 .text.sys_waitq_init
                0xffffffff8014aa80       0x28 kernel/libnoninstrumentables.a.p/generic_src_synch_syswaitq.c.o
                0xffffffff8014aa80                sys_waitq_init
 *fill*         0xffffffff8014aaa8        0x8 
 .text.sys_waitq_task_cleanup
                0xffffffff8014aab0       0x25 kernel/libnoninstrumentables.a.p/generic_src_synch_syswaitq.c.o
                0xffffffff8014aab0                sys_waitq_task_cleanup
 *fill*         0xffffffff8014aad5        0xb 
 .text.sys_waitq_create
                0xffffffff8014aae0      0x11e kernel/libnoninstrumentables.a.p/generic_src_synch_syswaitq.c.o
                0xffffffff8014aae0                sys_waitq_create
 *fill*         0xffffffff8014abfe        0x2 
 .text.sys_waitq_destroy
                0xffffffff8014ac00       0x5a kernel/libnoninstrumentables.a.p/generic_src_synch_syswaitq.c.o
                0xffffffff8014ac00                sys_waitq_destroy
 *fill*         0xffffffff8014ac5a        0x6 
 .text.sys_waitq_sleep
                0xffffffff8014ac60       0x7d kernel/libnoninstrumentables.a.p/generic_src_synch_syswaitq.c.o
                0xffffffff8014ac60                sys_waitq_sleep
 *fill*         0xffffffff8014acdd        0x3 
 .text.sys_waitq_wakeup
                0xffffffff8014ace0       0x4f kernel/libnoninstrumentables.a.p/generic_src_synch_syswaitq.c.o
                0xffffffff8014ace0                sys_waitq_wakeup
 *fill*         0xffffffff8014ad2f        0x1 
 .text._waitq_sleep_timeout.part.0
                0xffffffff8014ad30       0x41 kernel/libnoninstrumentables.a.p/generic_src_synch_waitq.c.o
 *fill*         0xffffffff8014ad71        0xf 
 .text.waitq_initialize
                0xffffffff8014ad80       0x3c kernel/libnoninstrumentables.a.p/generic_src_synch_waitq.c.o
                0xffffffff8014ad80                waitq_initialize
 *fill*         0xffffffff8014adbc        0x4 
 .text.waitq_initialize_with_count
                0xffffffff8014adc0       0x4b kernel/libnoninstrumentables.a.p/generic_src_synch_waitq.c.o
                0xffffffff8014adc0                waitq_initialize_with_count
 *fill*         0xffffffff8014ae0b        0x5 
 .text.waitq_sleep_prepare
                0xffffffff8014ae10       0x1f kernel/libnoninstrumentables.a.p/generic_src_synch_waitq.c.o
                0xffffffff8014ae10                waitq_sleep_prepare
 *fill*         0xffffffff8014ae2f        0x1 
 .text.waitq_sleep_timeout_unsafe
                0xffffffff8014ae30      0x1d0 kernel/libnoninstrumentables.a.p/generic_src_synch_waitq.c.o
                0xffffffff8014ae30                waitq_sleep_timeout_unsafe
 .text._waitq_sleep_timeout
                0xffffffff8014b000       0x6e kernel/libnoninstrumentables.a.p/generic_src_synch_waitq.c.o
                0xffffffff8014b000                _waitq_sleep_timeout
 *fill*         0xffffffff8014b06e        0x2 
 .text.waitq_sleep_unsafe
                0xffffffff8014b070       0x11 kernel/libnoninstrumentables.a.p/generic_src_synch_waitq.c.o
                0xffffffff8014b070                waitq_sleep_unsafe
 *fill*         0xffffffff8014b081        0xf 
 .text.waitq_sleep
                0xffffffff8014b090       0x4e kernel/libnoninstrumentables.a.p/generic_src_synch_waitq.c.o
                0xffffffff8014b090                waitq_sleep
 *fill*         0xffffffff8014b0de        0x2 
 .text.waitq_sleep_timeout
                0xffffffff8014b0e0       0x60 kernel/libnoninstrumentables.a.p/generic_src_synch_waitq.c.o
                0xffffffff8014b0e0                waitq_sleep_timeout
 .text.waitq_wake_one
                0xffffffff8014b140       0x7f kernel/libnoninstrumentables.a.p/generic_src_synch_waitq.c.o
                0xffffffff8014b140                waitq_wake_one
 *fill*         0xffffffff8014b1bf        0x1 
 .text.waitq_close
                0xffffffff8014b1c0       0x7b kernel/libnoninstrumentables.a.p/generic_src_synch_waitq.c.o
                0xffffffff8014b1c0                waitq_close
 *fill*         0xffffffff8014b23b        0x5 
 .text.waitq_wake_all
                0xffffffff8014b240       0x73 kernel/libnoninstrumentables.a.p/generic_src_synch_waitq.c.o
                0xffffffff8014b240                waitq_wake_all
 *fill*         0xffffffff8014b2b3        0xd 
 .text.copy_from_uspace
                0xffffffff8014b2c0      0x137 kernel/libnoninstrumentables.a.p/generic_src_syscall_copy.c.o
                0xffffffff8014b2c0                copy_from_uspace
 *fill*         0xffffffff8014b3f7        0x9 
 .text.copy_to_uspace
                0xffffffff8014b400      0x137 kernel/libnoninstrumentables.a.p/generic_src_syscall_copy.c.o
                0xffffffff8014b400                copy_to_uspace
 *fill*         0xffffffff8014b537        0x9 
 .text.syscall_handler
                0xffffffff8014b540      0x1ba kernel/libnoninstrumentables.a.p/generic_src_syscall_syscall.c.o
                0xffffffff8014b540                syscall_handler
 *fill*         0xffffffff8014b6fa        0x6 
 .text.produce_stats_ipcc_cb
                0xffffffff8014b700       0xbb kernel/libnoninstrumentables.a.p/generic_src_sysinfo_stats.c.o
 *fill*         0xffffffff8014b7bb        0x5 
 .text.get_stats_load
                0xffffffff8014b7c0       0x74 kernel/libnoninstrumentables.a.p/generic_src_sysinfo_stats.c.o
 *fill*         0xffffffff8014b834        0xc 
 .text.get_stats_cpus
                0xffffffff8014b840       0xce kernel/libnoninstrumentables.a.p/generic_src_sysinfo_stats.c.o
 *fill*         0xffffffff8014b90e        0x2 
 .text.get_stats_exception
                0xffffffff8014b910       0xff kernel/libnoninstrumentables.a.p/generic_src_sysinfo_stats.c.o
 *fill*         0xffffffff8014ba0f        0x1 
 .text.get_stats_exceptions
                0xffffffff8014ba10       0xb8 kernel/libnoninstrumentables.a.p/generic_src_sysinfo_stats.c.o
 *fill*         0xffffffff8014bac8        0x8 
 .text.produce_stats_thread
                0xffffffff8014bad0       0xae kernel/libnoninstrumentables.a.p/generic_src_sysinfo_stats.c.o
 *fill*         0xffffffff8014bb7e        0x2 
 .text.get_stats_thread
                0xffffffff8014bb80       0xee kernel/libnoninstrumentables.a.p/generic_src_sysinfo_stats.c.o
 *fill*         0xffffffff8014bc6e        0x2 
 .text.produce_stats_task
                0xffffffff8014bc70      0x22c kernel/libnoninstrumentables.a.p/generic_src_sysinfo_stats.c.o
 *fill*         0xffffffff8014be9c        0x4 
 .text.get_stats_task
                0xffffffff8014bea0      0x101 kernel/libnoninstrumentables.a.p/generic_src_sysinfo_stats.c.o
 *fill*         0xffffffff8014bfa1        0xf 
 .text.get_stats_ipccs
                0xffffffff8014bfb0      0x15e kernel/libnoninstrumentables.a.p/generic_src_sysinfo_stats.c.o
 *fill*         0xffffffff8014c10e        0x2 
 .text.get_stats_threads
                0xffffffff8014c110       0xe2 kernel/libnoninstrumentables.a.p/generic_src_sysinfo_stats.c.o
 *fill*         0xffffffff8014c1f2        0xe 
 .text.get_stats_tasks
                0xffffffff8014c200       0xfa kernel/libnoninstrumentables.a.p/generic_src_sysinfo_stats.c.o
 *fill*         0xffffffff8014c2fa        0x6 
 .text.get_stats_physmem
                0xffffffff8014c300       0x58 kernel/libnoninstrumentables.a.p/generic_src_sysinfo_stats.c.o
 *fill*         0xffffffff8014c358        0x8 
 .text.kload    0xffffffff8014c360       0xa2 kernel/libnoninstrumentables.a.p/generic_src_sysinfo_stats.c.o
                0xffffffff8014c360                kload
 *fill*         0xffffffff8014c402        0xe 
 .text.stats_init
                0xffffffff8014c410       0xf9 kernel/libnoninstrumentables.a.p/generic_src_sysinfo_stats.c.o
                0xffffffff8014c410                stats_init
 *fill*         0xffffffff8014c509        0x7 
 .text.clock_counter_init
                0xffffffff8014c510       0xb3 kernel/libnoninstrumentables.a.p/generic_src_time_clock.c.o
                0xffffffff8014c510                clock_counter_init
 *fill*         0xffffffff8014c5c3        0xd 
 .text.clock    0xffffffff8014c5d0      0x21e kernel/libnoninstrumentables.a.p/generic_src_time_clock.c.o
                0xffffffff8014c5d0                clock
 *fill*         0xffffffff8014c7ee        0x2 
 .text.delay    0xffffffff8014c7f0       0x5e kernel/libnoninstrumentables.a.p/generic_src_time_delay.c.o
                0xffffffff8014c7f0                delay
 *fill*         0xffffffff8014c84e        0x2 
 .text.timeout_register_deadline_locked.part.0
                0xffffffff8014c850       0xcb kernel/libnoninstrumentables.a.p/generic_src_time_timeout.c.o
 *fill*         0xffffffff8014c91b        0x5 
 .text.timeout_init
                0xffffffff8014c920       0x4c kernel/libnoninstrumentables.a.p/generic_src_time_timeout.c.o
                0xffffffff8014c920                timeout_init
 *fill*         0xffffffff8014c96c        0x4 
 .text.timeout_initialize
                0xffffffff8014c970       0x1d kernel/libnoninstrumentables.a.p/generic_src_time_timeout.c.o
                0xffffffff8014c970                timeout_initialize
 *fill*         0xffffffff8014c98d        0x3 
 .text.timeout_deadline_in_usec
                0xffffffff8014c990       0x33 kernel/libnoninstrumentables.a.p/generic_src_time_timeout.c.o
                0xffffffff8014c990                timeout_deadline_in_usec
 *fill*         0xffffffff8014c9c3        0xd 
 .text.timeout_register_deadline
                0xffffffff8014c9d0       0xc8 kernel/libnoninstrumentables.a.p/generic_src_time_timeout.c.o
                0xffffffff8014c9d0                timeout_register_deadline
 *fill*         0xffffffff8014ca98        0x8 
 .text.timeout_unregister
                0xffffffff8014caa0      0x10c kernel/libnoninstrumentables.a.p/generic_src_time_timeout.c.o
                0xffffffff8014caa0                timeout_unregister
 *fill*         0xffffffff8014cbac        0x4 
 .text.cmd_physmem
                0xffffffff8014cbb0       0x10 kernel/libnoninstrumentables.a.p/generic_src_console_cmd.c.o
 .text.cmd_tlb  0xffffffff8014cbc0       0x10 kernel/libnoninstrumentables.a.p/generic_src_console_cmd.c.o
 .text.cmd_cpus
                0xffffffff8014cbd0       0x10 kernel/libnoninstrumentables.a.p/generic_src_console_cmd.c.o
 .text.cmd_version
                0xffffffff8014cbe0       0x10 kernel/libnoninstrumentables.a.p/generic_src_console_cmd.c.o
 .text.desc_help
                0xffffffff8014cbf0       0x13 kernel/libnoninstrumentables.a.p/generic_src_console_cmd.c.o
 *fill*         0xffffffff8014cc03        0xd 
 .text.cmd_pio_write_32
                0xffffffff8014cc10       0x99 kernel/libnoninstrumentables.a.p/generic_src_console_cmd.c.o
 *fill*         0xffffffff8014cca9        0x7 
 .text.cmd_pio_write_16
                0xffffffff8014ccb0       0x9b kernel/libnoninstrumentables.a.p/generic_src_console_cmd.c.o
 *fill*         0xffffffff8014cd4b        0x5 
 .text.cmd_pio_write_8
                0xffffffff8014cd50       0x9a kernel/libnoninstrumentables.a.p/generic_src_console_cmd.c.o
 *fill*         0xffffffff8014cdea        0x6 
 .text.cmd_pio_read_32
                0xffffffff8014cdf0       0x86 kernel/libnoninstrumentables.a.p/generic_src_console_cmd.c.o
 *fill*         0xffffffff8014ce76        0xa 
 .text.cmd_pio_read_16
                0xffffffff8014ce80       0x86 kernel/libnoninstrumentables.a.p/generic_src_console_cmd.c.o
 *fill*         0xffffffff8014cf06        0xa 
 .text.cmd_pio_read_8
                0xffffffff8014cf10       0x86 kernel/libnoninstrumentables.a.p/generic_src_console_cmd.c.o
 *fill*         0xffffffff8014cf96        0xa 
 .text.cmd_btrace
                0xffffffff8014cfa0       0x14 kernel/libnoninstrumentables.a.p/generic_src_console_cmd.c.o
 *fill*         0xffffffff8014cfb4        0xc 
 .text.run_test
                0xffffffff8014cfc0      0x12c kernel/libnoninstrumentables.a.p/generic_src_console_cmd.c.o
 *fill*         0xffffffff8014d0ec        0x4 
 .text.cmd_printbench
                0xffffffff8014d0f0      0x189 kernel/libnoninstrumentables.a.p/generic_src_console_cmd.c.o
 *fill*         0xffffffff8014d279        0x7 
 .text.cmd_zone
                0xffffffff8014d280       0x14 kernel/libnoninstrumentables.a.p/generic_src_console_cmd.c.o
 *fill*         0xffffffff8014d294        0xc 
 .text.cmd_zones
                0xffffffff8014d2a0       0x10 kernel/libnoninstrumentables.a.p/generic_src_console_cmd.c.o
 .text.cmd_sysinfo
                0xffffffff8014d2b0       0x12 kernel/libnoninstrumentables.a.p/generic_src_console_cmd.c.o
 *fill*         0xffffffff8014d2c2        0xe 
 .text.cmd_symaddr
                0xffffffff8014d2d0       0x14 kernel/libnoninstrumentables.a.p/generic_src_console_cmd.c.o
 *fill*         0xffffffff8014d2e4        0xc 
 .text.cmd_set4
                0xffffffff8014d2f0      0x175 kernel/libnoninstrumentables.a.p/generic_src_console_cmd.c.o
 *fill*         0xffffffff8014d465        0xb 
 .text.cmd_sched
                0xffffffff8014d470       0x10 kernel/libnoninstrumentables.a.p/generic_src_console_cmd.c.o
 .text.cmd_reboot
                0xffffffff8014d480       0x10 kernel/libnoninstrumentables.a.p/generic_src_console_cmd.c.o
 .text.cmd_kill
                0xffffffff8014d490       0x17 kernel/libnoninstrumentables.a.p/generic_src_console_cmd.c.o
 *fill*         0xffffffff8014d4a7        0x9 
 .text.cmd_ipc  0xffffffff8014d4b0       0x14 kernel/libnoninstrumentables.a.p/generic_src_console_cmd.c.o
 *fill*         0xffffffff8014d4c4        0xc 
 .text.cmd_help
                0xffffffff8014d4d0      0x115 kernel/libnoninstrumentables.a.p/generic_src_console_cmd.c.o
 *fill*         0xffffffff8014d5e5        0xb 
 .text.cmd_halt
                0xffffffff8014d5f0        0x9 kernel/libnoninstrumentables.a.p/generic_src_console_cmd.c.o
 *fill*         0xffffffff8014d5f9        0x7 
 .text.cmd_desc
                0xffffffff8014d600       0xb1 kernel/libnoninstrumentables.a.p/generic_src_console_cmd.c.o
 *fill*         0xffffffff8014d6b1        0xf 
 .text.cmd_continue
                0xffffffff8014d6c0       0x2a kernel/libnoninstrumentables.a.p/generic_src_console_cmd.c.o
 *fill*         0xffffffff8014d6ea        0x6 
 .text.cmd_call3
                0xffffffff8014d6f0      0x11b kernel/libnoninstrumentables.a.p/generic_src_console_cmd.c.o
 *fill*         0xffffffff8014d80b        0x5 
 .text.cmd_call2
                0xffffffff8014d810      0x103 kernel/libnoninstrumentables.a.p/generic_src_console_cmd.c.o
 *fill*         0xffffffff8014d913        0xd 
 .text.cmd_call1
                0xffffffff8014d920       0xf3 kernel/libnoninstrumentables.a.p/generic_src_console_cmd.c.o
 *fill*         0xffffffff8014da13        0xd 
 .text.cmd_call0
                0xffffffff8014da20       0xdb kernel/libnoninstrumentables.a.p/generic_src_console_cmd.c.o
 *fill*         0xffffffff8014dafb        0x5 
 .text.cmd_caches
                0xffffffff8014db00       0x10 kernel/libnoninstrumentables.a.p/generic_src_console_cmd.c.o
 .text.cmd_mcall0
                0xffffffff8014db10       0xe8 kernel/libnoninstrumentables.a.p/generic_src_console_cmd.c.o
 *fill*         0xffffffff8014dbf8        0x8 
 .text.run_bench.part.0
                0xffffffff8014dc00      0x270 kernel/libnoninstrumentables.a.p/generic_src_console_cmd.c.o
 .text.cmd_bench
                0xffffffff8014de70      0x10b kernel/libnoninstrumentables.a.p/generic_src_console_cmd.c.o
 *fill*         0xffffffff8014df7b        0x5 
 .text.cmd_test
                0xffffffff8014df80      0x1da kernel/libnoninstrumentables.a.p/generic_src_console_cmd.c.o
 *fill*         0xffffffff8014e15a        0x6 
 .text.cmd_uptime
                0xffffffff8014e160       0xf0 kernel/libnoninstrumentables.a.p/generic_src_console_cmd.c.o
 .text.cmd_threads
                0xffffffff8014e250       0x74 kernel/libnoninstrumentables.a.p/generic_src_console_cmd.c.o
 *fill*         0xffffffff8014e2c4        0xc 
 .text.cmd_tasks
                0xffffffff8014e2d0       0x74 kernel/libnoninstrumentables.a.p/generic_src_console_cmd.c.o
 *fill*         0xffffffff8014e344        0xc 
 .text.cmd_initialize
                0xffffffff8014e350       0x34 kernel/libnoninstrumentables.a.p/generic_src_console_cmd.c.o
                0xffffffff8014e350                cmd_initialize
 *fill*         0xffffffff8014e384        0xc 
 .text.cmd_init
                0xffffffff8014e390       0xaf kernel/libnoninstrumentables.a.p/generic_src_console_cmd.c.o
                0xffffffff8014e390                cmd_init
 *fill*         0xffffffff8014e43f        0x1 
 .text.kbox_thread_proc
                0xffffffff8014e440      0x192 kernel/libnoninstrumentables.a.p/generic_src_ipc_kbox.c.o
 *fill*         0xffffffff8014e5d2        0xe 
 .text.ipc_kbox_cleanup
                0xffffffff8014e5e0      0x11a kernel/libnoninstrumentables.a.p/generic_src_ipc_kbox.c.o
                0xffffffff8014e5e0                ipc_kbox_cleanup
 *fill*         0xffffffff8014e6fa        0x6 
 .text.ipc_connect_kbox
                0xffffffff8014e700      0x16b kernel/libnoninstrumentables.a.p/generic_src_ipc_kbox.c.o
                0xffffffff8014e700                ipc_connect_kbox
 *fill*         0xffffffff8014e86b        0x5 
 .text.udebug_task_init
                0xffffffff8014e870       0x3c kernel/libnoninstrumentables.a.p/generic_src_udebug_udebug.c.o
                0xffffffff8014e870                udebug_task_init
 *fill*         0xffffffff8014e8ac        0x4 
 .text.udebug_thread_initialize
                0xffffffff8014e8b0       0x61 kernel/libnoninstrumentables.a.p/generic_src_udebug_udebug.c.o
                0xffffffff8014e8b0                udebug_thread_initialize
 *fill*         0xffffffff8014e911        0xf 
 .text.udebug_stoppable_begin
                0xffffffff8014e920      0x22f kernel/libnoninstrumentables.a.p/generic_src_udebug_udebug.c.o
                0xffffffff8014e920                udebug_stoppable_begin
 *fill*         0xffffffff8014eb4f        0x1 
 .text.udebug_stoppable_end
                0xffffffff8014eb50      0x100 kernel/libnoninstrumentables.a.p/generic_src_udebug_udebug.c.o
                0xffffffff8014eb50                udebug_stoppable_end
 .text.udebug_before_thread_runs
                0xffffffff8014ec50        0xf kernel/libnoninstrumentables.a.p/generic_src_udebug_udebug.c.o
                0xffffffff8014ec50                udebug_before_thread_runs
 *fill*         0xffffffff8014ec5f        0x1 
 .text.udebug_syscall_event
                0xffffffff8014ec60      0x1de kernel/libnoninstrumentables.a.p/generic_src_udebug_udebug.c.o
                0xffffffff8014ec60                udebug_syscall_event
 *fill*         0xffffffff8014ee3e        0x2 
 .text.udebug_thread_b_event_attach
                0xffffffff8014ee40      0x119 kernel/libnoninstrumentables.a.p/generic_src_udebug_udebug.c.o
                0xffffffff8014ee40                udebug_thread_b_event_attach
 *fill*         0xffffffff8014ef59        0x7 
 .text.udebug_thread_e_event
                0xffffffff8014ef60       0xc9 kernel/libnoninstrumentables.a.p/generic_src_udebug_udebug.c.o
                0xffffffff8014ef60                udebug_thread_e_event
 *fill*         0xffffffff8014f029        0x7 
 .text.udebug_task_cleanup
                0xffffffff8014f030      0x17d kernel/libnoninstrumentables.a.p/generic_src_udebug_udebug.c.o
                0xffffffff8014f030                udebug_task_cleanup
 *fill*         0xffffffff8014f1ad        0x3 
 .text.udebug_thread_fault
                0xffffffff8014f1b0       0x7f kernel/libnoninstrumentables.a.p/generic_src_udebug_udebug.c.o
                0xffffffff8014f1b0                udebug_thread_fault
 *fill*         0xffffffff8014f22f        0x1 
 .text._thread_op_begin
                0xffffffff8014f230       0xe6 kernel/libnoninstrumentables.a.p/generic_src_udebug_udebug_ops.c.o
 *fill*         0xffffffff8014f316        0xa 
 .text.udebug_begin
                0xffffffff8014f320      0x162 kernel/libnoninstrumentables.a.p/generic_src_udebug_udebug_ops.c.o
                0xffffffff8014f320                udebug_begin
 *fill*         0xffffffff8014f482        0xe 
 .text.udebug_end
                0xffffffff8014f490       0x54 kernel/libnoninstrumentables.a.p/generic_src_udebug_udebug_ops.c.o
                0xffffffff8014f490                udebug_end
 *fill*         0xffffffff8014f4e4        0xc 
 .text.udebug_set_evmask
                0xffffffff8014f4f0       0x7b kernel/libnoninstrumentables.a.p/generic_src_udebug_udebug_ops.c.o
                0xffffffff8014f4f0                udebug_set_evmask
 *fill*         0xffffffff8014f56b        0x5 
 .text.udebug_go
                0xffffffff8014f570      0x132 kernel/libnoninstrumentables.a.p/generic_src_udebug_udebug_ops.c.o
                0xffffffff8014f570                udebug_go
 *fill*         0xffffffff8014f6a2        0xe 
 .text.udebug_stop
                0xffffffff8014f6b0       0xfd kernel/libnoninstrumentables.a.p/generic_src_udebug_udebug_ops.c.o
                0xffffffff8014f6b0                udebug_stop
 *fill*         0xffffffff8014f7ad        0x3 
 .text.udebug_thread_read
                0xffffffff8014f7b0      0x177 kernel/libnoninstrumentables.a.p/generic_src_udebug_udebug_ops.c.o
                0xffffffff8014f7b0                udebug_thread_read
 *fill*         0xffffffff8014f927        0x9 
 .text.udebug_name_read
                0xffffffff8014f930       0x7c kernel/libnoninstrumentables.a.p/generic_src_udebug_udebug_ops.c.o
                0xffffffff8014f930                udebug_name_read
 *fill*         0xffffffff8014f9ac        0x4 
 .text.udebug_args_read
                0xffffffff8014f9b0      0x100 kernel/libnoninstrumentables.a.p/generic_src_udebug_udebug_ops.c.o
                0xffffffff8014f9b0                udebug_args_read
 .text.udebug_regs_read
                0xffffffff8014fab0       0xf0 kernel/libnoninstrumentables.a.p/generic_src_udebug_udebug_ops.c.o
                0xffffffff8014fab0                udebug_regs_read
 .text.udebug_mem_read
                0xffffffff8014fba0       0xd3 kernel/libnoninstrumentables.a.p/generic_src_udebug_udebug_ops.c.o
                0xffffffff8014fba0                udebug_mem_read
 *fill*         0xffffffff8014fc73        0xd 
 .text.udebug_request_preprocess
                0xffffffff8014fc80        0x8 kernel/libnoninstrumentables.a.p/generic_src_udebug_udebug_ipc.c.o
                0xffffffff8014fc80                udebug_request_preprocess
 *fill*         0xffffffff8014fc88        0x8 
 .text.udebug_call_receive
                0xffffffff8014fc90      0x391 kernel/libnoninstrumentables.a.p/generic_src_udebug_udebug_ipc.c.o
                0xffffffff8014fc90                udebug_call_receive
 *fill*         0xffffffff80150021        0xf 
 .text.tests_hints_enum
                0xffffffff80150030       0xcc kernel/libnoninstrumentables.a.p/test_test.c.o
                0xffffffff80150030                tests_hints_enum
 *fill*         0xffffffff801500fc        0x4 
 .text.test_atomic1
                0xffffffff80150100       0xc7 kernel/libnoninstrumentables.a.p/test_atomic_atomic1.c.o
                0xffffffff80150100                test_atomic1
 *fill*         0xffffffff801501c7        0x9 
 .text.test_fault1
                0xffffffff801501d0       0x18 kernel/libnoninstrumentables.a.p/test_fault_fault1.c.o
                0xffffffff801501d0                test_fault1
 *fill*         0xffffffff801501e8        0x8 
 .text.test_falloc1
                0xffffffff801501f0      0x2a7 kernel/libnoninstrumentables.a.p/test_mm_falloc1.c.o
                0xffffffff801501f0                test_falloc1
 *fill*         0xffffffff80150497        0x9 
 .text.falloc   0xffffffff801504a0      0x2df kernel/libnoninstrumentables.a.p/test_mm_falloc2.c.o
 *fill*         0xffffffff8015077f        0x1 
 .text.test_falloc2
                0xffffffff80150780      0x10f kernel/libnoninstrumentables.a.p/test_mm_falloc2.c.o
                0xffffffff80150780                test_falloc2
 *fill*         0xffffffff8015088f        0x1 
 .text.test_mapping1
                0xffffffff80150890      0x293 kernel/libnoninstrumentables.a.p/test_mm_mapping1.c.o
                0xffffffff80150890                test_mapping1
 *fill*         0xffffffff80150b23        0xd 
 .text.slabtest
                0xffffffff80150b30      0x448 kernel/libnoninstrumentables.a.p/test_mm_slab1.c.o
 *fill*         0xffffffff80150f78        0x8 
 .text.testit.constprop.0
                0xffffffff80150f80      0x503 kernel/libnoninstrumentables.a.p/test_mm_slab1.c.o
 *fill*         0xffffffff80151483        0xd 
 .text.testit.constprop.2
                0xffffffff80151490      0x50b kernel/libnoninstrumentables.a.p/test_mm_slab1.c.o
 *fill*         0xffffffff8015199b        0x5 
 .text.test_slab1
                0xffffffff801519a0      0x66b kernel/libnoninstrumentables.a.p/test_mm_slab1.c.o
                0xffffffff801519a0                test_slab1
 *fill*         0xffffffff8015200b        0x5 
 .text.totalmemtest
                0xffffffff80152010      0x2a9 kernel/libnoninstrumentables.a.p/test_mm_slab2.c.o
 *fill*         0xffffffff801522b9        0x7 
 .text.multitest
                0xffffffff801522c0      0x158 kernel/libnoninstrumentables.a.p/test_mm_slab2.c.o
 *fill*         0xffffffff80152418        0x8 
 .text.slabtest
                0xffffffff80152420      0x207 kernel/libnoninstrumentables.a.p/test_mm_slab2.c.o
 *fill*         0xffffffff80152627        0x9 
 .text.test_slab2
                0xffffffff80152630       0x98 kernel/libnoninstrumentables.a.p/test_mm_slab2.c.o
                0xffffffff80152630                test_slab2
 *fill*         0xffffffff801526c8        0x8 
 .text.producer
                0xffffffff801526d0       0x3b kernel/libnoninstrumentables.a.p/test_synch_semaphore1.c.o
 *fill*         0xffffffff8015270b        0x5 
 .text.consumer
                0xffffffff80152710       0x3b kernel/libnoninstrumentables.a.p/test_synch_semaphore1.c.o
 *fill*         0xffffffff8015274b        0x5 
 .text.test_semaphore1
                0xffffffff80152750      0x253 kernel/libnoninstrumentables.a.p/test_synch_semaphore1.c.o
                0xffffffff80152750                test_semaphore1
 *fill*         0xffffffff801529a3        0xd 
 .text.consumer
                0xffffffff801529b0      0x1f3 kernel/libnoninstrumentables.a.p/test_synch_semaphore2.c.o
 *fill*         0xffffffff80152ba3        0xd 
 .text.test_semaphore2
                0xffffffff80152bb0      0x14f kernel/libnoninstrumentables.a.p/test_synch_semaphore2.c.o
                0xffffffff80152bb0                test_semaphore2
 *fill*         0xffffffff80152cff        0x1 
 .text.test_print1
                0xffffffff80152d00      0x1c7 kernel/libnoninstrumentables.a.p/test_print_print1.c.o
                0xffffffff80152d00                test_print1
 *fill*         0xffffffff80152ec7        0x9 
 .text.test_print2
                0xffffffff80152ed0      0x2fe kernel/libnoninstrumentables.a.p/test_print_print2.c.o
                0xffffffff80152ed0                test_print2
 *fill*         0xffffffff801531ce        0x2 
 .text.test_print3
                0xffffffff801531d0      0x1ef kernel/libnoninstrumentables.a.p/test_print_print3.c.o
                0xffffffff801531d0                test_print3
 *fill*         0xffffffff801533bf        0x1 
 .text.test_print4
                0xffffffff801533c0      0x3da kernel/libnoninstrumentables.a.p/test_print_print4.c.o
                0xffffffff801533c0                test_print4
 *fill*         0xffffffff8015379a        0x6 
 .text.test_print5
                0xffffffff801537a0       0xba kernel/libnoninstrumentables.a.p/test_print_print5.c.o
                0xffffffff801537a0                test_print5
 *fill*         0xffffffff8015385a        0x6 
 .text.threadtest
                0xffffffff80153860       0x5e kernel/libnoninstrumentables.a.p/test_thread_thread1.c.o
 *fill*         0xffffffff801538be        0x2 
 .text.test_thread1
                0xffffffff801538c0      0x126 kernel/libnoninstrumentables.a.p/test_thread_thread1.c.o
                0xffffffff801538c0                test_thread1
 *fill*         0xffffffff801539e6        0xa 
 .text.test_mips1
                0xffffffff801539f0        0x8 kernel/libnoninstrumentables.a.p/test_debug_mips1_skip.c.o
                0xffffffff801539f0                test_mips1
                0xffffffff801539f8                ktext_end = .

.eh_frame_hdr   0xffffffff801539f8     0x1bfc load address 0x00000000001539f8
                0xffffffff801539f8                eh_frame_hdr_start = .
 *(.eh_frame_hdr)
 .eh_frame_hdr  0xffffffff801539f8     0x1bfc kernel/libinstrumentables.a.p/generic_src_cpu_cpu.c.o
                0xffffffff801539f8                __GNU_EH_FRAME_HDR
 *(.eh_frame_entry .eh_frame_entry.*)
                0xffffffff801555f4                eh_frame_hdr_end = .

.eh_frame       0xffffffff801555f8     0x9a60 load address 0x00000000001555f8
                0xffffffff801555f8                eh_frame_start = .
 *(.eh_frame .eh_frame.*)
 .eh_frame      0xffffffff801555f8       0x80 kernel/libinstrumentables.a.p/generic_src_cpu_cpu.c.o
 .eh_frame      0xffffffff80155678      0x250 kernel/libinstrumentables.a.p/generic_src_ddi_ddi.c.o
                                        0x268 (size before relaxing)
 .eh_frame      0xffffffff801558c8      0x168 kernel/libinstrumentables.a.p/generic_src_interrupt_interrupt.c.o
                                        0x180 (size before relaxing)
 .eh_frame      0xffffffff80155a30       0x38 kernel/libinstrumentables.a.p/generic_src_main_kinit.c.o
                                         0x50 (size before relaxing)
 .eh_frame      0xffffffff80155a68       0x70 kernel/libinstrumentables.a.p/generic_src_main_main.c.o
                                         0x88 (size before relaxing)
 .eh_frame      0xffffffff80155ad8      0x788 kernel/libinstrumentables.a.p/generic_src_mm_as.c.o
                                        0x8e0 (size before relaxing)
 .eh_frame      0xffffffff80156260      0x578 kernel/libinstrumentables.a.p/generic_src_mm_frame.c.o
                                        0x5e8 (size before relaxing)
 .eh_frame      0xffffffff801567d8      0x130 kernel/libinstrumentables.a.p/generic_src_mm_page.c.o
                                        0x168 (size before relaxing)
 .eh_frame      0xffffffff80156908      0x2e0 kernel/libinstrumentables.a.p/generic_src_mm_slab.c.o
                                        0x2f8 (size before relaxing)
 .eh_frame      0xffffffff80156be8       0xa8 kernel/libinstrumentables.a.p/generic_src_mm_tlb.c.o
                                         0xe0 (size before relaxing)
 .eh_frame      0xffffffff80156c90       0x40 kernel/libinstrumentables.a.p/generic_src_proc_current.c.o
                                         0x58 (size before relaxing)
 .eh_frame      0xffffffff80156cd0      0x398 kernel/libinstrumentables.a.p/generic_src_sysinfo_sysinfo.c.o
                                        0x410 (size before relaxing)
 .eh_frame      0xffffffff80157068      0x170 kernel/libinstrumentables.a.p/generic_src_console_kconsole.c.o
                                        0x188 (size before relaxing)
 .eh_frame      0xffffffff801571d8      0x180 kernel/libnoninstrumentables.a.p/arch_amd64_src_amd64.c.o
                                        0x198 (size before relaxing)
 .eh_frame      0xffffffff80157358       0x20 kernel/libnoninstrumentables.a.p/arch_amd64_src_bios_bios.c.o
                                         0x38 (size before relaxing)
 .eh_frame      0xffffffff80157378       0xd0 kernel/libnoninstrumentables.a.p/arch_amd64_src_cpu_cpu.c.o
                                         0xe8 (size before relaxing)
 .eh_frame      0xffffffff80157448       0x38 kernel/libnoninstrumentables.a.p/arch_amd64_src_ddi_ddi.c.o
                                         0x50 (size before relaxing)
 .eh_frame      0xffffffff80157480       0xc0 kernel/libnoninstrumentables.a.p/arch_amd64_src_debug_stacktrace.c.o
                                         0xd8 (size before relaxing)
 .eh_frame      0xffffffff80157540       0xc0 kernel/libnoninstrumentables.a.p/arch_amd64_src_drivers_i8254.c.o
                                         0xd8 (size before relaxing)
 .eh_frame      0xffffffff80157600       0x60 kernel/libnoninstrumentables.a.p/arch_amd64_src_fpu_context.c.o
                                         0x78 (size before relaxing)
 .eh_frame      0xffffffff80157660      0x190 kernel/libnoninstrumentables.a.p/arch_amd64_src_interrupt.c.o
                                        0x1a8 (size before relaxing)
 .eh_frame      0xffffffff801577f0       0x28 kernel/libnoninstrumentables.a.p/arch_amd64_src_kseg.c.o
                                         0x40 (size before relaxing)
 .eh_frame      0xffffffff80157818       0x20 kernel/libnoninstrumentables.a.p/arch_amd64_src_mm_as.c.o
                                         0x38 (size before relaxing)
 .eh_frame      0xffffffff80157838       0xb8 kernel/libnoninstrumentables.a.p/arch_amd64_src_mm_frame.c.o
                                         0xd0 (size before relaxing)
 .eh_frame      0xffffffff801578f0       0x60 kernel/libnoninstrumentables.a.p/arch_amd64_src_mm_km.c.o
                                         0x78 (size before relaxing)
 .eh_frame      0xffffffff80157950       0x40 kernel/libnoninstrumentables.a.p/arch_amd64_src_mm_page.c.o
                                         0x58 (size before relaxing)
 .eh_frame      0xffffffff80157990       0xa0 kernel/libnoninstrumentables.a.p/arch_amd64_src_mm_tlb.c.o
                                         0xb8 (size before relaxing)
 .eh_frame      0xffffffff80157a30       0x68 kernel/libnoninstrumentables.a.p/arch_amd64_src_pm.c.o
                                         0xe0 (size before relaxing)
 .eh_frame      0xffffffff80157a98       0x60 kernel/libnoninstrumentables.a.p/arch_amd64_src_proc_scheduler.c.o
                                         0x78 (size before relaxing)
 .eh_frame      0xffffffff80157af8       0x48 kernel/libnoninstrumentables.a.p/arch_amd64_src_proc_task.c.o
                                         0x60 (size before relaxing)
 .eh_frame      0xffffffff80157b40       0x20 kernel/libnoninstrumentables.a.p/arch_amd64_src_proc_thread.c.o
                                         0x38 (size before relaxing)
 .eh_frame      0xffffffff80157b60       0x20 kernel/libnoninstrumentables.a.p/arch_amd64_src_smc.c.o
                                         0x38 (size before relaxing)
 .eh_frame      0xffffffff80157b80       0x20 kernel/libnoninstrumentables.a.p/arch_amd64_src_syscall.c.o
                                         0x38 (size before relaxing)
 .eh_frame      0xffffffff80157ba0       0x40 kernel/libnoninstrumentables.a.p/arch_amd64_src_userspace.c.o
                                         0x58 (size before relaxing)
 .eh_frame      0xffffffff80157be0       0x28 kernel/libnoninstrumentables.a.p/arch_amd64_src_vreg.c.o
                                         0x40 (size before relaxing)
 .eh_frame      0xffffffff80157c08      0x258 kernel/libnoninstrumentables.a.p/arch_amd64_src_smp_apic.c.o
                                        0x2f0 (size before relaxing)
 .eh_frame      0xffffffff80157e60       0x20 kernel/libnoninstrumentables.a.p/arch_amd64_src_smp_ipi.c.o
                                         0x38 (size before relaxing)
 .eh_frame      0xffffffff80157e80       0xc8 kernel/libnoninstrumentables.a.p/arch_amd64_src_smp_mps.c.o
                                         0xe0 (size before relaxing)
 .eh_frame      0xffffffff80157f48       0x78 kernel/libnoninstrumentables.a.p/arch_amd64_src_smp_smp.c.o
                                         0x90 (size before relaxing)
 .eh_frame      0xffffffff80157fc0       0x50 kernel/libnoninstrumentables.a.p/genarch_src_acpi_acpi.c.o
                                         0xb0 (size before relaxing)
 .eh_frame      0xffffffff80158010       0xc8 kernel/libnoninstrumentables.a.p/genarch_src_acpi_madt.c.o
                                         0xe0 (size before relaxing)
 .eh_frame      0xffffffff801580d8      0x138 kernel/libnoninstrumentables.a.p/genarch_src_mm_page_pt.c.o
                                        0x150 (size before relaxing)
 .eh_frame      0xffffffff80158210       0xc8 kernel/libnoninstrumentables.a.p/genarch_src_mm_as_pt.c.o
                                         0xe0 (size before relaxing)
 .eh_frame      0xffffffff801582d8       0x28 kernel/libnoninstrumentables.a.p/genarch_src_fb_font-8x16.c.o
                                         0x40 (size before relaxing)
 .eh_frame      0xffffffff80158300      0x2e8 kernel/libnoninstrumentables.a.p/genarch_src_fb_fb.c.o
                                        0x300 (size before relaxing)
 .eh_frame      0xffffffff801585e8       0x30 kernel/libnoninstrumentables.a.p/genarch_src_fb_bfb.c.o
                                         0x48 (size before relaxing)
 .eh_frame      0xffffffff80158618       0xf0 kernel/libnoninstrumentables.a.p/genarch_src_drivers_i8042_i8042.c.o
                                        0x108 (size before relaxing)
 .eh_frame      0xffffffff80158708      0x128 kernel/libnoninstrumentables.a.p/genarch_src_drivers_i8259_i8259.c.o
                                        0x140 (size before relaxing)
 .eh_frame      0xffffffff80158830      0x140 kernel/libnoninstrumentables.a.p/genarch_src_drivers_ns16550_ns16550.c.o
                                        0x158 (size before relaxing)
 .eh_frame      0xffffffff80158970        0x0 kernel/libnoninstrumentables.a.p/genarch_src_drivers_pl011_pl011.c.o
                                        0x110 (size before relaxing)
 .eh_frame      0xffffffff80158970       0x78 kernel/libnoninstrumentables.a.p/genarch_src_kbrd_kbrd.c.o
                                         0x90 (size before relaxing)
 .eh_frame      0xffffffff801589e8       0x78 kernel/libnoninstrumentables.a.p/genarch_src_srln_srln.c.o
                                         0x90 (size before relaxing)
 .eh_frame      0xffffffff80158a60       0x20 kernel/libnoninstrumentables.a.p/genarch_src_multiboot_common.c.o
                                         0x38 (size before relaxing)
 .eh_frame      0xffffffff80158a80       0xc8 kernel/libnoninstrumentables.a.p/genarch_src_multiboot_multiboot.c.o
                                         0xe0 (size before relaxing)
 .eh_frame      0xffffffff80158b48       0x40 kernel/libnoninstrumentables.a.p/genarch_src_multiboot_multiboot2.c.o
                                         0x58 (size before relaxing)
 .eh_frame      0xffffffff80158b88       0xf0 kernel/libnoninstrumentables.a.p/genarch_src_drivers_ega_ega.c.o
                                        0x108 (size before relaxing)
 .eh_frame      0xffffffff80158c78       0x58 kernel/libnoninstrumentables.a.p/genarch_src_ddi_ddi-bitmap.c.o
                                         0x70 (size before relaxing)
 .eh_frame      0xffffffff80158cd0       0xe8 kernel/libnoninstrumentables.a.p/generic_common_adt_bitmap.c.o
                                        0x100 (size before relaxing)
 .eh_frame      0xffffffff80158db8      0x1e8 kernel/libnoninstrumentables.a.p/generic_common_adt_hash_table.c.o
                                        0x340 (size before relaxing)
 .eh_frame      0xffffffff80158fa0       0x20 kernel/libnoninstrumentables.a.p/generic_common_adt_list.c.o
                                         0x80 (size before relaxing)
 .eh_frame      0xffffffff80158fc0      0x390 kernel/libnoninstrumentables.a.p/generic_common_adt_odict.c.o
                                        0x5b0 (size before relaxing)
 .eh_frame      0xffffffff80159350       0x40 kernel/libnoninstrumentables.a.p/generic_common_printf_printf_core.c.o
                                         0x58 (size before relaxing)
 .eh_frame      0xffffffff80159390       0x28 kernel/libnoninstrumentables.a.p/generic_common_stdc_calloc.c.o
                                         0x40 (size before relaxing)
 .eh_frame      0xffffffff801593b8       0x88 kernel/libnoninstrumentables.a.p/generic_common_stdc_ctype.c.o
                                        0x1f0 (size before relaxing)
 .eh_frame      0xffffffff80159440       0x80 kernel/libnoninstrumentables.a.p/generic_common_stdc_mem.c.o
                                         0xe8 (size before relaxing)
 .eh_frame      0xffffffff801594c0       0x40 kernel/libnoninstrumentables.a.p/generic_common_gsort.c.o
                                         0x58 (size before relaxing)
 .eh_frame      0xffffffff80159500      0x3c8 kernel/libnoninstrumentables.a.p/generic_common_str.c.o
                                        0x910 (size before relaxing)
 .eh_frame      0xffffffff801598c8       0x50 kernel/libnoninstrumentables.a.p/generic_common_str_error.c.o
                                         0x68 (size before relaxing)
 .eh_frame      0xffffffff80159918       0x88 kernel/libnoninstrumentables.a.p/generic_common_strtol.c.o
                                        0x360 (size before relaxing)
 .eh_frame      0xffffffff801599a0      0x310 kernel/libnoninstrumentables.a.p/generic_src_cap_cap.c.o
                                        0x360 (size before relaxing)
 .eh_frame      0xffffffff80159cb0      0x110 kernel/libnoninstrumentables.a.p/generic_src_console_chardev.c.o
                                        0x128 (size before relaxing)
 .eh_frame      0xffffffff80159dc0      0x278 kernel/libnoninstrumentables.a.p/generic_src_console_console.c.o
                                        0x2b8 (size before relaxing)
 .eh_frame      0xffffffff8015a038       0x60 kernel/libnoninstrumentables.a.p/generic_src_console_prompt.c.o
                                         0x78 (size before relaxing)
 .eh_frame      0xffffffff8015a098        0x0 kernel/libnoninstrumentables.a.p/generic_src_cpu_cpu_mask.c.o
                                        0x160 (size before relaxing)
 .eh_frame      0xffffffff8015a098      0x130 kernel/libnoninstrumentables.a.p/generic_src_ddi_irq.c.o
                                        0x148 (size before relaxing)
 .eh_frame      0xffffffff8015a1c8      0x198 kernel/libnoninstrumentables.a.p/generic_src_debug_line.c.o
                                        0x1b0 (size before relaxing)
 .eh_frame      0xffffffff8015a360       0xa0 kernel/libnoninstrumentables.a.p/generic_src_debug_names.c.o
                                        0x418 (size before relaxing)
 .eh_frame      0xffffffff8015a400       0x28 kernel/libnoninstrumentables.a.p/generic_src_debug_panic.c.o
                                         0x40 (size before relaxing)
 .eh_frame      0xffffffff8015a428       0x60 kernel/libnoninstrumentables.a.p/generic_src_debug_sections.c.o
                                         0x78 (size before relaxing)
 .eh_frame      0xffffffff8015a488       0xe8 kernel/libnoninstrumentables.a.p/generic_src_debug_stacktrace.c.o
                                        0x100 (size before relaxing)
 .eh_frame      0xffffffff8015a570      0x158 kernel/libnoninstrumentables.a.p/generic_src_debug_symtab.c.o
                                        0x170 (size before relaxing)
 .eh_frame      0xffffffff8015a6c8       0xf0 kernel/libnoninstrumentables.a.p/generic_src_debug_util.c.o
                                        0x128 (size before relaxing)
 .eh_frame      0xffffffff8015a7b8      0x190 kernel/libnoninstrumentables.a.p/generic_src_ipc_event.c.o
                                        0x1d0 (size before relaxing)
 .eh_frame      0xffffffff8015a948      0x4f8 kernel/libnoninstrumentables.a.p/generic_src_ipc_ipc.c.o
                                        0x510 (size before relaxing)
 .eh_frame      0xffffffff8015ae40       0x58 kernel/libnoninstrumentables.a.p/generic_src_ipc_ipcrsc.c.o
                                         0xa0 (size before relaxing)
 .eh_frame      0xffffffff8015ae98      0x100 kernel/libnoninstrumentables.a.p/generic_src_ipc_irq.c.o
                                        0x150 (size before relaxing)
 .eh_frame      0xffffffff8015af98       0xb0 kernel/libnoninstrumentables.a.p/generic_src_ipc_ops_conctmeto.c.o
                                         0xc8 (size before relaxing)
 .eh_frame      0xffffffff8015b048       0x80 kernel/libnoninstrumentables.a.p/generic_src_ipc_ops_concttome.c.o
                                         0x98 (size before relaxing)
 .eh_frame      0xffffffff8015b0c8       0x70 kernel/libnoninstrumentables.a.p/generic_src_ipc_ops_dataread.c.o
                                         0x88 (size before relaxing)
 .eh_frame      0xffffffff8015b138       0x60 kernel/libnoninstrumentables.a.p/generic_src_ipc_ops_datawrite.c.o
                                         0x78 (size before relaxing)
 .eh_frame      0xffffffff8015b198       0x48 kernel/libnoninstrumentables.a.p/generic_src_ipc_ops_debug.c.o
                                         0x60 (size before relaxing)
 .eh_frame      0xffffffff8015b1e0       0x70 kernel/libnoninstrumentables.a.p/generic_src_ipc_ops_pagein.c.o
                                         0x88 (size before relaxing)
 .eh_frame      0xffffffff8015b250       0x30 kernel/libnoninstrumentables.a.p/generic_src_ipc_ops_sharein.c.o
                                         0x48 (size before relaxing)
 .eh_frame      0xffffffff8015b280       0x58 kernel/libnoninstrumentables.a.p/generic_src_ipc_ops_shareout.c.o
                                         0x70 (size before relaxing)
 .eh_frame      0xffffffff8015b2d8       0x70 kernel/libnoninstrumentables.a.p/generic_src_ipc_ops_stchngath.c.o
                                         0x88 (size before relaxing)
 .eh_frame      0xffffffff8015b348      0x2e8 kernel/libnoninstrumentables.a.p/generic_src_ipc_sysipc.c.o
                                        0x300 (size before relaxing)
 .eh_frame      0xffffffff8015b630       0xe8 kernel/libnoninstrumentables.a.p/generic_src_ipc_sysipc_ops.c.o
                                        0x100 (size before relaxing)
 .eh_frame      0xffffffff8015b718       0x40 kernel/libnoninstrumentables.a.p/generic_src_lib_elf.c.o
                                         0x58 (size before relaxing)
 .eh_frame      0xffffffff8015b758       0x20 kernel/libnoninstrumentables.a.p/generic_src_lib_halt.c.o
                                         0x38 (size before relaxing)
 .eh_frame      0xffffffff8015b778       0x48 kernel/libnoninstrumentables.a.p/generic_src_lib_mem.c.o
                                         0x60 (size before relaxing)
 .eh_frame      0xffffffff8015b7c0      0x190 kernel/libnoninstrumentables.a.p/generic_src_lib_ra.c.o
                                        0x1a8 (size before relaxing)
 .eh_frame      0xffffffff8015b950       0x30 kernel/libnoninstrumentables.a.p/generic_src_lib_rd.c.o
                                         0x48 (size before relaxing)
 .eh_frame      0xffffffff8015b980        0x0 kernel/libnoninstrumentables.a.p/generic_src_lib_ubsan.c.o
                                        0x258 (size before relaxing)
 .eh_frame      0xffffffff8015b980      0x1d0 kernel/libnoninstrumentables.a.p/generic_src_log_log.c.o
                                        0x208 (size before relaxing)
 .eh_frame      0xffffffff8015bb50       0x20 kernel/libnoninstrumentables.a.p/generic_src_main_shutdown.c.o
                                         0x38 (size before relaxing)
 .eh_frame      0xffffffff8015bb70       0x20 kernel/libnoninstrumentables.a.p/generic_src_main_uinit.c.o
                                         0x38 (size before relaxing)
 .eh_frame      0xffffffff8015bb90       0x20 kernel/libnoninstrumentables.a.p/generic_src_main_version.c.o
                                         0x38 (size before relaxing)
 .eh_frame      0xffffffff8015bbb0      0x168 kernel/libnoninstrumentables.a.p/generic_src_mm_backend_anon.c.o
                                        0x180 (size before relaxing)
 .eh_frame      0xffffffff8015bd18      0x170 kernel/libnoninstrumentables.a.p/generic_src_mm_backend_elf.c.o
                                        0x188 (size before relaxing)
 .eh_frame      0xffffffff8015be88      0x130 kernel/libnoninstrumentables.a.p/generic_src_mm_backend_phys.c.o
                                        0x148 (size before relaxing)
 .eh_frame      0xffffffff8015bfb8       0xf0 kernel/libnoninstrumentables.a.p/generic_src_mm_backend_user.c.o
                                        0x108 (size before relaxing)
 .eh_frame      0xffffffff8015c0a8      0x1a8 kernel/libnoninstrumentables.a.p/generic_src_mm_km.c.o
                                        0x200 (size before relaxing)
 .eh_frame      0xffffffff8015c250       0x80 kernel/libnoninstrumentables.a.p/generic_src_mm_malloc.c.o
                                        0x110 (size before relaxing)
 .eh_frame      0xffffffff8015c2d0       0x98 kernel/libnoninstrumentables.a.p/generic_src_mm_reserve.c.o
                                         0xb0 (size before relaxing)
 .eh_frame      0xffffffff8015c368       0x20 kernel/libnoninstrumentables.a.p/generic_src_printf_printf.c.o
                                         0x38 (size before relaxing)
 .eh_frame      0xffffffff8015c388       0x20 kernel/libnoninstrumentables.a.p/generic_src_printf_snprintf.c.o
                                         0x38 (size before relaxing)
 .eh_frame      0xffffffff8015c3a8       0x90 kernel/libnoninstrumentables.a.p/generic_src_printf_vprintf.c.o
                                         0xd0 (size before relaxing)
 .eh_frame      0xffffffff8015c438       0xa8 kernel/libnoninstrumentables.a.p/generic_src_printf_vsnprintf.c.o
                                         0xc0 (size before relaxing)
 .eh_frame      0xffffffff8015c4e0      0x110 kernel/libnoninstrumentables.a.p/generic_src_proc_program.c.o
                                        0x128 (size before relaxing)
 .eh_frame      0xffffffff8015c5f0      0x220 kernel/libnoninstrumentables.a.p/generic_src_proc_scheduler.c.o
                                        0x238 (size before relaxing)
 .eh_frame      0xffffffff8015c810      0x390 kernel/libnoninstrumentables.a.p/generic_src_proc_task.c.o
                                        0x3a8 (size before relaxing)
 .eh_frame      0xffffffff8015cba0      0x5d0 kernel/libnoninstrumentables.a.p/generic_src_proc_thread.c.o
                                        0x620 (size before relaxing)
 .eh_frame      0xffffffff8015d170       0xb8 kernel/libnoninstrumentables.a.p/generic_src_security_perm.c.o
                                         0xd0 (size before relaxing)
 .eh_frame      0xffffffff8015d228       0x28 kernel/libnoninstrumentables.a.p/generic_src_smp_ipi.c.o
                                         0x40 (size before relaxing)
 .eh_frame      0xffffffff8015d250       0x70 kernel/libnoninstrumentables.a.p/generic_src_synch_condvar.c.o
                                        0x138 (size before relaxing)
 .eh_frame      0xffffffff8015d2c0       0xd8 kernel/libnoninstrumentables.a.p/generic_src_synch_irq_spinlock.c.o
                                        0x140 (size before relaxing)
 .eh_frame      0xffffffff8015d398      0x100 kernel/libnoninstrumentables.a.p/generic_src_synch_mutex.c.o
                                        0x148 (size before relaxing)
 .eh_frame      0xffffffff8015d498       0xc0 kernel/libnoninstrumentables.a.p/generic_src_synch_semaphore.c.o
                                         0xd8 (size before relaxing)
 .eh_frame      0xffffffff8015d558       0x20 kernel/libnoninstrumentables.a.p/generic_src_synch_smc.c.o
                                         0x38 (size before relaxing)
 .eh_frame      0xffffffff8015d578       0xd0 kernel/libnoninstrumentables.a.p/generic_src_synch_spinlock.c.o
                                         0xe8 (size before relaxing)
 .eh_frame      0xffffffff8015d648      0x130 kernel/libnoninstrumentables.a.p/generic_src_synch_syswaitq.c.o
                                        0x148 (size before relaxing)
 .eh_frame      0xffffffff8015d778      0x1e8 kernel/libnoninstrumentables.a.p/generic_src_synch_waitq.c.o
                                        0x220 (size before relaxing)
 .eh_frame      0xffffffff8015d960       0x58 kernel/libnoninstrumentables.a.p/generic_src_syscall_copy.c.o
                                         0x70 (size before relaxing)
 .eh_frame      0xffffffff8015d9b8       0x38 kernel/libnoninstrumentables.a.p/generic_src_syscall_syscall.c.o
                                         0x50 (size before relaxing)
 .eh_frame      0xffffffff8015d9f0      0x2d0 kernel/libnoninstrumentables.a.p/generic_src_sysinfo_stats.c.o
                                        0x2e8 (size before relaxing)
 .eh_frame      0xffffffff8015dcc0       0x70 kernel/libnoninstrumentables.a.p/generic_src_time_clock.c.o
                                         0x88 (size before relaxing)
 .eh_frame      0xffffffff8015dd30       0x30 kernel/libnoninstrumentables.a.p/generic_src_time_delay.c.o
                                         0x48 (size before relaxing)
 .eh_frame      0xffffffff8015dd60      0x108 kernel/libnoninstrumentables.a.p/generic_src_time_timeout.c.o
                                        0x150 (size before relaxing)
 .eh_frame      0xffffffff8015de68      0x700 kernel/libnoninstrumentables.a.p/generic_src_console_cmd.c.o
                                        0x718 (size before relaxing)
 .eh_frame      0xffffffff8015e568       0x88 kernel/libnoninstrumentables.a.p/generic_src_ipc_kbox.c.o
                                         0xa0 (size before relaxing)
 .eh_frame      0xffffffff8015e5f0      0x1c0 kernel/libnoninstrumentables.a.p/generic_src_udebug_udebug.c.o
                                        0x1d8 (size before relaxing)
 .eh_frame      0xffffffff8015e7b0      0x268 kernel/libnoninstrumentables.a.p/generic_src_udebug_udebug_ops.c.o
                                        0x280 (size before relaxing)
 .eh_frame      0xffffffff8015ea18       0x60 kernel/libnoninstrumentables.a.p/generic_src_udebug_udebug_ipc.c.o
                                         0x78 (size before relaxing)
 .eh_frame      0xffffffff8015ea78       0x50 kernel/libnoninstrumentables.a.p/test_test.c.o
                                         0x68 (size before relaxing)
 .eh_frame      0xffffffff8015eac8       0x28 kernel/libnoninstrumentables.a.p/test_atomic_atomic1.c.o
                                         0x40 (size before relaxing)
 .eh_frame      0xffffffff8015eaf0       0x20 kernel/libnoninstrumentables.a.p/test_fault_fault1.c.o
                                         0x38 (size before relaxing)
 .eh_frame      0xffffffff8015eb10       0x38 kernel/libnoninstrumentables.a.p/test_mm_falloc1.c.o
                                         0x50 (size before relaxing)
 .eh_frame      0xffffffff8015eb48       0x88 kernel/libnoninstrumentables.a.p/test_mm_falloc2.c.o
                                         0xa0 (size before relaxing)
 .eh_frame      0xffffffff8015ebd0       0x40 kernel/libnoninstrumentables.a.p/test_mm_mapping1.c.o
                                         0x58 (size before relaxing)
 .eh_frame      0xffffffff8015ec10      0x120 kernel/libnoninstrumentables.a.p/test_mm_slab1.c.o
                                        0x138 (size before relaxing)
 .eh_frame      0xffffffff8015ed30       0xf8 kernel/libnoninstrumentables.a.p/test_mm_slab2.c.o
                                        0x110 (size before relaxing)
 .eh_frame      0xffffffff8015ee28       0x80 kernel/libnoninstrumentables.a.p/test_synch_semaphore1.c.o
                                         0x98 (size before relaxing)
 .eh_frame      0xffffffff8015eea8       0x70 kernel/libnoninstrumentables.a.p/test_synch_semaphore2.c.o
                                         0x88 (size before relaxing)
 .eh_frame      0xffffffff8015ef18       0x20 kernel/libnoninstrumentables.a.p/test_print_print1.c.o
                                         0x38 (size before relaxing)
 .eh_frame      0xffffffff8015ef38       0x20 kernel/libnoninstrumentables.a.p/test_print_print2.c.o
                                         0x38 (size before relaxing)
 .eh_frame      0xffffffff8015ef58       0x30 kernel/libnoninstrumentables.a.p/test_print_print3.c.o
                                         0x48 (size before relaxing)
 .eh_frame      0xffffffff8015ef88       0x40 kernel/libnoninstrumentables.a.p/test_print_print4.c.o
                                         0x58 (size before relaxing)
 .eh_frame      0xffffffff8015efc8       0x20 kernel/libnoninstrumentables.a.p/test_print_print5.c.o
                                         0x38 (size before relaxing)
 .eh_frame      0xffffffff8015efe8       0x50 kernel/libnoninstrumentables.a.p/test_thread_thread1.c.o
                                         0x68 (size before relaxing)
 .eh_frame      0xffffffff8015f038       0x20 kernel/libnoninstrumentables.a.p/test_debug_mips1_skip.c.o
                                         0x38 (size before relaxing)
 .eh_frame      0xffffffff8015f058        0x0 kernel/libnoninstrumentables.a.p/test_mm_purge1_skip.c.o
                                         0x38 (size before relaxing)
                0xffffffff8015f058                eh_frame_end = .

.data           0xffffffff80160000    0x4af29 load address 0x0000000000160000
                0xffffffff80160000                kdata_start = .
 *(.rodata .rodata.*)
 .rodata.cpu_init.str1.8
                0xffffffff80160000     0x4e63 kernel/libinstrumentables.a.p/generic_src_cpu_cpu.c.o
                                         0x20 (size before relaxing)
 .rodata.cpu_init.str1.1
                0xffffffff80164e63     0x576a kernel/libinstrumentables.a.p/generic_src_cpu_cpu.c.o
                                         0x4c (size before relaxing)
 .rodata.cpu_list.str1.1
                0xffffffff8016a5cd       0x13 kernel/libinstrumentables.a.p/generic_src_cpu_cpu.c.o
 .rodata.physmem_unmap.part.0.str1.1
                0xffffffff8016a5cd       0x17 kernel/libinstrumentables.a.p/generic_src_ddi_ddi.c.o
 .rodata.physmem_unmap.part.0.str1.8
                0xffffffff8016a5cd       0x2b kernel/libinstrumentables.a.p/generic_src_ddi_ddi.c.o
 *fill*         0xffffffff8016a5cd        0x3 
 .rodata.__func__.0
                0xffffffff8016a5d0       0x15 kernel/libinstrumentables.a.p/generic_src_ddi_ddi.c.o
 *fill*         0xffffffff8016a5e5        0x3 
 .rodata.__func__.1
                0xffffffff8016a5e8        0xb kernel/libinstrumentables.a.p/generic_src_ddi_ddi.c.o
 *fill*         0xffffffff8016a5f3        0x5 
 .rodata.__func__.2
                0xffffffff8016a5f8        0xe kernel/libinstrumentables.a.p/generic_src_ddi_ddi.c.o
 *fill*         0xffffffff8016a606        0x2 
 .rodata.__func__.3
                0xffffffff8016a608        0xc kernel/libinstrumentables.a.p/generic_src_ddi_ddi.c.o
 .rodata.fault_from_uspace_core.str1.8
                0xffffffff8016a614       0x41 kernel/libinstrumentables.a.p/generic_src_interrupt_interrupt.c.o
 .rodata.fault_from_uspace_core.str1.1
                0xffffffff8016a614       0x11 kernel/libinstrumentables.a.p/generic_src_interrupt_interrupt.c.o
 .rodata.cmd_exc_print.str1.1
                0xffffffff8016a614       0x3b kernel/libinstrumentables.a.p/generic_src_interrupt_interrupt.c.o
 .rodata.cmd_exc_print.str1.8
                0xffffffff8016a614       0x8a kernel/libinstrumentables.a.p/generic_src_interrupt_interrupt.c.o
 .rodata.exc_register.str1.1
                0xffffffff8016a614       0x20 kernel/libinstrumentables.a.p/generic_src_interrupt_interrupt.c.o
 .rodata.exc_register.str1.8
                0xffffffff8016a614       0x37 kernel/libinstrumentables.a.p/generic_src_interrupt_interrupt.c.o
 .rodata.exc_undef.str1.1
                0xffffffff8016a614       0x18 kernel/libinstrumentables.a.p/generic_src_interrupt_interrupt.c.o
 .rodata.exc_init.str1.1
                0xffffffff8016a614       0x22 kernel/libinstrumentables.a.p/generic_src_interrupt_interrupt.c.o
 *fill*         0xffffffff8016a614        0x4 
 .rodata.__func__.0
                0xffffffff8016a618        0xd kernel/libinstrumentables.a.p/generic_src_interrupt_interrupt.c.o
 *fill*         0xffffffff8016a625        0x3 
 .rodata.__func__.1
                0xffffffff8016a628        0xd kernel/libinstrumentables.a.p/generic_src_interrupt_interrupt.c.o
 .rodata.str1.1
                0xffffffff8016a635       0x10 kernel/libinstrumentables.a.p/generic_src_interrupt_interrupt.c.o
 .rodata.str1.8
                0xffffffff8016a635       0x33 kernel/libinstrumentables.a.p/generic_src_interrupt_interrupt.c.o
 .rodata.kinit.str1.1
                0xffffffff8016a635       0xeb kernel/libinstrumentables.a.p/generic_src_main_kinit.c.o
 .rodata.kinit.str1.8
                0xffffffff8016a635      0x148 kernel/libinstrumentables.a.p/generic_src_main_kinit.c.o
 .rodata.__func__.0
                0xffffffff8016a635        0x6 kernel/libinstrumentables.a.p/generic_src_main_kinit.c.o
 .rodata.alive  0xffffffff8016a63b        0x4 kernel/libinstrumentables.a.p/generic_src_main_kinit.c.o
 .rodata.main_bsp_separated_stack.str1.8
                0xffffffff8016a63f       0x28 kernel/libinstrumentables.a.p/generic_src_main_main.c.o
 .rodata.main_bsp_separated_stack.str1.1
                0xffffffff8016a63f       0x67 kernel/libinstrumentables.a.p/generic_src_main_main.c.o
 *fill*         0xffffffff8016a63f        0x1 
 .rodata.bootstrap_stack_top
                0xffffffff8016a640        0x8 kernel/libinstrumentables.a.p/generic_src_main_main.c.o
                0xffffffff8016a640                bootstrap_stack_top
 .rodata.find_area_and_lock.str1.1
                0xffffffff8016a648       0x3b kernel/libinstrumentables.a.p/generic_src_mm_as.c.o
 .rodata.find_area_and_lock.str1.8
                0xffffffff8016a648       0x29 kernel/libinstrumentables.a.p/generic_src_mm_as.c.o
 .rodata.page_table_lock.part.0.str1.8
                0xffffffff8016a648       0x1f kernel/libinstrumentables.a.p/generic_src_mm_as.c.o
 .rodata.page_table_unlock.part.0.str1.8
                0xffffffff8016a648       0x21 kernel/libinstrumentables.a.p/generic_src_mm_as.c.o
 .rodata.area_is_conflicting.str1.1
                0xffffffff8016a648       0x18 kernel/libinstrumentables.a.p/generic_src_mm_as.c.o
 .rodata.sh_info_remove_reference.str1.1
                0xffffffff8016a648       0x12 kernel/libinstrumentables.a.p/generic_src_mm_as.c.o
 .rodata.as_init.str1.1
                0xffffffff8016a648       0x37 kernel/libinstrumentables.a.p/generic_src_mm_as.c.o
 .rodata.as_init.str1.8
                0xffffffff8016a648       0x49 kernel/libinstrumentables.a.p/generic_src_mm_as.c.o
 .rodata.as_hold.str1.1
                0xffffffff8016a648        0x9 kernel/libinstrumentables.a.p/generic_src_mm_as.c.o
 .rodata.as_hold.str1.8
                0xffffffff8016a648       0x34 kernel/libinstrumentables.a.p/generic_src_mm_as.c.o
 .rodata.as_area_resize.str1.1
                0xffffffff8016a648       0x53 kernel/libinstrumentables.a.p/generic_src_mm_as.c.o
 .rodata.as_area_destroy.str1.8
                0xffffffff8016a648       0x20 kernel/libinstrumentables.a.p/generic_src_mm_as.c.o
 .rodata.as_release.str1.1
                0xffffffff8016a648       0x32 kernel/libinstrumentables.a.p/generic_src_mm_as.c.o
 .rodata.as_release.str1.8
                0xffffffff8016a648       0x8a kernel/libinstrumentables.a.p/generic_src_mm_as.c.o
 .rodata.as_area_check_access.str1.1
                0xffffffff8016a648       0x1a kernel/libinstrumentables.a.p/generic_src_mm_as.c.o
 .rodata.as_page_fault.str1.8
                0xffffffff8016a648       0x3c kernel/libinstrumentables.a.p/generic_src_mm_as.c.o
 .rodata.as_page_fault.str1.1
                0xffffffff8016a648       0x10 kernel/libinstrumentables.a.p/generic_src_mm_as.c.o
 .rodata.as_switch.str1.1
                0xffffffff8016a648       0x32 kernel/libinstrumentables.a.p/generic_src_mm_as.c.o
 .rodata.page_table_locked.str1.8
                0xffffffff8016a648       0x21 kernel/libinstrumentables.a.p/generic_src_mm_as.c.o
 .rodata.used_space_insert.str1.1
                0xffffffff8016a648       0x22 kernel/libinstrumentables.a.p/generic_src_mm_as.c.o
 .rodata.as_get_area_info.str1.1
                0xffffffff8016a648       0x14 kernel/libinstrumentables.a.p/generic_src_mm_as.c.o
 *fill*         0xffffffff8016a648        0x8 
 .rodata.__func__.0
                0xffffffff8016a650       0x11 kernel/libinstrumentables.a.p/generic_src_mm_as.c.o
 *fill*         0xffffffff8016a661        0xf 
 .rodata.__func__.1
                0xffffffff8016a670       0x12 kernel/libinstrumentables.a.p/generic_src_mm_as.c.o
 *fill*         0xffffffff8016a682        0xe 
 .rodata.__func__.2
                0xffffffff8016a690       0x12 kernel/libinstrumentables.a.p/generic_src_mm_as.c.o
 *fill*         0xffffffff8016a6a2        0xe 
 .rodata.__func__.3
                0xffffffff8016a6b0       0x12 kernel/libinstrumentables.a.p/generic_src_mm_as.c.o
 *fill*         0xffffffff8016a6c2        0xe 
 .rodata.__func__.4
                0xffffffff8016a6d0       0x10 kernel/libinstrumentables.a.p/generic_src_mm_as.c.o
 .rodata.__func__.5
                0xffffffff8016a6e0       0x13 kernel/libinstrumentables.a.p/generic_src_mm_as.c.o
 *fill*         0xffffffff8016a6f3        0xd 
 .rodata.__func__.6
                0xffffffff8016a700       0x12 kernel/libinstrumentables.a.p/generic_src_mm_as.c.o
 *fill*         0xffffffff8016a712        0xe 
 .rodata.__func__.7
                0xffffffff8016a720       0x12 kernel/libinstrumentables.a.p/generic_src_mm_as.c.o
 *fill*         0xffffffff8016a732        0x6 
 .rodata.__func__.8
                0xffffffff8016a738        0xa kernel/libinstrumentables.a.p/generic_src_mm_as.c.o
 *fill*         0xffffffff8016a742        0xe 
 .rodata.__func__.9
                0xffffffff8016a750       0x15 kernel/libinstrumentables.a.p/generic_src_mm_as.c.o
 *fill*         0xffffffff8016a765        0xb 
 .rodata.__func__.10
                0xffffffff8016a770       0x15 kernel/libinstrumentables.a.p/generic_src_mm_as.c.o
 *fill*         0xffffffff8016a785        0xb 
 .rodata.__func__.11
                0xffffffff8016a790       0x14 kernel/libinstrumentables.a.p/generic_src_mm_as.c.o
 *fill*         0xffffffff8016a7a4        0xc 
 .rodata.__func__.12
                0xffffffff8016a7b0       0x10 kernel/libinstrumentables.a.p/generic_src_mm_as.c.o
 .rodata.__func__.13
                0xffffffff8016a7c0       0x18 kernel/libinstrumentables.a.p/generic_src_mm_as.c.o
 *fill*         0xffffffff8016a7d8        0x8 
 .rodata.__func__.14
                0xffffffff8016a7e0       0x13 kernel/libinstrumentables.a.p/generic_src_mm_as.c.o
 *fill*         0xffffffff8016a7f3        0x5 
 .rodata.__func__.15
                0xffffffff8016a7f8        0xf kernel/libinstrumentables.a.p/generic_src_mm_as.c.o
 *fill*         0xffffffff8016a807        0x9 
 .rodata.__func__.16
                0xffffffff8016a810       0x19 kernel/libinstrumentables.a.p/generic_src_mm_as.c.o
 *fill*         0xffffffff8016a829        0x7 
 .rodata.__func__.17
                0xffffffff8016a830       0x14 kernel/libinstrumentables.a.p/generic_src_mm_as.c.o
 *fill*         0xffffffff8016a844        0xc 
 .rodata.__func__.18
                0xffffffff8016a850       0x15 kernel/libinstrumentables.a.p/generic_src_mm_as.c.o
 *fill*         0xffffffff8016a865        0xb 
 .rodata.__func__.19
                0xffffffff8016a870       0x15 kernel/libinstrumentables.a.p/generic_src_mm_as.c.o
 *fill*         0xffffffff8016a885        0xb 
 .rodata.__func__.20
                0xffffffff8016a890       0x10 kernel/libinstrumentables.a.p/generic_src_mm_as.c.o
 .rodata.__func__.21
                0xffffffff8016a8a0        0xb kernel/libinstrumentables.a.p/generic_src_mm_as.c.o
 *fill*         0xffffffff8016a8ab        0x5 
 .rodata.__func__.22
                0xffffffff8016a8b0        0xe kernel/libinstrumentables.a.p/generic_src_mm_as.c.o
 *fill*         0xffffffff8016a8be        0x2 
 .rodata.__func__.23
                0xffffffff8016a8c0        0xc kernel/libinstrumentables.a.p/generic_src_mm_as.c.o
 .rodata.str1.1
                0xffffffff8016a8cc        0x9 kernel/libinstrumentables.a.p/generic_src_mm_as.c.o
 .rodata.zone_get_frame.part.0.str1.1
                0xffffffff8016a8cc       0x26 kernel/libinstrumentables.a.p/generic_src_mm_frame.c.o
 .rodata.zone_get_frame.part.0.str1.8
                0xffffffff8016a8cc       0x2c kernel/libinstrumentables.a.p/generic_src_mm_frame.c.o
 .rodata.zone_mark_unavailable.str1.1
                0xffffffff8016a8cc       0x47 kernel/libinstrumentables.a.p/generic_src_mm_frame.c.o
 .rodata.zones_insert_zone.str1.8
                0xffffffff8016a8cc       0x53 kernel/libinstrumentables.a.p/generic_src_mm_frame.c.o
 .rodata.zone_merge_internal.str1.8
                0xffffffff8016a8cc      0x110 kernel/libinstrumentables.a.p/generic_src_mm_frame.c.o
 .rodata.zone_frame_alloc.str1.1
                0xffffffff8016a8cc       0x4a kernel/libinstrumentables.a.p/generic_src_mm_frame.c.o
 .rodata.return_config_frames.str1.8
                0xffffffff8016a8cc       0x28 kernel/libinstrumentables.a.p/generic_src_mm_frame.c.o
 .rodata.return_config_frames.str1.1
                0xffffffff8016a8cc       0x15 kernel/libinstrumentables.a.p/generic_src_mm_frame.c.o
 .rodata.zone_external_conf_alloc.str1.1
                0xffffffff8016a8cc        0xa kernel/libinstrumentables.a.p/generic_src_mm_frame.c.o
 .rodata.zone_create.str1.8
                0xffffffff8016a8cc       0x51 kernel/libinstrumentables.a.p/generic_src_mm_frame.c.o
 .rodata.frame_set_parent.str1.1
                0xffffffff8016a8cc       0x14 kernel/libinstrumentables.a.p/generic_src_mm_frame.c.o
 .rodata.frame_alloc_generic.str1.8
                0xffffffff8016a8cc       0x71 kernel/libinstrumentables.a.p/generic_src_mm_frame.c.o
 .rodata.frame_alloc_generic.str1.1
                0xffffffff8016a8cc       0x15 kernel/libinstrumentables.a.p/generic_src_mm_frame.c.o
 .rodata.frame_free_generic.str1.1
                0xffffffff8016a8cc       0x29 kernel/libinstrumentables.a.p/generic_src_mm_frame.c.o
 .rodata.frame_init.str1.1
                0xffffffff8016a8cc       0x11 kernel/libinstrumentables.a.p/generic_src_mm_frame.c.o
 .rodata.zones_stats.str1.1
                0xffffffff8016a8cc       0x38 kernel/libinstrumentables.a.p/generic_src_mm_frame.c.o
 .rodata.zones_print_list.str1.8
                0xffffffff8016a8cc       0xde kernel/libinstrumentables.a.p/generic_src_mm_frame.c.o
 .rodata.zones_print_list.str1.1
                0xffffffff8016a8cc       0x2e kernel/libinstrumentables.a.p/generic_src_mm_frame.c.o
 .rodata.zone_print_one.str1.1
                0xffffffff8016a8cc       0x4c kernel/libinstrumentables.a.p/generic_src_mm_frame.c.o
 .rodata.zone_print_one.str1.8
                0xffffffff8016a8cc       0xb6 kernel/libinstrumentables.a.p/generic_src_mm_frame.c.o
 *fill*         0xffffffff8016a8cc        0x4 
 .rodata.__func__.0
                0xffffffff8016a8d0        0xc kernel/libinstrumentables.a.p/generic_src_mm_frame.c.o
 *fill*         0xffffffff8016a8dc        0x4 
 .rodata.__func__.1
                0xffffffff8016a8e0       0x14 kernel/libinstrumentables.a.p/generic_src_mm_frame.c.o
 *fill*         0xffffffff8016a8f4        0xc 
 .rodata.__func__.2
                0xffffffff8016a900       0x10 kernel/libinstrumentables.a.p/generic_src_mm_frame.c.o
 .rodata.__func__.3
                0xffffffff8016a910       0x13 kernel/libinstrumentables.a.p/generic_src_mm_frame.c.o
 *fill*         0xffffffff8016a923        0xd 
 .rodata.__func__.4
                0xffffffff8016a930       0x14 kernel/libinstrumentables.a.p/generic_src_mm_frame.c.o
 *fill*         0xffffffff8016a944        0xc 
 .rodata.__func__.5
                0xffffffff8016a950       0x11 kernel/libinstrumentables.a.p/generic_src_mm_frame.c.o
 *fill*         0xffffffff8016a961        0xf 
 .rodata.__func__.6
                0xffffffff8016a970       0x11 kernel/libinstrumentables.a.p/generic_src_mm_frame.c.o
 *fill*         0xffffffff8016a981        0x7 
 .rodata.__func__.7
                0xffffffff8016a988        0xc kernel/libinstrumentables.a.p/generic_src_mm_frame.c.o
 *fill*         0xffffffff8016a994        0xc 
 .rodata.__func__.8
                0xffffffff8016a9a0       0x14 kernel/libinstrumentables.a.p/generic_src_mm_frame.c.o
 *fill*         0xffffffff8016a9b4        0xc 
 .rodata.__func__.9
                0xffffffff8016a9c0       0x15 kernel/libinstrumentables.a.p/generic_src_mm_frame.c.o
 *fill*         0xffffffff8016a9d5        0xb 
 .rodata.__func__.10
                0xffffffff8016a9e0       0x16 kernel/libinstrumentables.a.p/generic_src_mm_frame.c.o
 *fill*         0xffffffff8016a9f6        0xa 
 .rodata.__func__.11
                0xffffffff8016aa00       0x14 kernel/libinstrumentables.a.p/generic_src_mm_frame.c.o
 *fill*         0xffffffff8016aa14        0x4 
 .rodata.__func__.12
                0xffffffff8016aa18        0xf kernel/libinstrumentables.a.p/generic_src_mm_frame.c.o
 *fill*         0xffffffff8016aa27        0x9 
 .rodata.__func__.13
                0xffffffff8016aa30       0x11 kernel/libinstrumentables.a.p/generic_src_mm_frame.c.o
 .rodata.page_mapping_insert.str1.1
                0xffffffff8016aa41       0x40 kernel/libinstrumentables.a.p/generic_src_mm_page.c.o
 .rodata.page_mapping_insert.str1.8
                0xffffffff8016aa41       0x58 kernel/libinstrumentables.a.p/generic_src_mm_page.c.o
 .rodata.page_mapping_remove.str1.8
                0xffffffff8016aa41       0x28 kernel/libinstrumentables.a.p/generic_src_mm_page.c.o
 .rodata.page_mapping_find.str1.8
                0xffffffff8016aa41       0x46 kernel/libinstrumentables.a.p/generic_src_mm_page.c.o
 .rodata.page_mapping_make_global.str1.8
                0xffffffff8016aa41       0x2d kernel/libinstrumentables.a.p/generic_src_mm_page.c.o
 *fill*         0xffffffff8016aa41        0xf 
 .rodata.__func__.0
                0xffffffff8016aa50       0x19 kernel/libinstrumentables.a.p/generic_src_mm_page.c.o
 *fill*         0xffffffff8016aa69        0x7 
 .rodata.__func__.2
                0xffffffff8016aa70       0x12 kernel/libinstrumentables.a.p/generic_src_mm_page.c.o
 *fill*         0xffffffff8016aa82        0xe 
 .rodata.__func__.3
                0xffffffff8016aa90       0x14 kernel/libinstrumentables.a.p/generic_src_mm_page.c.o
 *fill*         0xffffffff8016aaa4        0xc 
 .rodata.__func__.4
                0xffffffff8016aab0       0x14 kernel/libinstrumentables.a.p/generic_src_mm_page.c.o
 .rodata.slab_cache_create.part.0.str1.8
                0xffffffff8016aac4       0x2d kernel/libinstrumentables.a.p/generic_src_mm_slab.c.o
 .rodata.slab_alloc.str1.1
                0xffffffff8016aac4       0x27 kernel/libinstrumentables.a.p/generic_src_mm_slab.c.o
 .rodata.slab_alloc.str1.8
                0xffffffff8016aac4       0x89 kernel/libinstrumentables.a.p/generic_src_mm_slab.c.o
 .rodata.slab_cache_destroy.str1.8
                0xffffffff8016aac4       0x24 kernel/libinstrumentables.a.p/generic_src_mm_slab.c.o
 .rodata._slab_cache_create.str1.1
                0xffffffff8016aac4       0x63 kernel/libinstrumentables.a.p/generic_src_mm_slab.c.o
 .rodata.slab_print_list.str1.1
                0xffffffff8016aac4        0x7 kernel/libinstrumentables.a.p/generic_src_mm_slab.c.o
 .rodata.slab_print_list.str1.8
                0xffffffff8016aac4       0x7a kernel/libinstrumentables.a.p/generic_src_mm_slab.c.o
 .rodata.slab_cache_init.str1.1
                0xffffffff8016aac4       0x28 kernel/libinstrumentables.a.p/generic_src_mm_slab.c.o
 .rodata.slab_enable_cpucache.str1.1
                0xffffffff8016aac4        0xf kernel/libinstrumentables.a.p/generic_src_mm_slab.c.o
 *fill*         0xffffffff8016aac4        0xc 
 .rodata.__func__.0
                0xffffffff8016aad0       0x17 kernel/libinstrumentables.a.p/generic_src_mm_slab.c.o
 *fill*         0xffffffff8016aae7        0x9 
 .rodata.__func__.1
                0xffffffff8016aaf0       0x15 kernel/libinstrumentables.a.p/generic_src_mm_slab.c.o
 *fill*         0xffffffff8016ab05        0xb 
 .rodata.__func__.2
                0xffffffff8016ab10       0x11 kernel/libinstrumentables.a.p/generic_src_mm_slab.c.o
 *fill*         0xffffffff8016ab21        0x7 
 .rodata.__func__.3
                0xffffffff8016ab28        0xe kernel/libinstrumentables.a.p/generic_src_mm_slab.c.o
 *fill*         0xffffffff8016ab36        0xa 
 .rodata.__func__.4
                0xffffffff8016ab40       0x13 kernel/libinstrumentables.a.p/generic_src_mm_slab.c.o
 .rodata.str1.1
                0xffffffff8016ab53       0x10 kernel/libinstrumentables.a.p/generic_src_mm_slab.c.o
 .rodata.tlb_shootdown_ipi_recv.str1.1
                0xffffffff8016ab53       0x2f kernel/libinstrumentables.a.p/generic_src_mm_tlb.c.o
 .rodata.tlb_shootdown_ipi_recv.str1.8
                0xffffffff8016ab53       0x61 kernel/libinstrumentables.a.p/generic_src_mm_tlb.c.o
 *fill*         0xffffffff8016ab53        0xd 
 .rodata.__func__.0
                0xffffffff8016ab60       0x17 kernel/libinstrumentables.a.p/generic_src_mm_tlb.c.o
 .rodata.str1.1
                0xffffffff8016ab77        0x8 kernel/libinstrumentables.a.p/generic_src_mm_tlb.c.o
 .rodata.current_copy.str1.1
                0xffffffff8016ab77       0x26 kernel/libinstrumentables.a.p/generic_src_proc_current.c.o
 .rodata.current_copy.str1.8
                0xffffffff8016ab77       0x30 kernel/libinstrumentables.a.p/generic_src_proc_current.c.o
 *fill*         0xffffffff8016ab77        0x1 
 .rodata.__func__.0
                0xffffffff8016ab78        0xd kernel/libinstrumentables.a.p/generic_src_proc_current.c.o
 .rodata.sysinfo_dump_internal.str1.1
                0xffffffff8016ab85       0xa3 kernel/libinstrumentables.a.p/generic_src_sysinfo_sysinfo.c.o
 *fill*         0xffffffff8016ab85        0x3 
 .rodata.sysinfo_dump_internal
                0xffffffff8016ab88       0x28 kernel/libinstrumentables.a.p/generic_src_sysinfo_sysinfo.c.o
 .rodata.sysinfo_find_item.str1.1
                0xffffffff8016abb0       0x22 kernel/libinstrumentables.a.p/generic_src_sysinfo_sysinfo.c.o
 .rodata.sysinfo_find_item.str1.8
                0xffffffff8016abb0       0x33 kernel/libinstrumentables.a.p/generic_src_sysinfo_sysinfo.c.o
 .rodata.sysinfo_dump_internal.constprop.0
                0xffffffff8016abb0       0x28 kernel/libinstrumentables.a.p/generic_src_sysinfo_sysinfo.c.o
 .rodata.sysinfo_init.str1.1
                0xffffffff8016abd8        0xf kernel/libinstrumentables.a.p/generic_src_sysinfo_sysinfo.c.o
 .rodata.sysinfo_set_item_val.str1.8
                0xffffffff8016abd8       0x20 kernel/libinstrumentables.a.p/generic_src_sysinfo_sysinfo.c.o
 *fill*         0xffffffff8016abd8        0x8 
 .rodata.__func__.0
                0xffffffff8016abe0       0x12 kernel/libinstrumentables.a.p/generic_src_sysinfo_sysinfo.c.o
 .rodata.parse_int_arg.str1.1
                0xffffffff8016abf2       0x8a kernel/libinstrumentables.a.p/generic_src_console_kconsole.c.o
 .rodata.parse_int_arg.str1.8
                0xffffffff8016abf2       0x22 kernel/libinstrumentables.a.p/generic_src_console_kconsole.c.o
 .rodata.kconsole.str1.1
                0xffffffff8016abf2       0x8b kernel/libinstrumentables.a.p/generic_src_console_kconsole.c.o
 .rodata.kconsole.str1.8
                0xffffffff8016abf2       0x99 kernel/libinstrumentables.a.p/generic_src_console_kconsole.c.o
 .rodata.kconsole_thread.str1.8
                0xffffffff8016abf2       0x32 kernel/libinstrumentables.a.p/generic_src_console_kconsole.c.o
 .rodata.kconsole_thread.str1.1
                0xffffffff8016abf2        0x9 kernel/libinstrumentables.a.p/generic_src_console_kconsole.c.o
 .rodata.str1.1
                0xffffffff8016abf2        0x9 kernel/libinstrumentables.a.p/generic_src_console_kconsole.c.o
 .rodata.amd64_post_smp_init.str1.1
                0xffffffff8016abf2        0xc kernel/libnoninstrumentables.a.p/arch_amd64_src_amd64.c.o
 .rodata.cpu_print_report.str1.8
                0xffffffff8016abf2       0x3c kernel/libnoninstrumentables.a.p/arch_amd64_src_cpu_cpu.c.o
 .rodata.str1.1
                0xffffffff8016abf2       0x29 kernel/libnoninstrumentables.a.p/arch_amd64_src_cpu_cpu.c.o
 *fill*         0xffffffff8016abf2        0xe 
 .rodata.vendor_str
                0xffffffff8016ac00       0x18 kernel/libnoninstrumentables.a.p/arch_amd64_src_cpu_cpu.c.o
 .rodata.io_perm_bitmap_install.str1.1
                0xffffffff8016ac18       0x28 kernel/libnoninstrumentables.a.p/arch_amd64_src_ddi_ddi.c.o
 .rodata.io_perm_bitmap_install.str1.8
                0xffffffff8016ac18       0x2e kernel/libnoninstrumentables.a.p/arch_amd64_src_ddi_ddi.c.o
 *fill*         0xffffffff8016ac18        0x8 
 .rodata.__func__.0
                0xffffffff8016ac20       0x17 kernel/libnoninstrumentables.a.p/arch_amd64_src_ddi_ddi.c.o
 .rodata.ss_fault.str1.1
                0xffffffff8016ac37        0xd kernel/libnoninstrumentables.a.p/arch_amd64_src_interrupt.c.o
 .rodata.de_fault.str1.1
                0xffffffff8016ac37        0xe kernel/libnoninstrumentables.a.p/arch_amd64_src_interrupt.c.o
 .rodata.null_interrupt.str1.1
                0xffffffff8016ac37       0x30 kernel/libnoninstrumentables.a.p/arch_amd64_src_interrupt.c.o
 .rodata.irq_interrupt.str1.1
                0xffffffff8016ac37       0x5d kernel/libnoninstrumentables.a.p/arch_amd64_src_interrupt.c.o
 .rodata.irq_interrupt.str1.8
                0xffffffff8016ac37       0x30 kernel/libnoninstrumentables.a.p/arch_amd64_src_interrupt.c.o
 .rodata.pic_spurious.str1.8
                0xffffffff8016ac37       0x21 kernel/libnoninstrumentables.a.p/arch_amd64_src_interrupt.c.o
 .rodata.gp_fault.str1.1
                0xffffffff8016ac37       0x1a kernel/libnoninstrumentables.a.p/arch_amd64_src_interrupt.c.o
 .rodata.istate_decode.str1.8
                0xffffffff8016ac37      0x111 kernel/libnoninstrumentables.a.p/arch_amd64_src_interrupt.c.o
 .rodata.istate_decode.str1.1
                0xffffffff8016ac37        0xd kernel/libnoninstrumentables.a.p/arch_amd64_src_interrupt.c.o
 .rodata.interrupt_init.str1.1
                0xffffffff8016ac37       0x57 kernel/libnoninstrumentables.a.p/arch_amd64_src_interrupt.c.o
 *fill*         0xffffffff8016ac37        0x1 
 .rodata.__func__.0
                0xffffffff8016ac38        0xe kernel/libnoninstrumentables.a.p/arch_amd64_src_interrupt.c.o
 .rodata.kseg_init.str1.1
                0xffffffff8016ac46       0x16 kernel/libnoninstrumentables.a.p/arch_amd64_src_kseg.c.o
 .rodata.physmem_print.str1.8
                0xffffffff8016ac46       0x31 kernel/libnoninstrumentables.a.p/arch_amd64_src_mm_frame.c.o
 .rodata.physmem_print.str1.1
                0xffffffff8016ac46       0x1c kernel/libnoninstrumentables.a.p/arch_amd64_src_mm_frame.c.o
 .rodata.str1.1
                0xffffffff8016ac46       0x25 kernel/libnoninstrumentables.a.p/arch_amd64_src_mm_frame.c.o
 *fill*         0xffffffff8016ac46       0x1a 
 .rodata.e820names
                0xffffffff8016ac60       0x30 kernel/libnoninstrumentables.a.p/arch_amd64_src_mm_frame.c.o
 .rodata.page_fault.str1.8
                0xffffffff8016ac90       0x26 kernel/libnoninstrumentables.a.p/arch_amd64_src_mm_page.c.o
 .rodata.page_arch_init.str1.1
                0xffffffff8016ac90        0xb kernel/libnoninstrumentables.a.p/arch_amd64_src_mm_page.c.o
 .rodata.pm_init.str1.1
                0xffffffff8016ac90       0x15 kernel/libnoninstrumentables.a.p/arch_amd64_src_pm.c.o
 .rodata.userspace.str1.8
                0xffffffff8016ac90       0x60 kernel/libnoninstrumentables.a.p/arch_amd64_src_userspace.c.o
 .rodata.__func__.0
                0xffffffff8016ac90        0xa kernel/libnoninstrumentables.a.p/arch_amd64_src_userspace.c.o
 .rodata.vreg_init.str1.1
                0xffffffff8016ac9a       0x1c kernel/libnoninstrumentables.a.p/arch_amd64_src_vreg.c.o
 .rodata.apic_get_name.str1.1
                0xffffffff8016ac9a        0x5 kernel/libnoninstrumentables.a.p/arch_amd64_src_smp_apic.c.o
 .rodata.apic_poll_errors.str1.1
                0xffffffff8016ac9a       0xb4 kernel/libnoninstrumentables.a.p/arch_amd64_src_smp_apic.c.o
 .rodata.l_apic_init.str1.1
                0xffffffff8016ac9a       0x1e kernel/libnoninstrumentables.a.p/arch_amd64_src_smp_apic.c.o
 .rodata.l_apic_init.str1.8
                0xffffffff8016ac9a       0x2f kernel/libnoninstrumentables.a.p/arch_amd64_src_smp_apic.c.o
 .rodata.apic_init.str1.1
                0xffffffff8016ac9a        0xe kernel/libnoninstrumentables.a.p/arch_amd64_src_smp_apic.c.o
 *fill*         0xffffffff8016ac9a        0x6 
 .rodata.__func__.0
                0xffffffff8016aca0        0xc kernel/libnoninstrumentables.a.p/arch_amd64_src_smp_apic.c.o
 .rodata.mps_cpu_apic_id.str1.1
                0xffffffff8016acac       0x2a kernel/libnoninstrumentables.a.p/arch_amd64_src_smp_mps.c.o
 .rodata.mps_cpu_apic_id.str1.8
                0xffffffff8016acac       0x2e kernel/libnoninstrumentables.a.p/arch_amd64_src_smp_mps.c.o
 .rodata.mps_init.str1.8
                0xffffffff8016acac       0xb9 kernel/libnoninstrumentables.a.p/arch_amd64_src_smp_mps.c.o
 .rodata.mps_init.str1.1
                0xffffffff8016acac       0x62 kernel/libnoninstrumentables.a.p/arch_amd64_src_smp_mps.c.o
 *fill*         0xffffffff8016acac        0x4 
 .rodata.mps_init
                0xffffffff8016acb0       0x28 kernel/libnoninstrumentables.a.p/arch_amd64_src_smp_mps.c.o
 *fill*         0xffffffff8016acd8        0x8 
 .rodata.__func__.0
                0xffffffff8016ace0       0x10 kernel/libnoninstrumentables.a.p/arch_amd64_src_smp_mps.c.o
 .rodata.__func__.1
                0xffffffff8016acf0       0x12 kernel/libnoninstrumentables.a.p/arch_amd64_src_smp_mps.c.o
 *fill*         0xffffffff8016ad02        0xe 
 .rodata.__func__.2
                0xffffffff8016ad10       0x10 kernel/libnoninstrumentables.a.p/arch_amd64_src_smp_mps.c.o
 .rodata.kmp.str1.1
                0xffffffff8016ad20       0x48 kernel/libnoninstrumentables.a.p/arch_amd64_src_smp_smp.c.o
 .rodata.kmp.str1.8
                0xffffffff8016ad20       0xbf kernel/libnoninstrumentables.a.p/arch_amd64_src_smp_smp.c.o
 .rodata.__func__.0
                0xffffffff8016ad20        0xf kernel/libnoninstrumentables.a.p/arch_amd64_src_smp_smp.c.o
 *fill*         0xffffffff8016ad2f        0x1 
 .rodata.__func__.1
                0xffffffff8016ad30       0x11 kernel/libnoninstrumentables.a.p/arch_amd64_src_smp_smp.c.o
 .rodata.__FUNCTION__.2
                0xffffffff8016ad41        0x4 kernel/libnoninstrumentables.a.p/arch_amd64_src_smp_smp.c.o
 .rodata.__func__.3
                0xffffffff8016ad45        0x4 kernel/libnoninstrumentables.a.p/arch_amd64_src_smp_smp.c.o
 .rodata.acpi_init.str1.1
                0xffffffff8016ad49       0x26 kernel/libnoninstrumentables.a.p/genarch_src_acpi_acpi.c.o
 .rodata.str1.1
                0xffffffff8016ad49        0x5 kernel/libnoninstrumentables.a.p/genarch_src_acpi_acpi.c.o
 .rodata.str1.8
                0xffffffff8016ad49       0x20 kernel/libnoninstrumentables.a.p/genarch_src_acpi_acpi.c.o
 *fill*         0xffffffff8016ad49        0x7 
 .rodata.cst8   0xffffffff8016ad50        0x8 kernel/libnoninstrumentables.a.p/genarch_src_acpi_acpi.c.o
 .rodata.madt_cpu_apic_id.str1.1
                0xffffffff8016ad58       0x2c kernel/libnoninstrumentables.a.p/genarch_src_acpi_madt.c.o
 .rodata.madt_cpu_apic_id.str1.8
                0xffffffff8016ad58       0x2d kernel/libnoninstrumentables.a.p/genarch_src_acpi_madt.c.o
 .rodata.acpi_madt_parse.str1.1
                0xffffffff8016ad58       0x28 kernel/libnoninstrumentables.a.p/genarch_src_acpi_madt.c.o
 .rodata.acpi_madt_parse.str1.8
                0xffffffff8016ad58       0xb5 kernel/libnoninstrumentables.a.p/genarch_src_acpi_madt.c.o
 *fill*         0xffffffff8016ad58        0x8 
 .rodata.__func__.0
                0xffffffff8016ad60       0x19 kernel/libnoninstrumentables.a.p/genarch_src_acpi_madt.c.o
 *fill*         0xffffffff8016ad79        0x7 
 .rodata.__func__.1
                0xffffffff8016ad80       0x11 kernel/libnoninstrumentables.a.p/genarch_src_acpi_madt.c.o
 *fill*         0xffffffff8016ad91        0xf 
 .rodata.__func__.2
                0xffffffff8016ada0       0x13 kernel/libnoninstrumentables.a.p/genarch_src_acpi_madt.c.o
 *fill*         0xffffffff8016adb3        0xd 
 .rodata.__func__.3
                0xffffffff8016adc0       0x11 kernel/libnoninstrumentables.a.p/genarch_src_acpi_madt.c.o
 .rodata.str1.1
                0xffffffff8016add1       0x64 kernel/libnoninstrumentables.a.p/genarch_src_acpi_madt.c.o
 .rodata.pt_mapping_make_global.str1.1
                0xffffffff8016add1       0x1b kernel/libnoninstrumentables.a.p/genarch_src_mm_page_pt.c.o
 .rodata.pt_mapping_make_global.str1.8
                0xffffffff8016add1       0x76 kernel/libnoninstrumentables.a.p/genarch_src_mm_page_pt.c.o
 .rodata.pt_mapping_insert.str1.1
                0xffffffff8016add1       0x16 kernel/libnoninstrumentables.a.p/genarch_src_mm_page_pt.c.o
 .rodata.pt_mapping_find_internal.str1.8
                0xffffffff8016add1       0x20 kernel/libnoninstrumentables.a.p/genarch_src_mm_page_pt.c.o
 .rodata.pt_mapping_update.str1.1
                0xffffffff8016add1       0x1a kernel/libnoninstrumentables.a.p/genarch_src_mm_page_pt.c.o
 .rodata.pt_mapping_update.str1.8
                0xffffffff8016add1       0xc1 kernel/libnoninstrumentables.a.p/genarch_src_mm_page_pt.c.o
 *fill*         0xffffffff8016add1        0xf 
 .rodata.__func__.0
                0xffffffff8016ade0       0x12 kernel/libnoninstrumentables.a.p/genarch_src_mm_page_pt.c.o
 *fill*         0xffffffff8016adf2        0xe 
 .rodata.__func__.1
                0xffffffff8016ae00       0x12 kernel/libnoninstrumentables.a.p/genarch_src_mm_page_pt.c.o
 *fill*         0xffffffff8016ae12        0xe 
 .rodata.__func__.2
                0xffffffff8016ae20       0x19 kernel/libnoninstrumentables.a.p/genarch_src_mm_page_pt.c.o
 *fill*         0xffffffff8016ae39        0x7 
 .rodata.__func__.3
                0xffffffff8016ae40       0x12 kernel/libnoninstrumentables.a.p/genarch_src_mm_page_pt.c.o
 *fill*         0xffffffff8016ae52        0xe 
 .rodata.__func__.4
                0xffffffff8016ae60       0x17 kernel/libnoninstrumentables.a.p/genarch_src_mm_page_pt.c.o
 *fill*         0xffffffff8016ae77        0x9 
 .rodata.pt_mapping_operations
                0xffffffff8016ae80       0x28 kernel/libnoninstrumentables.a.p/genarch_src_mm_page_pt.c.o
                0xffffffff8016ae80                pt_mapping_operations
 *fill*         0xffffffff8016aea8       0x18 
 .rodata.as_pt_operations
                0xffffffff8016aec0       0x28 kernel/libnoninstrumentables.a.p/genarch_src_mm_as_pt.c.o
                0xffffffff8016aec0                as_pt_operations
 .rodata.fb_font_glyph
                0xffffffff8016aee8      0xc20 kernel/libnoninstrumentables.a.p/genarch_src_fb_font-8x16.c.o
 .rodata.fb_init.str1.1
                0xffffffff8016bb08       0xa2 kernel/libnoninstrumentables.a.p/genarch_src_fb_fb.c.o
 .rodata.fb_init.str1.8
                0xffffffff8016bb08       0x29 kernel/libnoninstrumentables.a.p/genarch_src_fb_fb.c.o
 .rodata.fb_init
                0xffffffff8016bb08       0x70 kernel/libnoninstrumentables.a.p/genarch_src_fb_fb.c.o
 .rodata.__func__.0
                0xffffffff8016bb78        0x8 kernel/libnoninstrumentables.a.p/genarch_src_fb_fb.c.o
 .rodata.i8042_wire.str1.1
                0xffffffff8016bb80       0x22 kernel/libnoninstrumentables.a.p/genarch_src_drivers_i8042_i8042.c.o
 .rodata.i8042_wire.str1.8
                0xffffffff8016bb80       0x37 kernel/libnoninstrumentables.a.p/genarch_src_drivers_i8042_i8042.c.o
 .rodata.__func__.0
                0xffffffff8016bb80        0xb kernel/libnoninstrumentables.a.p/genarch_src_drivers_i8042_i8042.c.o
 .rodata.i8259_get_name.str1.1
                0xffffffff8016bb8b        0x6 kernel/libnoninstrumentables.a.p/genarch_src_drivers_i8259_i8259.c.o
 .rodata.ns16550_init.str1.1
                0xffffffff8016bb8b        0x8 kernel/libnoninstrumentables.a.p/genarch_src_drivers_ns16550_ns16550.c.o
 .rodata.ns16550_wire.str1.1
                0xffffffff8016bb8b       0x21 kernel/libnoninstrumentables.a.p/genarch_src_drivers_ns16550_ns16550.c.o
 .rodata.ns16550_wire.str1.8
                0xffffffff8016bb8b       0x3b kernel/libnoninstrumentables.a.p/genarch_src_drivers_ns16550_ns16550.c.o
 *fill*         0xffffffff8016bb8b        0x5 
 .rodata.__func__.0
                0xffffffff8016bb90        0xd kernel/libnoninstrumentables.a.p/genarch_src_drivers_ns16550_ns16550.c.o
 .rodata.kbrd_init.str1.1
                0xffffffff8016bb9d       0x21 kernel/libnoninstrumentables.a.p/genarch_src_kbrd_kbrd.c.o
 .rodata.kbrd_wire.str1.1
                0xffffffff8016bb9d       0x20 kernel/libnoninstrumentables.a.p/genarch_src_kbrd_kbrd.c.o
 .rodata.kbrd_wire.str1.8
                0xffffffff8016bb9d       0x2d kernel/libnoninstrumentables.a.p/genarch_src_kbrd_kbrd.c.o
 *fill*         0xffffffff8016bb9d        0x3 
 .rodata.__func__.0
                0xffffffff8016bba0        0xa kernel/libnoninstrumentables.a.p/genarch_src_kbrd_kbrd.c.o
 *fill*         0xffffffff8016bbaa        0x6 
 .rodata.ksrln  0xffffffff8016bbb0       0x40 kernel/libnoninstrumentables.a.p/genarch_src_srln_srln.c.o
 .rodata.srln_init.str1.1
                0xffffffff8016bbf0        0xb kernel/libnoninstrumentables.a.p/genarch_src_srln_srln.c.o
 .rodata.srln_wire.str1.1
                0xffffffff8016bbf0       0x20 kernel/libnoninstrumentables.a.p/genarch_src_srln_srln.c.o
 .rodata.srln_wire.str1.8
                0xffffffff8016bbf0       0x2d kernel/libnoninstrumentables.a.p/genarch_src_srln_srln.c.o
 .rodata.__func__.0
                0xffffffff8016bbf0        0xa kernel/libnoninstrumentables.a.p/genarch_src_srln_srln.c.o
 .rodata.multiboot_extract_argument.str1.1
                0xffffffff8016bbfa        0x1 kernel/libnoninstrumentables.a.p/genarch_src_multiboot_multiboot.c.o
 *fill*         0xffffffff8016bbfa        0x6 
 .rodata.ega_putuchar
                0xffffffff8016bc00     0x12d8 kernel/libnoninstrumentables.a.p/genarch_src_drivers_ega_ega.c.o
 .rodata.ega_init.str1.1
                0xffffffff8016ced8       0x58 kernel/libnoninstrumentables.a.p/genarch_src_drivers_ega_ega.c.o
 .rodata.bitmap_set_range.str1.1
                0xffffffff8016ced8       0x12 kernel/libnoninstrumentables.a.p/generic_common_adt_bitmap.c.o
 .rodata.bitmap_set_range.str1.8
                0xffffffff8016ced8       0x59 kernel/libnoninstrumentables.a.p/generic_common_adt_bitmap.c.o
 .rodata.bitmap_copy.str1.1
                0xffffffff8016ced8       0x2e kernel/libnoninstrumentables.a.p/generic_common_adt_bitmap.c.o
 .rodata.__func__.0
                0xffffffff8016ced8        0xc kernel/libnoninstrumentables.a.p/generic_common_adt_bitmap.c.o
 *fill*         0xffffffff8016cee4        0xc 
 .rodata.__func__.1
                0xffffffff8016cef0       0x13 kernel/libnoninstrumentables.a.p/generic_common_adt_bitmap.c.o
 *fill*         0xffffffff8016cf03        0xd 
 .rodata.__func__.2
                0xffffffff8016cf10       0x11 kernel/libnoninstrumentables.a.p/generic_common_adt_bitmap.c.o
 .rodata.alloc_table.part.0.str1.1
                0xffffffff8016cf21       0x12 kernel/libnoninstrumentables.a.p/generic_common_adt_hash_table.c.o
 .rodata.alloc_table.part.0.str1.8
                0xffffffff8016cf21       0x65 kernel/libnoninstrumentables.a.p/generic_common_adt_hash_table.c.o
 .rodata.resize.str1.1
                0xffffffff8016cf21        0xf kernel/libnoninstrumentables.a.p/generic_common_adt_hash_table.c.o
 .rodata.resize.str1.8
                0xffffffff8016cf21       0x21 kernel/libnoninstrumentables.a.p/generic_common_adt_hash_table.c.o
 .rodata.hash_table_create.str1.1
                0xffffffff8016cf21        0x2 kernel/libnoninstrumentables.a.p/generic_common_adt_hash_table.c.o
 .rodata.hash_table_create.str1.8
                0xffffffff8016cf21       0x30 kernel/libnoninstrumentables.a.p/generic_common_adt_hash_table.c.o
 .rodata.hash_table_destroy.str1.1
                0xffffffff8016cf21       0x12 kernel/libnoninstrumentables.a.p/generic_common_adt_hash_table.c.o
 .rodata.hash_table_insert.str1.1
                0xffffffff8016cf21        0x5 kernel/libnoninstrumentables.a.p/generic_common_adt_hash_table.c.o
 .rodata.hash_table_find_next.str1.1
                0xffffffff8016cf21        0x4 kernel/libnoninstrumentables.a.p/generic_common_adt_hash_table.c.o
 .rodata.hash_table_remove_item.str1.1
                0xffffffff8016cf21       0x19 kernel/libnoninstrumentables.a.p/generic_common_adt_hash_table.c.o
 *fill*         0xffffffff8016cf21        0xf 
 .rodata.__func__.1
                0xffffffff8016cf30       0x17 kernel/libnoninstrumentables.a.p/generic_common_adt_hash_table.c.o
 *fill*         0xffffffff8016cf47        0x9 
 .rodata.__func__.3
                0xffffffff8016cf50       0x15 kernel/libnoninstrumentables.a.p/generic_common_adt_hash_table.c.o
 *fill*         0xffffffff8016cf65        0xb 
 .rodata.__func__.4
                0xffffffff8016cf70       0x10 kernel/libnoninstrumentables.a.p/generic_common_adt_hash_table.c.o
 .rodata.__func__.6
                0xffffffff8016cf80       0x12 kernel/libnoninstrumentables.a.p/generic_common_adt_hash_table.c.o
 .rodata.__func__.7
                0xffffffff8016cf92        0x7 kernel/libnoninstrumentables.a.p/generic_common_adt_hash_table.c.o
 *fill*         0xffffffff8016cf99        0x7 
 .rodata.__func__.12
                0xffffffff8016cfa0       0x13 kernel/libnoninstrumentables.a.p/generic_common_adt_hash_table.c.o
 *fill*         0xffffffff8016cfb3        0xd 
 .rodata.__func__.14
                0xffffffff8016cfc0       0x12 kernel/libnoninstrumentables.a.p/generic_common_adt_hash_table.c.o
 .rodata.odict_pgu.str1.1
                0xffffffff8016cfd2       0x2d kernel/libnoninstrumentables.a.p/generic_common_adt_odict.c.o
 .rodata.odict_pgu.str1.8
                0xffffffff8016cfd2       0x30 kernel/libnoninstrumentables.a.p/generic_common_adt_odict.c.o
 .rodata.odict_unlink.str1.1
                0xffffffff8016cfd2       0x22 kernel/libnoninstrumentables.a.p/generic_common_adt_odict.c.o
 .rodata.odict_search_start_node.str1.8
                0xffffffff8016cfd2       0x25 kernel/libnoninstrumentables.a.p/generic_common_adt_odict.c.o
 .rodata.odict_rotate_right.str1.1
                0xffffffff8016cfd2       0x34 kernel/libnoninstrumentables.a.p/generic_common_adt_odict.c.o
 .rodata.odict_rotate_left.str1.1
                0xffffffff8016cfd2        0xa kernel/libnoninstrumentables.a.p/generic_common_adt_odict.c.o
 .rodata.odict_finalize.str1.1
                0xffffffff8016cfd2       0x14 kernel/libnoninstrumentables.a.p/generic_common_adt_odict.c.o
 .rodata.odict_insert.str1.1
                0xffffffff8016cfd2       0x20 kernel/libnoninstrumentables.a.p/generic_common_adt_odict.c.o
 .rodata.odict_remove.str1.1
                0xffffffff8016cfd2       0x8e kernel/libnoninstrumentables.a.p/generic_common_adt_odict.c.o
 *fill*         0xffffffff8016cfd2        0x6 
 .rodata.__func__.0
                0xffffffff8016cfd8        0xd kernel/libnoninstrumentables.a.p/generic_common_adt_odict.c.o
 *fill*         0xffffffff8016cfe5        0xb 
 .rodata.__func__.1
                0xffffffff8016cff0       0x10 kernel/libnoninstrumentables.a.p/generic_common_adt_odict.c.o
 .rodata.__func__.2
                0xffffffff8016d000        0xd kernel/libnoninstrumentables.a.p/generic_common_adt_odict.c.o
 *fill*         0xffffffff8016d00d        0x3 
 .rodata.__func__.3
                0xffffffff8016d010       0x12 kernel/libnoninstrumentables.a.p/generic_common_adt_odict.c.o
 *fill*         0xffffffff8016d022        0xe 
 .rodata.__func__.4
                0xffffffff8016d030       0x16 kernel/libnoninstrumentables.a.p/generic_common_adt_odict.c.o
 *fill*         0xffffffff8016d046        0xa 
 .rodata.__func__.5
                0xffffffff8016d050       0x13 kernel/libnoninstrumentables.a.p/generic_common_adt_odict.c.o
 *fill*         0xffffffff8016d063        0x5 
 .rodata.__func__.6
                0xffffffff8016d068        0xa kernel/libnoninstrumentables.a.p/generic_common_adt_odict.c.o
 *fill*         0xffffffff8016d072        0xe 
 .rodata.__func__.7
                0xffffffff8016d080       0x18 kernel/libnoninstrumentables.a.p/generic_common_adt_odict.c.o
 .rodata.__func__.8
                0xffffffff8016d098        0xd kernel/libnoninstrumentables.a.p/generic_common_adt_odict.c.o
 *fill*         0xffffffff8016d0a5        0x3 
 .rodata.__func__.9
                0xffffffff8016d0a8        0xf kernel/libnoninstrumentables.a.p/generic_common_adt_odict.c.o
 .rodata.printf_core.str1.1
                0xffffffff8016d0b7       0x29 kernel/libnoninstrumentables.a.p/generic_common_printf_printf_core.c.o
 *fill*         0xffffffff8016d0b7        0x1 
 .rodata.printf_core
                0xffffffff8016d0b8      0x9c0 kernel/libnoninstrumentables.a.p/generic_common_printf_printf_core.c.o
 .rodata.invalch
                0xffffffff8016da78        0x1 kernel/libnoninstrumentables.a.p/generic_common_printf_printf_core.c.o
 .rodata.str_ncpy.part.0.str1.1
                0xffffffff8016da79       0x1b kernel/libnoninstrumentables.a.p/generic_common_str.c.o
 .rodata.str_ncpy.part.0.str1.8
                0xffffffff8016da79       0x2a kernel/libnoninstrumentables.a.p/generic_common_str.c.o
 .rodata.str_cpy.str1.1
                0xffffffff8016da79        0xc kernel/libnoninstrumentables.a.p/generic_common_str.c.o
 .rodata.bin_order_suffix.str1.1
                0xffffffff8016da79       0x1a kernel/libnoninstrumentables.a.p/generic_common_str.c.o
 *fill*         0xffffffff8016da79        0x7 
 .rodata.__func__.3
                0xffffffff8016da80        0xc kernel/libnoninstrumentables.a.p/generic_common_str.c.o
 *fill*         0xffffffff8016da8c        0x4 
 .rodata.__func__.5
                0xffffffff8016da90        0x9 kernel/libnoninstrumentables.a.p/generic_common_str.c.o
 *fill*         0xffffffff8016da99        0x7 
 .rodata.__func__.6
                0xffffffff8016daa0        0x8 kernel/libnoninstrumentables.a.p/generic_common_str.c.o
 .rodata.str1.1
                0xffffffff8016daa8      0x81e kernel/libnoninstrumentables.a.p/generic_common_str_error.c.o
 .rodata.str1.8
                0xffffffff8016daa8      0x82c kernel/libnoninstrumentables.a.p/generic_common_str_error.c.o
 *fill*         0xffffffff8016daa8       0x18 
 .rodata.err_desc
                0xffffffff8016dac0      0x310 kernel/libnoninstrumentables.a.p/generic_common_str_error.c.o
 *fill*         0xffffffff8016ddd0       0x10 
 .rodata.err_name
                0xffffffff8016dde0      0x310 kernel/libnoninstrumentables.a.p/generic_common_str_error.c.o
 *fill*         0xffffffff8016e0f0       0x10 
 .rodata.err_num
                0xffffffff8016e100      0x188 kernel/libnoninstrumentables.a.p/generic_common_str_error.c.o
 .rodata._strtoumax.constprop.0.str1.1
                0xffffffff8016e288       0x1f kernel/libnoninstrumentables.a.p/generic_common_strtol.c.o
 .rodata._strtoumax.constprop.0.str1.8
                0xffffffff8016e288       0x2d kernel/libnoninstrumentables.a.p/generic_common_strtol.c.o
 .rodata.str_uint8_t.str1.1
                0xffffffff8016e288        0xf kernel/libnoninstrumentables.a.p/generic_common_strtol.c.o
 .rodata.__func__.2
                0xffffffff8016e288        0xd kernel/libnoninstrumentables.a.p/generic_common_strtol.c.o
 *fill*         0xffffffff8016e295        0x3 
 .rodata.__func__.6
                0xffffffff8016e298        0xb kernel/libnoninstrumentables.a.p/generic_common_strtol.c.o
 .rodata.cap_get.part.0.str1.1
                0xffffffff8016e2a3       0x12 kernel/libnoninstrumentables.a.p/generic_src_cap_cap.c.o
 .rodata.cap_get.part.0.str1.8
                0xffffffff8016e2a3       0x53 kernel/libnoninstrumentables.a.p/generic_src_cap_cap.c.o
 .rodata.caps_init.str1.1
                0xffffffff8016e2a3       0x10 kernel/libnoninstrumentables.a.p/generic_src_cap_cap.c.o
 .rodata.cap_publish.str1.1
                0xffffffff8016e2a3        0x4 kernel/libnoninstrumentables.a.p/generic_src_cap_cap.c.o
 .rodata.cap_free.str1.8
                0xffffffff8016e2a3       0x4c kernel/libnoninstrumentables.a.p/generic_src_cap_cap.c.o
 *fill*         0xffffffff8016e2a3        0x5 
 .rodata.__func__.0
                0xffffffff8016e2a8        0x9 kernel/libnoninstrumentables.a.p/generic_src_cap_cap.c.o
 *fill*         0xffffffff8016e2b1        0x7 
 .rodata.__func__.1
                0xffffffff8016e2b8        0x8 kernel/libnoninstrumentables.a.p/generic_src_cap_cap.c.o
 .rodata.__func__.2
                0xffffffff8016e2c0        0xc kernel/libnoninstrumentables.a.p/generic_src_cap_cap.c.o
 *fill*         0xffffffff8016e2cc       0x14 
 .rodata.caps_ops
                0xffffffff8016e2e0       0x28 kernel/libnoninstrumentables.a.p/generic_src_cap_cap.c.o
 .rodata.indev_initialize.str1.1
                0xffffffff8016e308       0x13 kernel/libnoninstrumentables.a.p/generic_src_console_chardev.c.o
 .rodata.indev_push_character.str1.1
                0xffffffff8016e308       0x18 kernel/libnoninstrumentables.a.p/generic_src_console_chardev.c.o
 .rodata.indev_push_character.str1.8
                0xffffffff8016e308       0x33 kernel/libnoninstrumentables.a.p/generic_src_console_chardev.c.o
 .rodata.indev_pop_character.str1.1
                0xffffffff8016e308       0x29 kernel/libnoninstrumentables.a.p/generic_src_console_chardev.c.o
 .rodata.outdev_initialize.str1.1
                0xffffffff8016e308       0x14 kernel/libnoninstrumentables.a.p/generic_src_console_chardev.c.o
 *fill*         0xffffffff8016e308        0x8 
 .rodata.__func__.0
                0xffffffff8016e310       0x15 kernel/libnoninstrumentables.a.p/generic_src_console_chardev.c.o
 .rodata.stdin_wire.str1.1
                0xffffffff8016e325        0x6 kernel/libnoninstrumentables.a.p/generic_src_console_console.c.o
 .rodata.stdout_wire.str1.1
                0xffffffff8016e325        0x7 kernel/libnoninstrumentables.a.p/generic_src_console_console.c.o
 .rodata.kio_init.str1.1
                0xffffffff8016e325       0x14 kernel/libnoninstrumentables.a.p/generic_src_console_console.c.o
 .rodata.grab_console.str1.1
                0xffffffff8016e325        0x9 kernel/libnoninstrumentables.a.p/generic_src_console_console.c.o
 .rodata.sys_kio.str1.1
                0xffffffff8016e325        0xe kernel/libnoninstrumentables.a.p/generic_src_console_console.c.o
 .rodata.str1.1
                0xffffffff8016e325        0x9 kernel/libnoninstrumentables.a.p/generic_src_console_console.c.o
 .rodata.console_prompt_display_all_hints.str1.1
                0xffffffff8016e325       0x26 kernel/libnoninstrumentables.a.p/generic_src_console_prompt.c.o
 .rodata.console_prompt_display_all_hints.str1.8
                0xffffffff8016e325       0x61 kernel/libnoninstrumentables.a.p/generic_src_console_prompt.c.o
 .rodata.console_prompt_more_hints.str1.1
                0xffffffff8016e325       0x2b kernel/libnoninstrumentables.a.p/generic_src_console_prompt.c.o
 *fill*         0xffffffff8016e325        0xb 
 .rodata.__func__.0
                0xffffffff8016e330       0x1a kernel/libnoninstrumentables.a.p/generic_src_console_prompt.c.o
 *fill*         0xffffffff8016e34a       0x16 
 .rodata.__func__.1
                0xffffffff8016e360       0x21 kernel/libnoninstrumentables.a.p/generic_src_console_prompt.c.o
 .rodata.irq_init.str1.1
                0xffffffff8016e381       0x22 kernel/libnoninstrumentables.a.p/generic_src_ddi_irq.c.o
 .rodata.irq_init.str1.8
                0xffffffff8016e381       0x2b kernel/libnoninstrumentables.a.p/generic_src_ddi_irq.c.o
 .rodata.irq_initialize.str1.1
                0xffffffff8016e381        0x9 kernel/libnoninstrumentables.a.p/generic_src_ddi_irq.c.o
 *fill*         0xffffffff8016e381        0x7 
 .rodata.__func__.0
                0xffffffff8016e388        0x9 kernel/libnoninstrumentables.a.p/generic_src_ddi_irq.c.o
 *fill*         0xffffffff8016e391        0xf 
 .rodata.irq_ht_ops
                0xffffffff8016e3a0       0x28 kernel/libnoninstrumentables.a.p/generic_src_ddi_irq.c.o
 .rodata.str1.1
                0xffffffff8016e3c8       0x36 kernel/libnoninstrumentables.a.p/generic_src_ddi_irq.c.o
 .rodata.read_uint.part.0.str1.1
                0xffffffff8016e3c8        0xe kernel/libnoninstrumentables.a.p/generic_src_debug_line.c.o
 .rodata.safe_increment.part.0.str1.1
                0xffffffff8016e3c8       0x24 kernel/libnoninstrumentables.a.p/generic_src_debug_line.c.o
 .rodata.safe_increment.part.0.str1.8
                0xffffffff8016e3c8       0x2e kernel/libnoninstrumentables.a.p/generic_src_debug_line.c.o
 .rodata.debug_line_program_header_parse.str1.1
                0xffffffff8016e3c8       0x45 kernel/libnoninstrumentables.a.p/generic_src_debug_line.c.o
 .rodata.debug_line_program_advance
                0xffffffff8016e3c8       0x68 kernel/libnoninstrumentables.a.p/generic_src_debug_line.c.o
 .rodata.debug_line_get_address_info.str1.1
                0xffffffff8016e430       0x34 kernel/libnoninstrumentables.a.p/generic_src_debug_line.c.o
 .rodata.debug_line_get_address_info.str1.8
                0xffffffff8016e430       0x70 kernel/libnoninstrumentables.a.p/generic_src_debug_line.c.o
 .rodata.__func__.0
                0xffffffff8016e430        0xf kernel/libnoninstrumentables.a.p/generic_src_debug_line.c.o
 *fill*         0xffffffff8016e43f        0x1 
 .rodata.__func__.1
                0xffffffff8016e440       0x12 kernel/libnoninstrumentables.a.p/generic_src_debug_line.c.o
 *fill*         0xffffffff8016e452        0xe 
 .rodata.__func__.2
                0xffffffff8016e460       0x1c kernel/libnoninstrumentables.a.p/generic_src_debug_line.c.o
 .rodata.str1.1
                0xffffffff8016e47c     0x26e3 kernel/libnoninstrumentables.a.p/generic_src_debug_names.c.o
 *fill*         0xffffffff8016e47c        0x4 
 .rodata.dw_lnct_names
                0xffffffff8016e480       0x30 kernel/libnoninstrumentables.a.p/generic_src_debug_names.c.o
 *fill*         0xffffffff8016e4b0       0x10 
 .rodata.dw_lne_names
                0xffffffff8016e4c0       0x28 kernel/libnoninstrumentables.a.p/generic_src_debug_names.c.o
 *fill*         0xffffffff8016e4e8       0x18 
 .rodata.dw_lns_names
                0xffffffff8016e500       0x68 kernel/libnoninstrumentables.a.p/generic_src_debug_names.c.o
 *fill*         0xffffffff8016e568       0x18 
 .rodata.dw_form_names
                0xffffffff8016e580      0x168 kernel/libnoninstrumentables.a.p/generic_src_debug_names.c.o
 .rodata.panic_common.str1.1
                0xffffffff8016e6e8      0x105 kernel/libnoninstrumentables.a.p/generic_src_debug_panic.c.o
 .rodata.panic_common.str1.8
                0xffffffff8016e6e8       0x31 kernel/libnoninstrumentables.a.p/generic_src_debug_panic.c.o
 .rodata.get_debug_sections.str1.1
                0xffffffff8016e6e8       0xa3 kernel/libnoninstrumentables.a.p/generic_src_debug_sections.c.o
 .rodata.get_debug_sections.str1.8
                0xffffffff8016e6e8      0x16e kernel/libnoninstrumentables.a.p/generic_src_debug_sections.c.o
 .rodata.stack_trace_ctx.str1.1
                0xffffffff8016e6e8       0x41 kernel/libnoninstrumentables.a.p/generic_src_debug_stacktrace.c.o
 .rodata.symtab_fmt_name_lookup.str1.1
                0xffffffff8016e6e8        0xa kernel/libnoninstrumentables.a.p/generic_src_debug_symtab.c.o
 .rodata.symtab_print_search.str1.8
                0xffffffff8016e6e8       0x22 kernel/libnoninstrumentables.a.p/generic_src_debug_symtab.c.o
 .rodata.symtab_print_search.str1.1
                0xffffffff8016e6e8        0x8 kernel/libnoninstrumentables.a.p/generic_src_debug_symtab.c.o
 .rodata.safe_increment.part.0.str1.1
                0xffffffff8016e6e8       0x24 kernel/libnoninstrumentables.a.p/generic_src_debug_util.c.o
 .rodata.safe_increment.part.0.str1.8
                0xffffffff8016e6e8       0x2e kernel/libnoninstrumentables.a.p/generic_src_debug_util.c.o
 .rodata.read_uint.part.0.str1.1
                0xffffffff8016e6e8        0xe kernel/libnoninstrumentables.a.p/generic_src_debug_util.c.o
 .rodata.skip_data
                0xffffffff8016e6e8       0x98 kernel/libnoninstrumentables.a.p/generic_src_debug_util.c.o
 .rodata.print_formed_data
                0xffffffff8016e780      0x130 kernel/libnoninstrumentables.a.p/generic_src_debug_util.c.o
 .rodata.__func__.0
                0xffffffff8016e8b0        0xf kernel/libnoninstrumentables.a.p/generic_src_debug_util.c.o
 .rodata.event_init.str1.1
                0xffffffff8016e8bf        0xb kernel/libnoninstrumentables.a.p/generic_src_ipc_event.c.o
 .rodata.event_set_unmask_callback.str1.1
                0xffffffff8016e8bf       0x23 kernel/libnoninstrumentables.a.p/generic_src_ipc_event.c.o
 .rodata.event_set_unmask_callback.str1.8
                0xffffffff8016e8bf       0x2d kernel/libnoninstrumentables.a.p/generic_src_ipc_event.c.o
 .rodata.event_task_set_unmask_callback.str1.1
                0xffffffff8016e8bf       0x2e kernel/libnoninstrumentables.a.p/generic_src_ipc_event.c.o
 *fill*         0xffffffff8016e8bf        0x1 
 .rodata.__func__.0
                0xffffffff8016e8c0       0x12 kernel/libnoninstrumentables.a.p/generic_src_ipc_event.c.o
 *fill*         0xffffffff8016e8d2        0x6 
 .rodata.__func__.1
                0xffffffff8016e8d8        0xd kernel/libnoninstrumentables.a.p/generic_src_ipc_event.c.o
 *fill*         0xffffffff8016e8e5        0xb 
 .rodata.__func__.3
                0xffffffff8016e8f0       0x1a kernel/libnoninstrumentables.a.p/generic_src_ipc_event.c.o
 .rodata.ipc_forget_call.str1.1
                0xffffffff8016e90a       0x26 kernel/libnoninstrumentables.a.p/generic_src_ipc_ipc.c.o
 .rodata.ipc_forget_call.str1.8
                0xffffffff8016e90a       0x84 kernel/libnoninstrumentables.a.p/generic_src_ipc_ipc.c.o
 .rodata.print_task_phone_cb.str1.1
                0xffffffff8016e90a       0x4b kernel/libnoninstrumentables.a.p/generic_src_ipc_ipc.c.o
 .rodata.ipc_print_call_list.str1.1
                0xffffffff8016e90a       0x26 kernel/libnoninstrumentables.a.p/generic_src_ipc_ipc.c.o
 .rodata.ipc_print_call_list.str1.8
                0xffffffff8016e90a       0x29 kernel/libnoninstrumentables.a.p/generic_src_ipc_ipc.c.o
 .rodata.ipc_call_alloc.str1.1
                0xffffffff8016e90a        0xc kernel/libnoninstrumentables.a.p/generic_src_ipc_ipc.c.o
 .rodata.ipc_answerbox_init.str1.1
                0xffffffff8016e90a       0x1d kernel/libnoninstrumentables.a.p/generic_src_ipc_ipc.c.o
 .rodata.ipc_call_sync.str1.1
                0xffffffff8016e90a       0x2e kernel/libnoninstrumentables.a.p/generic_src_ipc_ipc.c.o
 .rodata.ipc_phone_hangup.str1.1
                0xffffffff8016e90a        0x5 kernel/libnoninstrumentables.a.p/generic_src_ipc_ipc.c.o
 .rodata.ipc_cleanup_call_list.str1.1
                0xffffffff8016e90a       0x15 kernel/libnoninstrumentables.a.p/generic_src_ipc_ipc.c.o
 .rodata.ipc_answerbox_slam_phones.str1.1
                0xffffffff8016e90a        0xb kernel/libnoninstrumentables.a.p/generic_src_ipc_ipc.c.o
 .rodata.ipc_answerbox_slam_phones.str1.8
                0xffffffff8016e90a       0x6c kernel/libnoninstrumentables.a.p/generic_src_ipc_ipc.c.o
 .rodata.ipc_cleanup.str1.8
                0xffffffff8016e90a       0x68 kernel/libnoninstrumentables.a.p/generic_src_ipc_ipc.c.o
 .rodata.ipc_cleanup.str1.1
                0xffffffff8016e90a       0x14 kernel/libnoninstrumentables.a.p/generic_src_ipc_ipc.c.o
 .rodata.ipc_init.str1.1
                0xffffffff8016e90a       0x1b kernel/libnoninstrumentables.a.p/generic_src_ipc_ipc.c.o
 .rodata.ipc_print_task.str1.1
                0xffffffff8016e90a       0x7f kernel/libnoninstrumentables.a.p/generic_src_ipc_ipc.c.o
 .rodata.ipc_print_task.str1.8
                0xffffffff8016e90a       0x50 kernel/libnoninstrumentables.a.p/generic_src_ipc_ipc.c.o
 *fill*         0xffffffff8016e90a       0x16 
 .rodata.__func__.0
                0xffffffff8016e920       0x20 kernel/libnoninstrumentables.a.p/generic_src_ipc_ipc.c.o
 .rodata.__func__.1
                0xffffffff8016e940        0xc kernel/libnoninstrumentables.a.p/generic_src_ipc_ipc.c.o
 *fill*         0xffffffff8016e94c        0x4 
 .rodata.__func__.2
                0xffffffff8016e950       0x1a kernel/libnoninstrumentables.a.p/generic_src_ipc_ipc.c.o
 *fill*         0xffffffff8016e96a        0x6 
 .rodata.__func__.3
                0xffffffff8016e970       0x16 kernel/libnoninstrumentables.a.p/generic_src_ipc_ipc.c.o
 *fill*         0xffffffff8016e986        0xa 
 .rodata.__func__.4
                0xffffffff8016e990       0x11 kernel/libnoninstrumentables.a.p/generic_src_ipc_ipc.c.o
 *fill*         0xffffffff8016e9a1        0xf 
 .rodata.__func__.5
                0xffffffff8016e9b0       0x10 kernel/libnoninstrumentables.a.p/generic_src_ipc_ipc.c.o
 .rodata.__func__.6
                0xffffffff8016e9c0        0xe kernel/libnoninstrumentables.a.p/generic_src_ipc_ipc.c.o
 *fill*         0xffffffff8016e9ce        0x2 
 .rodata.ipc_irq_top_half_claim
                0xffffffff8016e9d0       0x70 kernel/libnoninstrumentables.a.p/generic_src_ipc_irq.c.o
 .rodata.ipc_irq_top_half_handler.str1.1
                0xffffffff8016ea40       0x2c kernel/libnoninstrumentables.a.p/generic_src_ipc_irq.c.o
 .rodata.ipc_irq_top_half_handler.str1.8
                0xffffffff8016ea40       0x50 kernel/libnoninstrumentables.a.p/generic_src_ipc_irq.c.o
 .rodata.ipc_irq_unsubscribe.str1.8
                0xffffffff8016ea40       0x26 kernel/libnoninstrumentables.a.p/generic_src_ipc_irq.c.o
 .rodata.__func__.0
                0xffffffff8016ea40       0x19 kernel/libnoninstrumentables.a.p/generic_src_ipc_irq.c.o
 *fill*         0xffffffff8016ea59        0x7 
 .rodata.__func__.1
                0xffffffff8016ea60       0x14 kernel/libnoninstrumentables.a.p/generic_src_ipc_irq.c.o
 .rodata.answer_preprocess.str1.1
                0xffffffff8016ea74       0x22 kernel/libnoninstrumentables.a.p/generic_src_ipc_ops_dataread.c.o
 .rodata.answer_preprocess.str1.8
                0xffffffff8016ea74       0x34 kernel/libnoninstrumentables.a.p/generic_src_ipc_ops_dataread.c.o
 *fill*         0xffffffff8016ea74        0xc 
 .rodata.__func__.0
                0xffffffff8016ea80       0x12 kernel/libnoninstrumentables.a.p/generic_src_ipc_ops_dataread.c.o
 .rodata.answer_preprocess.str1.1
                0xffffffff8016ea92       0x21 kernel/libnoninstrumentables.a.p/generic_src_ipc_ops_datawrite.c.o
 .rodata.answer_preprocess.str1.8
                0xffffffff8016ea92       0x35 kernel/libnoninstrumentables.a.p/generic_src_ipc_ops_datawrite.c.o
 *fill*         0xffffffff8016ea92        0xe 
 .rodata.__func__.0
                0xffffffff8016eaa0       0x12 kernel/libnoninstrumentables.a.p/generic_src_ipc_ops_datawrite.c.o
 .rodata.request_preprocess.part.0.str1.1
                0xffffffff8016eab2       0x2a kernel/libnoninstrumentables.a.p/generic_src_ipc_sysipc.c.o
 .rodata.request_preprocess.part.0.str1.8
                0xffffffff8016eab2       0x2e kernel/libnoninstrumentables.a.p/generic_src_ipc_sysipc.c.o
 .rodata.answer_preprocess.str1.1
                0xffffffff8016eab2       0x3a kernel/libnoninstrumentables.a.p/generic_src_ipc_sysipc.c.o
 .rodata.ipc_req_internal.str1.1
                0xffffffff8016eab2       0x20 kernel/libnoninstrumentables.a.p/generic_src_ipc_sysipc.c.o
 .rodata.sys_ipc_answer_fast.str1.8
                0xffffffff8016eab2       0x23 kernel/libnoninstrumentables.a.p/generic_src_ipc_sysipc.c.o
 .rodata.sys_ipc_wait_for_call.str1.1
                0xffffffff8016eab2       0x1a kernel/libnoninstrumentables.a.p/generic_src_ipc_sysipc.c.o
 *fill*         0xffffffff8016eab2        0xe 
 .rodata.__func__.0
                0xffffffff8016eac0       0x10 kernel/libnoninstrumentables.a.p/generic_src_ipc_sysipc.c.o
 .rodata.__func__.1
                0xffffffff8016ead0       0x16 kernel/libnoninstrumentables.a.p/generic_src_ipc_sysipc.c.o
 *fill*         0xffffffff8016eae6        0xa 
 .rodata.__func__.2
                0xffffffff8016eaf0       0x14 kernel/libnoninstrumentables.a.p/generic_src_ipc_sysipc.c.o
 *fill*         0xffffffff8016eb04        0xc 
 .rodata.__func__.3
                0xffffffff8016eb10       0x14 kernel/libnoninstrumentables.a.p/generic_src_ipc_sysipc.c.o
 *fill*         0xffffffff8016eb24        0x4 
 .rodata.__func__.4
                0xffffffff8016eb28        0xf kernel/libnoninstrumentables.a.p/generic_src_ipc_sysipc.c.o
 *fill*         0xffffffff8016eb37        0x9 
 .rodata.__func__.5
                0xffffffff8016eb40       0x13 kernel/libnoninstrumentables.a.p/generic_src_ipc_sysipc.c.o
 *fill*         0xffffffff8016eb53        0xd 
 .rodata.__func__.6
                0xffffffff8016eb60       0x11 kernel/libnoninstrumentables.a.p/generic_src_ipc_sysipc.c.o
 *fill*         0xffffffff8016eb71        0xf 
 .rodata.__func__.7
                0xffffffff8016eb80       0x12 kernel/libnoninstrumentables.a.p/generic_src_ipc_sysipc.c.o
 *fill*         0xffffffff8016eb92        0xe 
 .rodata.sysipc_ops
                0xffffffff8016eba0       0x50 kernel/libnoninstrumentables.a.p/generic_src_ipc_sysipc_ops.c.o
 .rodata.halt.str1.8
                0xffffffff8016ebf0       0x24 kernel/libnoninstrumentables.a.p/generic_src_lib_halt.c.o
 .rodata.halt.str1.1
                0xffffffff8016ebf0       0x20 kernel/libnoninstrumentables.a.p/generic_src_lib_halt.c.o
 .rodata.ra_arena_create.str1.1
                0xffffffff8016ebf0        0xb kernel/libnoninstrumentables.a.p/generic_src_lib_ra.c.o
 .rodata.ra_alloc.str1.1
                0xffffffff8016ebf0       0x5a kernel/libnoninstrumentables.a.p/generic_src_lib_ra.c.o
 .rodata.ra_alloc.str1.8
                0xffffffff8016ebf0       0x72 kernel/libnoninstrumentables.a.p/generic_src_lib_ra.c.o
 .rodata.ra_free.str1.8
                0xffffffff8016ebf0       0xbd kernel/libnoninstrumentables.a.p/generic_src_lib_ra.c.o
 .rodata.ra_free.str1.1
                0xffffffff8016ebf0       0x40 kernel/libnoninstrumentables.a.p/generic_src_lib_ra.c.o
 .rodata.ra_init.str1.1
                0xffffffff8016ebf0        0xd kernel/libnoninstrumentables.a.p/generic_src_lib_ra.c.o
 .rodata.__func__.0
                0xffffffff8016ebf0        0xd kernel/libnoninstrumentables.a.p/generic_src_lib_ra.c.o
 *fill*         0xffffffff8016ebfd        0x3 
 .rodata.__func__.1
                0xffffffff8016ec00        0xe kernel/libnoninstrumentables.a.p/generic_src_lib_ra.c.o
 *fill*         0xffffffff8016ec0e        0x2 
 .rodata.__func__.2
                0xffffffff8016ec10        0x9 kernel/libnoninstrumentables.a.p/generic_src_lib_ra.c.o
 *fill*         0xffffffff8016ec19        0x7 
 .rodata.used_ops
                0xffffffff8016ec20       0x28 kernel/libnoninstrumentables.a.p/generic_src_lib_ra.c.o
 .rodata.init_rd.str1.1
                0xffffffff8016ec48       0x4a kernel/libnoninstrumentables.a.p/generic_src_lib_rd.c.o
 .rodata.init_rd.str1.8
                0xffffffff8016ec48       0x50 kernel/libnoninstrumentables.a.p/generic_src_lib_rd.c.o
 .rodata.__func__.0
                0xffffffff8016ec48        0x8 kernel/libnoninstrumentables.a.p/generic_src_lib_rd.c.o
 .rodata.sys_klog.str1.1
                0xffffffff8016ec50        0x3 kernel/libnoninstrumentables.a.p/generic_src_log_log.c.o
 .rodata.str1.1
                0xffffffff8016ec50        0x9 kernel/libnoninstrumentables.a.p/generic_src_log_log.c.o
 .rodata.reboot.str1.1
                0xffffffff8016ec50       0x15 kernel/libnoninstrumentables.a.p/generic_src_main_shutdown.c.o
 .rodata.version_print.str1.1
                0xffffffff8016ec50       0x50 kernel/libnoninstrumentables.a.p/generic_src_main_version.c.o
 .rodata.version_print.str1.8
                0xffffffff8016ec50       0x58 kernel/libnoninstrumentables.a.p/generic_src_main_version.c.o
 .rodata.anon_page_fault.str1.1
                0xffffffff8016ec50       0x79 kernel/libnoninstrumentables.a.p/generic_src_mm_backend_anon.c.o
 .rodata.anon_page_fault.str1.8
                0xffffffff8016ec50       0x33 kernel/libnoninstrumentables.a.p/generic_src_mm_backend_anon.c.o
 .rodata.anon_share.str1.1
                0xffffffff8016ec50       0x46 kernel/libnoninstrumentables.a.p/generic_src_mm_backend_anon.c.o
 .rodata.anon_share.str1.8
                0xffffffff8016ec50       0x26 kernel/libnoninstrumentables.a.p/generic_src_mm_backend_anon.c.o
 .rodata.anon_frame_free.str1.1
                0xffffffff8016ec50       0x1c kernel/libnoninstrumentables.a.p/generic_src_mm_backend_anon.c.o
 .rodata.__func__.0
                0xffffffff8016ec50        0xb kernel/libnoninstrumentables.a.p/generic_src_mm_backend_anon.c.o
 *fill*         0xffffffff8016ec5b        0x5 
 .rodata.__func__.1
                0xffffffff8016ec60       0x10 kernel/libnoninstrumentables.a.p/generic_src_mm_backend_anon.c.o
 .rodata.__func__.2
                0xffffffff8016ec70       0x10 kernel/libnoninstrumentables.a.p/generic_src_mm_backend_anon.c.o
 .rodata.elf_frame_free.str1.1
                0xffffffff8016ec80       0x48 kernel/libnoninstrumentables.a.p/generic_src_mm_backend_elf.c.o
 .rodata.elf_frame_free.str1.8
                0xffffffff8016ec80       0x9a kernel/libnoninstrumentables.a.p/generic_src_mm_backend_elf.c.o
 .rodata.elf_page_fault.str1.1
                0xffffffff8016ec80       0x65 kernel/libnoninstrumentables.a.p/generic_src_mm_backend_elf.c.o
 .rodata.elf_share.str1.1
                0xffffffff8016ec80       0x2e kernel/libnoninstrumentables.a.p/generic_src_mm_backend_elf.c.o
 .rodata.__func__.0
                0xffffffff8016ec80        0xa kernel/libnoninstrumentables.a.p/generic_src_mm_backend_elf.c.o
 *fill*         0xffffffff8016ec8a        0x6 
 .rodata.__func__.1
                0xffffffff8016ec90        0xf kernel/libnoninstrumentables.a.p/generic_src_mm_backend_elf.c.o
 *fill*         0xffffffff8016ec9f        0x1 
 .rodata.__func__.2
                0xffffffff8016eca0        0xf kernel/libnoninstrumentables.a.p/generic_src_mm_backend_elf.c.o
 .rodata.phys_page_fault.str1.1
                0xffffffff8016ecaf       0x79 kernel/libnoninstrumentables.a.p/generic_src_mm_backend_phys.c.o
 .rodata.phys_page_fault.str1.8
                0xffffffff8016ecaf       0x74 kernel/libnoninstrumentables.a.p/generic_src_mm_backend_phys.c.o
 .rodata.phys_share.str1.1
                0xffffffff8016ecaf       0x1e kernel/libnoninstrumentables.a.p/generic_src_mm_backend_phys.c.o
 *fill*         0xffffffff8016ecaf        0x1 
 .rodata.__func__.0
                0xffffffff8016ecb0        0xb kernel/libnoninstrumentables.a.p/generic_src_mm_backend_phys.c.o
 *fill*         0xffffffff8016ecbb        0x5 
 .rodata.__func__.1
                0xffffffff8016ecc0       0x10 kernel/libnoninstrumentables.a.p/generic_src_mm_backend_phys.c.o
 .rodata.user_page_fault.str1.1
                0xffffffff8016ecd0       0x79 kernel/libnoninstrumentables.a.p/generic_src_mm_backend_user.c.o
 .rodata.user_page_fault.str1.8
                0xffffffff8016ecd0       0x78 kernel/libnoninstrumentables.a.p/generic_src_mm_backend_user.c.o
 .rodata.user_frame_free.str1.1
                0xffffffff8016ecd0       0x1c kernel/libnoninstrumentables.a.p/generic_src_mm_backend_user.c.o
 .rodata.__func__.0
                0xffffffff8016ecd0       0x10 kernel/libnoninstrumentables.a.p/generic_src_mm_backend_user.c.o
 .rodata.__func__.1
                0xffffffff8016ece0       0x10 kernel/libnoninstrumentables.a.p/generic_src_mm_backend_user.c.o
 .rodata.km_page_alloc.part.0.str1.8
                0xffffffff8016ecf0       0x29 kernel/libnoninstrumentables.a.p/generic_src_mm_km.c.o
 .rodata.km_map_aligned.str1.1
                0xffffffff8016ecf0       0x20 kernel/libnoninstrumentables.a.p/generic_src_mm_km.c.o
 .rodata.km_map_aligned.str1.8
                0xffffffff8016ecf0       0x51 kernel/libnoninstrumentables.a.p/generic_src_mm_km.c.o
 .rodata.km_non_identity_init.str1.1
                0xffffffff8016ecf0       0x14 kernel/libnoninstrumentables.a.p/generic_src_mm_km.c.o
 .rodata.km_non_identity_span_add.str1.1
                0xffffffff8016ecf0        0xb kernel/libnoninstrumentables.a.p/generic_src_mm_km.c.o
 .rodata.km_temporary_page_get.str1.1
                0xffffffff8016ecf0        0xe kernel/libnoninstrumentables.a.p/generic_src_mm_km.c.o
 .rodata.km_temporary_page_get.str1.8
                0xffffffff8016ecf0       0x2e kernel/libnoninstrumentables.a.p/generic_src_mm_km.c.o
 .rodata.__func__.0
                0xffffffff8016ecf0       0x16 kernel/libnoninstrumentables.a.p/generic_src_mm_km.c.o
 *fill*         0xffffffff8016ed06        0xa 
 .rodata.__func__.1
                0xffffffff8016ed10       0x16 kernel/libnoninstrumentables.a.p/generic_src_mm_km.c.o
 *fill*         0xffffffff8016ed26        0x2 
 .rodata.__func__.3
                0xffffffff8016ed28        0xf kernel/libnoninstrumentables.a.p/generic_src_mm_km.c.o
 *fill*         0xffffffff8016ed37        0x9 
 .rodata.__func__.4
                0xffffffff8016ed40       0x19 kernel/libnoninstrumentables.a.p/generic_src_mm_km.c.o
 *fill*         0xffffffff8016ed59        0x7 
 .rodata.__func__.5
                0xffffffff8016ed60       0x15 kernel/libnoninstrumentables.a.p/generic_src_mm_km.c.o
 .rodata.cache_for_size.str1.1
                0xffffffff8016ed75       0x29 kernel/libnoninstrumentables.a.p/generic_src_mm_malloc.c.o
 .rodata.cache_for_size.str1.8
                0xffffffff8016ed75       0x8f kernel/libnoninstrumentables.a.p/generic_src_mm_malloc.c.o
 *fill*         0xffffffff8016ed75        0x3 
 .rodata.__func__.1
                0xffffffff8016ed78        0x9 kernel/libnoninstrumentables.a.p/generic_src_mm_malloc.c.o
 *fill*         0xffffffff8016ed81        0x7 
 .rodata.__func__.2
                0xffffffff8016ed88        0xf kernel/libnoninstrumentables.a.p/generic_src_mm_malloc.c.o
 *fill*         0xffffffff8016ed97        0x1 
 .rodata.__func__.4
                0xffffffff8016ed98        0xa kernel/libnoninstrumentables.a.p/generic_src_mm_malloc.c.o
 .rodata.str1.1
                0xffffffff8016eda2       0xca kernel/libnoninstrumentables.a.p/generic_src_mm_malloc.c.o
 *fill*         0xffffffff8016eda2       0x1e 
 .rodata.malloc_names
                0xffffffff8016edc0       0x98 kernel/libnoninstrumentables.a.p/generic_src_mm_malloc.c.o
 .rodata.reserve_try_alloc.str1.1
                0xffffffff8016ee58       0x26 kernel/libnoninstrumentables.a.p/generic_src_mm_reserve.c.o
 .rodata.reserve_try_alloc.str1.8
                0xffffffff8016ee58       0x2e kernel/libnoninstrumentables.a.p/generic_src_mm_reserve.c.o
 *fill*         0xffffffff8016ee58        0x8 
 .rodata.__func__.0
                0xffffffff8016ee60       0x12 kernel/libnoninstrumentables.a.p/generic_src_mm_reserve.c.o
 .rodata.str1.1
                0xffffffff8016ee72        0xd kernel/libnoninstrumentables.a.p/generic_src_mm_reserve.c.o
 .rodata.program_create.str1.1
                0xffffffff8016ee72        0x6 kernel/libnoninstrumentables.a.p/generic_src_proc_program.c.o
 .rodata.program_create_loader.str1.8
                0xffffffff8016ee72       0x2b kernel/libnoninstrumentables.a.p/generic_src_proc_program.c.o
 .rodata.program_create_loader.str1.1
                0xffffffff8016ee72       0x19 kernel/libnoninstrumentables.a.p/generic_src_proc_program.c.o
 .rodata.try_find_thread.str1.1
                0xffffffff8016ee72       0x34 kernel/libnoninstrumentables.a.p/generic_src_proc_scheduler.c.o
 .rodata.try_find_thread.str1.8
                0xffffffff8016ee72       0x32 kernel/libnoninstrumentables.a.p/generic_src_proc_scheduler.c.o
 .rodata.prepare_to_run_thread.str1.8
                0xffffffff8016ee72       0x5a kernel/libnoninstrumentables.a.p/generic_src_proc_scheduler.c.o
 .rodata.prepare_to_run_thread.str1.1
                0xffffffff8016ee72       0x19 kernel/libnoninstrumentables.a.p/generic_src_proc_scheduler.c.o
 .rodata.thread_requeue_sleeping.str1.8
                0xffffffff8016ee72       0x65 kernel/libnoninstrumentables.a.p/generic_src_proc_scheduler.c.o
 .rodata.cleanup_after_thread.str1.1
                0xffffffff8016ee72       0x4e kernel/libnoninstrumentables.a.p/generic_src_proc_scheduler.c.o
 .rodata.cleanup_after_thread.str1.8
                0xffffffff8016ee72       0x5a kernel/libnoninstrumentables.a.p/generic_src_proc_scheduler.c.o
 .rodata.scheduler_enter.str1.1
                0xffffffff8016ee72        0xf kernel/libnoninstrumentables.a.p/generic_src_proc_scheduler.c.o
 .rodata.scheduler_run.str1.1
                0xffffffff8016ee72       0x1c kernel/libnoninstrumentables.a.p/generic_src_proc_scheduler.c.o
 .rodata.sched_print_list.str1.1
                0xffffffff8016ee72       0x32 kernel/libnoninstrumentables.a.p/generic_src_proc_scheduler.c.o
 *fill*         0xffffffff8016ee72        0xe 
 .rodata.__func__.0
                0xffffffff8016ee80       0x11 kernel/libnoninstrumentables.a.p/generic_src_proc_scheduler.c.o
 *fill*         0xffffffff8016ee91        0xf 
 .rodata.__func__.1
                0xffffffff8016eea0       0x11 kernel/libnoninstrumentables.a.p/generic_src_proc_scheduler.c.o
 *fill*         0xffffffff8016eeb1        0x7 
 .rodata.__func__.2
                0xffffffff8016eeb8        0xe kernel/libnoninstrumentables.a.p/generic_src_proc_scheduler.c.o
 *fill*         0xffffffff8016eec6        0xa 
 .rodata.__func__.3
                0xffffffff8016eed0       0x19 kernel/libnoninstrumentables.a.p/generic_src_proc_scheduler.c.o
 *fill*         0xffffffff8016eee9        0x7 
 .rodata.__func__.4
                0xffffffff8016eef0       0x15 kernel/libnoninstrumentables.a.p/generic_src_proc_scheduler.c.o
 *fill*         0xffffffff8016ef05        0x3 
 .rodata.__func__.5
                0xffffffff8016ef08        0xa kernel/libnoninstrumentables.a.p/generic_src_proc_scheduler.c.o
 *fill*         0xffffffff8016ef12        0xe 
 .rodata.__func__.6
                0xffffffff8016ef20       0x16 kernel/libnoninstrumentables.a.p/generic_src_proc_scheduler.c.o
 *fill*         0xffffffff8016ef36        0xa 
 .rodata.__func__.7
                0xffffffff8016ef40       0x10 kernel/libnoninstrumentables.a.p/generic_src_proc_scheduler.c.o
 .rodata.__func__.8
                0xffffffff8016ef50       0x10 kernel/libnoninstrumentables.a.p/generic_src_proc_scheduler.c.o
 .rodata.__func__.9
                0xffffffff8016ef60       0x18 kernel/libnoninstrumentables.a.p/generic_src_proc_scheduler.c.o
 .rodata.tsk_constructor.str1.1
                0xffffffff8016ef78       0x1e kernel/libnoninstrumentables.a.p/generic_src_proc_task.c.o
 .rodata.task_first.part.0.str1.1
                0xffffffff8016ef78       0x12 kernel/libnoninstrumentables.a.p/generic_src_proc_task.c.o
 .rodata.task_first.part.0.str1.8
                0xffffffff8016ef78       0x55 kernel/libnoninstrumentables.a.p/generic_src_proc_task.c.o
 .rodata.task_init.str1.1
                0xffffffff8016ef78        0x7 kernel/libnoninstrumentables.a.p/generic_src_proc_task.c.o
 .rodata.task_hold.str1.1
                0xffffffff8016ef78        0x9 kernel/libnoninstrumentables.a.p/generic_src_proc_task.c.o
 .rodata.task_hold.str1.8
                0xffffffff8016ef78       0x34 kernel/libnoninstrumentables.a.p/generic_src_proc_task.c.o
 .rodata.task_release.str1.1
                0xffffffff8016ef78        0xa kernel/libnoninstrumentables.a.p/generic_src_proc_task.c.o
 .rodata.task_done.str1.1
                0xffffffff8016ef78       0x31 kernel/libnoninstrumentables.a.p/generic_src_proc_task.c.o
 .rodata.task_get_accounting.str1.8
                0xffffffff8016ef78       0x21 kernel/libnoninstrumentables.a.p/generic_src_proc_task.c.o
 .rodata.task_print_list.str1.8
                0xffffffff8016ef78       0x85 kernel/libnoninstrumentables.a.p/generic_src_proc_task.c.o
 .rodata.task_print_list.str1.1
                0xffffffff8016ef78       0x36 kernel/libnoninstrumentables.a.p/generic_src_proc_task.c.o
 *fill*         0xffffffff8016ef78        0x8 
 .rodata.__func__.0
                0xffffffff8016ef80       0x14 kernel/libnoninstrumentables.a.p/generic_src_proc_task.c.o
 *fill*         0xffffffff8016ef94        0x4 
 .rodata.__func__.1
                0xffffffff8016ef98        0xa kernel/libnoninstrumentables.a.p/generic_src_proc_task.c.o
 *fill*         0xffffffff8016efa2        0x6 
 .rodata.__func__.2
                0xffffffff8016efa8        0xb kernel/libnoninstrumentables.a.p/generic_src_proc_task.c.o
 *fill*         0xffffffff8016efb3        0x5 
 .rodata.__func__.3
                0xffffffff8016efb8        0xb kernel/libnoninstrumentables.a.p/generic_src_proc_task.c.o
 *fill*         0xffffffff8016efc3        0x5 
 .rodata.__func__.4
                0xffffffff8016efc8        0xe kernel/libnoninstrumentables.a.p/generic_src_proc_task.c.o
 *fill*         0xffffffff8016efd6        0x2 
 .rodata.__func__.5
                0xffffffff8016efd8        0xc kernel/libnoninstrumentables.a.p/generic_src_proc_task.c.o
 .rodata.str1.1
                0xffffffff8016efe4        0xb kernel/libnoninstrumentables.a.p/generic_src_proc_task.c.o
 .rodata.link_used.part.0.str1.1
                0xffffffff8016efe4       0x12 kernel/libnoninstrumentables.a.p/generic_src_proc_thread.c.o
 .rodata.link_used.part.0.str1.8
                0xffffffff8016efe4       0x58 kernel/libnoninstrumentables.a.p/generic_src_proc_thread.c.o
 .rodata.thread_wakeup.part.0.str1.1
                0xffffffff8016efe4        0xf kernel/libnoninstrumentables.a.p/generic_src_proc_thread.c.o
 .rodata.thread_wakeup.part.0.str1.8
                0xffffffff8016efe4       0x2f kernel/libnoninstrumentables.a.p/generic_src_proc_thread.c.o
 .rodata.thread_init.str1.1
                0xffffffff8016efe4        0x9 kernel/libnoninstrumentables.a.p/generic_src_proc_thread.c.o
 .rodata.thread_start.str1.8
                0xffffffff8016efe4       0x6c kernel/libnoninstrumentables.a.p/generic_src_proc_thread.c.o
 .rodata.thread_start.str1.1
                0xffffffff8016efe4        0x9 kernel/libnoninstrumentables.a.p/generic_src_proc_thread.c.o
 .rodata.thread_put.str1.1
                0xffffffff8016efe4       0x51 kernel/libnoninstrumentables.a.p/generic_src_proc_thread.c.o
 .rodata.thread_put.str1.8
                0xffffffff8016efe4       0x69 kernel/libnoninstrumentables.a.p/generic_src_proc_thread.c.o
 .rodata.thread_exit.str1.8
                0xffffffff8016efe4       0x29 kernel/libnoninstrumentables.a.p/generic_src_proc_thread.c.o
 .rodata.thread_wait_start.str1.1
                0xffffffff8016efe4        0xf kernel/libnoninstrumentables.a.p/generic_src_proc_thread.c.o
 .rodata.thread_migration_disable.str1.1
                0xffffffff8016efe4        0x7 kernel/libnoninstrumentables.a.p/generic_src_proc_thread.c.o
 .rodata.thread_migration_enable.str1.1
                0xffffffff8016efe4       0x16 kernel/libnoninstrumentables.a.p/generic_src_proc_thread.c.o
 .rodata.thread_update_accounting.str1.1
                0xffffffff8016efe4       0x16 kernel/libnoninstrumentables.a.p/generic_src_proc_thread.c.o
 .rodata.thread_count.str1.8
                0xffffffff8016efe4       0x23 kernel/libnoninstrumentables.a.p/generic_src_proc_thread.c.o
 .rodata.thread_print_list.str1.8
                0xffffffff8016efe4       0xae kernel/libnoninstrumentables.a.p/generic_src_proc_thread.c.o
 .rodata.thread_print_list.str1.1
                0xffffffff8016efe4       0x4f kernel/libnoninstrumentables.a.p/generic_src_proc_thread.c.o
 .rodata.thread_stack_trace.str1.1
                0xffffffff8016efe4       0x11 kernel/libnoninstrumentables.a.p/generic_src_proc_thread.c.o
 .rodata.thread_stack_trace.str1.8
                0xffffffff8016efe4       0x20 kernel/libnoninstrumentables.a.p/generic_src_proc_thread.c.o
 *fill*         0xffffffff8016efe4        0x4 
 .rodata.__func__.0
                0xffffffff8016efe8        0xc kernel/libnoninstrumentables.a.p/generic_src_proc_thread.c.o
 *fill*         0xffffffff8016eff4        0x4 
 .rodata.__func__.1
                0xffffffff8016eff8        0xd kernel/libnoninstrumentables.a.p/generic_src_proc_thread.c.o
 *fill*         0xffffffff8016f005        0x3 
 .rodata.__func__.2
                0xffffffff8016f008        0xd kernel/libnoninstrumentables.a.p/generic_src_proc_thread.c.o
 *fill*         0xffffffff8016f015        0xb 
 .rodata.__func__.3
                0xffffffff8016f020       0x12 kernel/libnoninstrumentables.a.p/generic_src_proc_thread.c.o
 *fill*         0xffffffff8016f032        0xe 
 .rodata.__func__.4
                0xffffffff8016f040       0x19 kernel/libnoninstrumentables.a.p/generic_src_proc_thread.c.o
 *fill*         0xffffffff8016f059        0x7 
 .rodata.__func__.5
                0xffffffff8016f060        0xd kernel/libnoninstrumentables.a.p/generic_src_proc_thread.c.o
 *fill*         0xffffffff8016f06d        0x3 
 .rodata.__func__.6
                0xffffffff8016f070       0x14 kernel/libnoninstrumentables.a.p/generic_src_proc_thread.c.o
 *fill*         0xffffffff8016f084        0xc 
 .rodata.__func__.7
                0xffffffff8016f090       0x18 kernel/libnoninstrumentables.a.p/generic_src_proc_thread.c.o
 *fill*         0xffffffff8016f0a8        0x8 
 .rodata.__func__.8
                0xffffffff8016f0b0       0x19 kernel/libnoninstrumentables.a.p/generic_src_proc_thread.c.o
 *fill*         0xffffffff8016f0c9        0x7 
 .rodata.__func__.9
                0xffffffff8016f0d0        0xe kernel/libnoninstrumentables.a.p/generic_src_proc_thread.c.o
 *fill*         0xffffffff8016f0de        0x2 
 .rodata.__func__.10
                0xffffffff8016f0e0       0x13 kernel/libnoninstrumentables.a.p/generic_src_proc_thread.c.o
 *fill*         0xffffffff8016f0f3        0xd 
 .rodata.__func__.11
                0xffffffff8016f100       0x12 kernel/libnoninstrumentables.a.p/generic_src_proc_thread.c.o
 *fill*         0xffffffff8016f112        0xe 
 .rodata.__func__.12
                0xffffffff8016f120       0x11 kernel/libnoninstrumentables.a.p/generic_src_proc_thread.c.o
 *fill*         0xffffffff8016f131        0x7 
 .rodata.__func__.13
                0xffffffff8016f138        0xc kernel/libnoninstrumentables.a.p/generic_src_proc_thread.c.o
 *fill*         0xffffffff8016f144        0x4 
 .rodata.__func__.14
                0xffffffff8016f148        0xa kernel/libnoninstrumentables.a.p/generic_src_proc_thread.c.o
 *fill*         0xffffffff8016f152        0x6 
 .rodata.__func__.15
                0xffffffff8016f158        0xf kernel/libnoninstrumentables.a.p/generic_src_proc_thread.c.o
 *fill*         0xffffffff8016f167        0x1 
 .rodata.__func__.16
                0xffffffff8016f168        0xe kernel/libnoninstrumentables.a.p/generic_src_proc_thread.c.o
 *fill*         0xffffffff8016f176        0x2 
 .rodata.__func__.17
                0xffffffff8016f178        0xc kernel/libnoninstrumentables.a.p/generic_src_proc_thread.c.o
 *fill*         0xffffffff8016f184        0x4 
 .rodata.__func__.18
                0xffffffff8016f188        0xd kernel/libnoninstrumentables.a.p/generic_src_proc_thread.c.o
 .rodata.str1.1
                0xffffffff8016f195       0x4f kernel/libnoninstrumentables.a.p/generic_src_proc_thread.c.o
 .rodata.irq_spinlock_lock.str1.1
                0xffffffff8016f195       0x4f kernel/libnoninstrumentables.a.p/generic_src_synch_irq_spinlock.c.o
 .rodata.irq_spinlock_lock.str1.8
                0xffffffff8016f195       0x36 kernel/libnoninstrumentables.a.p/generic_src_synch_irq_spinlock.c.o
 .rodata.irq_spinlock_unlock.str1.1
                0xffffffff8016f195       0x1e kernel/libnoninstrumentables.a.p/generic_src_synch_irq_spinlock.c.o
 .rodata.irq_spinlock_pass.str1.1
                0xffffffff8016f195       0x14 kernel/libnoninstrumentables.a.p/generic_src_synch_irq_spinlock.c.o
 *fill*         0xffffffff8016f195        0xb 
 .rodata.__func__.1
                0xffffffff8016f1a0       0x12 kernel/libnoninstrumentables.a.p/generic_src_synch_irq_spinlock.c.o
 *fill*         0xffffffff8016f1b2        0xe 
 .rodata.__func__.3
                0xffffffff8016f1c0       0x14 kernel/libnoninstrumentables.a.p/generic_src_synch_irq_spinlock.c.o
 *fill*         0xffffffff8016f1d4        0xc 
 .rodata.__func__.4
                0xffffffff8016f1e0       0x12 kernel/libnoninstrumentables.a.p/generic_src_synch_irq_spinlock.c.o
 .rodata.mutex_lock.str1.1
                0xffffffff8016f1f2       0x30 kernel/libnoninstrumentables.a.p/generic_src_synch_mutex.c.o
 .rodata.mutex_lock.str1.8
                0xffffffff8016f1f2       0x7b kernel/libnoninstrumentables.a.p/generic_src_synch_mutex.c.o
 .rodata.mutex_unlock.str1.1
                0xffffffff8016f1f2       0x15 kernel/libnoninstrumentables.a.p/generic_src_synch_mutex.c.o
 *fill*         0xffffffff8016f1f2        0x6 
 .rodata.__func__.0
                0xffffffff8016f1f8        0xd kernel/libnoninstrumentables.a.p/generic_src_synch_mutex.c.o
 *fill*         0xffffffff8016f205        0xb 
 .rodata.__func__.1
                0xffffffff8016f210       0x13 kernel/libnoninstrumentables.a.p/generic_src_synch_mutex.c.o
 *fill*         0xffffffff8016f223        0x5 
 .rodata.__func__.3
                0xffffffff8016f228        0xb kernel/libnoninstrumentables.a.p/generic_src_synch_mutex.c.o
 .rodata.semaphore_down_timeout.part.0.str1.1
                0xffffffff8016f233       0x12 kernel/libnoninstrumentables.a.p/generic_src_synch_semaphore.c.o
 .rodata.semaphore_down_timeout.part.0.str1.8
                0xffffffff8016f233       0x63 kernel/libnoninstrumentables.a.p/generic_src_synch_semaphore.c.o
 .rodata.semaphore_down.str1.1
                0xffffffff8016f233        0xa kernel/libnoninstrumentables.a.p/generic_src_synch_semaphore.c.o
 *fill*         0xffffffff8016f233        0x5 
 .rodata.__func__.0
                0xffffffff8016f238        0xf kernel/libnoninstrumentables.a.p/generic_src_synch_semaphore.c.o
 *fill*         0xffffffff8016f247        0x9 
 .rodata.__func__.1
                0xffffffff8016f250       0x17 kernel/libnoninstrumentables.a.p/generic_src_synch_semaphore.c.o
 .rodata.spinlock_lock.str1.8
                0xffffffff8016f267       0x32 kernel/libnoninstrumentables.a.p/generic_src_synch_spinlock.c.o
 .rodata.spinlock_lock.str1.1
                0xffffffff8016f267       0x17 kernel/libnoninstrumentables.a.p/generic_src_synch_spinlock.c.o
 .rodata.spinlock_unlock.str1.1
                0xffffffff8016f267       0x52 kernel/libnoninstrumentables.a.p/generic_src_synch_spinlock.c.o
 .rodata.spinlock_unlock.str1.8
                0xffffffff8016f267       0x32 kernel/libnoninstrumentables.a.p/generic_src_synch_spinlock.c.o
 *fill*         0xffffffff8016f267        0x9 
 .rodata.__func__.0
                0xffffffff8016f270       0x11 kernel/libnoninstrumentables.a.p/generic_src_synch_spinlock.c.o
 *fill*         0xffffffff8016f281        0xf 
 .rodata.__func__.1
                0xffffffff8016f290       0x10 kernel/libnoninstrumentables.a.p/generic_src_synch_spinlock.c.o
 .rodata.sys_waitq_init.str1.1
                0xffffffff8016f2a0        0x8 kernel/libnoninstrumentables.a.p/generic_src_synch_syswaitq.c.o
 .rodata._waitq_sleep_timeout.part.0.str1.1
                0xffffffff8016f2a0       0x12 kernel/libnoninstrumentables.a.p/generic_src_synch_waitq.c.o
 .rodata._waitq_sleep_timeout.part.0.str1.8
                0xffffffff8016f2a0       0x6f kernel/libnoninstrumentables.a.p/generic_src_synch_waitq.c.o
 .rodata.waitq_initialize.str1.1
                0xffffffff8016f2a0        0x8 kernel/libnoninstrumentables.a.p/generic_src_synch_waitq.c.o
 .rodata.__func__.0
                0xffffffff8016f2a0       0x15 kernel/libnoninstrumentables.a.p/generic_src_synch_waitq.c.o
 .rodata.copy_from_uspace.str1.1
                0xffffffff8016f2b5       0x36 kernel/libnoninstrumentables.a.p/generic_src_syscall_copy.c.o
 .rodata.copy_from_uspace.str1.8
                0xffffffff8016f2b5       0x30 kernel/libnoninstrumentables.a.p/generic_src_syscall_copy.c.o
 .rodata.copy_to_uspace.str1.1
                0xffffffff8016f2b5       0x1b kernel/libnoninstrumentables.a.p/generic_src_syscall_copy.c.o
 *fill*         0xffffffff8016f2b5        0x3 
 .rodata.__func__.0
                0xffffffff8016f2b8        0xf kernel/libnoninstrumentables.a.p/generic_src_syscall_copy.c.o
 *fill*         0xffffffff8016f2c7        0x9 
 .rodata.__func__.1
                0xffffffff8016f2d0       0x11 kernel/libnoninstrumentables.a.p/generic_src_syscall_copy.c.o
 .rodata.syscall_handler.str1.8
                0xffffffff8016f2e1       0x1f kernel/libnoninstrumentables.a.p/generic_src_syscall_syscall.c.o
 *fill*         0xffffffff8016f2e1       0x1f 
 .rodata.syscall_table
                0xffffffff8016f300      0x1a8 kernel/libnoninstrumentables.a.p/generic_src_syscall_syscall.c.o
 .rodata.produce_stats_thread.str1.1
                0xffffffff8016f4a8       0x28 kernel/libnoninstrumentables.a.p/generic_src_sysinfo_stats.c.o
 .rodata.produce_stats_thread.str1.8
                0xffffffff8016f4a8       0x31 kernel/libnoninstrumentables.a.p/generic_src_sysinfo_stats.c.o
 .rodata.produce_stats_task.str1.8
                0xffffffff8016f4a8       0x21 kernel/libnoninstrumentables.a.p/generic_src_sysinfo_stats.c.o
 .rodata.stats_init.str1.1
                0xffffffff8016f4a8       0x62 kernel/libnoninstrumentables.a.p/generic_src_sysinfo_stats.c.o
 *fill*         0xffffffff8016f4a8        0x8 
 .rodata.__func__.0
                0xffffffff8016f4b0       0x13 kernel/libnoninstrumentables.a.p/generic_src_sysinfo_stats.c.o
 *fill*         0xffffffff8016f4c3        0xd 
 .rodata.__func__.1
                0xffffffff8016f4d0       0x15 kernel/libnoninstrumentables.a.p/generic_src_sysinfo_stats.c.o
 .rodata.clock_counter_init.str1.8
                0xffffffff8016f4e5       0x20 kernel/libnoninstrumentables.a.p/generic_src_time_clock.c.o
 .rodata.clock_counter_init.str1.1
                0xffffffff8016f4e5        0xc kernel/libnoninstrumentables.a.p/generic_src_time_clock.c.o
 .rodata.timeout_init.str1.1
                0xffffffff8016f4e5       0x10 kernel/libnoninstrumentables.a.p/generic_src_time_timeout.c.o
 .rodata.timeout_register.str1.1
                0xffffffff8016f4e5       0x2f kernel/libnoninstrumentables.a.p/generic_src_time_timeout.c.o
 .rodata.timeout_register.str1.8
                0xffffffff8016f4e5       0x30 kernel/libnoninstrumentables.a.p/generic_src_time_timeout.c.o
 .rodata.timeout_unregister.str1.1
                0xffffffff8016f4e5        0xd kernel/libnoninstrumentables.a.p/generic_src_time_timeout.c.o
 *fill*         0xffffffff8016f4e5        0xb 
 .rodata.__func__.0
                0xffffffff8016f4f0       0x13 kernel/libnoninstrumentables.a.p/generic_src_time_timeout.c.o
 *fill*         0xffffffff8016f503       0x1d 
 .rodata.__func__.1
                0xffffffff8016f520       0x21 kernel/libnoninstrumentables.a.p/generic_src_time_timeout.c.o
 .rodata.desc_help.str1.8
                0xffffffff8016f541       0x1f kernel/libnoninstrumentables.a.p/generic_src_console_cmd.c.o
 .rodata.cmd_pio_write_32.str1.1
                0xffffffff8016f541        0xf kernel/libnoninstrumentables.a.p/generic_src_console_cmd.c.o
 .rodata.cmd_pio_write_16.str1.1
                0xffffffff8016f541       0x10 kernel/libnoninstrumentables.a.p/generic_src_console_cmd.c.o
 .rodata.cmd_pio_write_8.str1.1
                0xffffffff8016f541       0x11 kernel/libnoninstrumentables.a.p/generic_src_console_cmd.c.o
 .rodata.cmd_pio_read_32.str1.1
                0xffffffff8016f541        0xe kernel/libnoninstrumentables.a.p/generic_src_console_cmd.c.o
 .rodata.cmd_pio_read_16.str1.1
                0xffffffff8016f541        0xf kernel/libnoninstrumentables.a.p/generic_src_console_cmd.c.o
 .rodata.cmd_pio_read_8.str1.1
                0xffffffff8016f541       0x10 kernel/libnoninstrumentables.a.p/generic_src_console_cmd.c.o
 .rodata.run_test.str1.1
                0xffffffff8016f541       0x1a kernel/libnoninstrumentables.a.p/generic_src_console_cmd.c.o
 .rodata.run_test.str1.8
                0xffffffff8016f541       0x2e kernel/libnoninstrumentables.a.p/generic_src_console_cmd.c.o
 .rodata.cmd_printbench.str1.8
                0xffffffff8016f541      0x15a kernel/libnoninstrumentables.a.p/generic_src_console_cmd.c.o
 .rodata.cmd_printbench.str1.1
                0xffffffff8016f541       0x12 kernel/libnoninstrumentables.a.p/generic_src_console_cmd.c.o
 .rodata.cmd_set4.str1.1
                0xffffffff8016f541       0x3b kernel/libnoninstrumentables.a.p/generic_src_console_cmd.c.o
 .rodata.cmd_set4.str1.8
                0xffffffff8016f541       0x62 kernel/libnoninstrumentables.a.p/generic_src_console_cmd.c.o
 .rodata.cmd_help.str1.1
                0xffffffff8016f541       0x21 kernel/libnoninstrumentables.a.p/generic_src_console_cmd.c.o
 .rodata.cmd_desc.str1.1
                0xffffffff8016f541        0x9 kernel/libnoninstrumentables.a.p/generic_src_console_cmd.c.o
 .rodata.cmd_continue.str1.8
                0xffffffff8016f541       0x2d kernel/libnoninstrumentables.a.p/generic_src_console_cmd.c.o
 .rodata.cmd_call3.str1.8
                0xffffffff8016f541       0x4c kernel/libnoninstrumentables.a.p/generic_src_console_cmd.c.o
 .rodata.cmd_call3.str1.1
                0xffffffff8016f541        0xe kernel/libnoninstrumentables.a.p/generic_src_console_cmd.c.o
 .rodata.cmd_call2.str1.8
                0xffffffff8016f541       0x1f kernel/libnoninstrumentables.a.p/generic_src_console_cmd.c.o
 .rodata.cmd_call1.str1.1
                0xffffffff8016f541       0x19 kernel/libnoninstrumentables.a.p/generic_src_console_cmd.c.o
 .rodata.cmd_call0.str1.1
                0xffffffff8016f541       0x13 kernel/libnoninstrumentables.a.p/generic_src_console_cmd.c.o
 .rodata.cmd_mcall0.str1.1
                0xffffffff8016f541        0xe kernel/libnoninstrumentables.a.p/generic_src_console_cmd.c.o
 .rodata.cmd_mcall0.str1.8
                0xffffffff8016f541       0x23 kernel/libnoninstrumentables.a.p/generic_src_console_cmd.c.o
 .rodata.run_bench.part.0.str1.1
                0xffffffff8016f541       0x10 kernel/libnoninstrumentables.a.p/generic_src_console_cmd.c.o
 .rodata.run_bench.part.0.str1.8
                0xffffffff8016f541       0x2d kernel/libnoninstrumentables.a.p/generic_src_console_cmd.c.o
 .rodata.cmd_bench.str1.1
                0xffffffff8016f541       0x1d kernel/libnoninstrumentables.a.p/generic_src_console_cmd.c.o
 .rodata.cmd_test.str1.1
                0xffffffff8016f541       0x48 kernel/libnoninstrumentables.a.p/generic_src_console_cmd.c.o
 .rodata.cmd_uptime.str1.1
                0xffffffff8016f541       0x19 kernel/libnoninstrumentables.a.p/generic_src_console_cmd.c.o
 .rodata.cmd_uptime.str1.8
                0xffffffff8016f541       0x62 kernel/libnoninstrumentables.a.p/generic_src_console_cmd.c.o
 .rodata.cmd_threads.str1.1
                0xffffffff8016f541       0x1b kernel/libnoninstrumentables.a.p/generic_src_console_cmd.c.o
 .rodata.cmd_initialize.str1.1
                0xffffffff8016f541        0x9 kernel/libnoninstrumentables.a.p/generic_src_console_cmd.c.o
 .rodata.cmd_init.str1.1
                0xffffffff8016f541       0x1b kernel/libnoninstrumentables.a.p/generic_src_console_cmd.c.o
 *fill*         0xffffffff8016f541        0x7 
 .rodata.__func__.0
                0xffffffff8016f548        0xb kernel/libnoninstrumentables.a.p/generic_src_console_cmd.c.o
 *fill*         0xffffffff8016f553        0xd 
 .rodata.basic_commands
                0xffffffff8016f560      0x128 kernel/libnoninstrumentables.a.p/generic_src_console_cmd.c.o
 .rodata.str1.1
                0xffffffff8016f688      0x239 kernel/libnoninstrumentables.a.p/generic_src_console_cmd.c.o
 .rodata.str1.8
                0xffffffff8016f688      0x470 kernel/libnoninstrumentables.a.p/generic_src_console_cmd.c.o
 .rodata.ipc_connect_kbox.str1.1
                0xffffffff8016f688        0x5 kernel/libnoninstrumentables.a.p/generic_src_ipc_kbox.c.o
 .rodata.udebug_stoppable_begin.str1.1
                0xffffffff8016f688       0x2e kernel/libnoninstrumentables.a.p/generic_src_udebug_udebug.c.o
 .rodata.udebug_stoppable_begin.str1.8
                0xffffffff8016f688       0x5a kernel/libnoninstrumentables.a.p/generic_src_udebug_udebug.c.o
 .rodata.udebug_stoppable_end.str1.8
                0xffffffff8016f688       0x21 kernel/libnoninstrumentables.a.p/generic_src_udebug_udebug.c.o
 .rodata.udebug_task_cleanup.str1.8
                0xffffffff8016f688       0x21 kernel/libnoninstrumentables.a.p/generic_src_udebug_udebug.c.o
 *fill*         0xffffffff8016f688        0x8 
 .rodata.__func__.0
                0xffffffff8016f690       0x14 kernel/libnoninstrumentables.a.p/generic_src_udebug_udebug.c.o
 *fill*         0xffffffff8016f6a4        0xc 
 .rodata.__func__.1
                0xffffffff8016f6b0       0x15 kernel/libnoninstrumentables.a.p/generic_src_udebug_udebug.c.o
 *fill*         0xffffffff8016f6c5        0xb 
 .rodata.__func__.2
                0xffffffff8016f6d0       0x17 kernel/libnoninstrumentables.a.p/generic_src_udebug_udebug.c.o
 .rodata.udebug_call_receive.str1.1
                0xffffffff8016f6e7       0x21 kernel/libnoninstrumentables.a.p/generic_src_udebug_udebug_ipc.c.o
 .rodata.udebug_call_receive.str1.8
                0xffffffff8016f6e7       0x35 kernel/libnoninstrumentables.a.p/generic_src_udebug_udebug_ipc.c.o
 *fill*         0xffffffff8016f6e7        0x1 
 .rodata.udebug_call_receive
                0xffffffff8016f6e8       0x68 kernel/libnoninstrumentables.a.p/generic_src_udebug_udebug_ipc.c.o
 .rodata.__func__.0
                0xffffffff8016f750       0x18 kernel/libnoninstrumentables.a.p/generic_src_udebug_udebug_ipc.c.o
 *fill*         0xffffffff8016f768        0x8 
 .rodata.__func__.1
                0xffffffff8016f770       0x19 kernel/libnoninstrumentables.a.p/generic_src_udebug_udebug_ipc.c.o
 .rodata.str1.1
                0xffffffff8016f789      0x181 kernel/libnoninstrumentables.a.p/test_test.c.o
 .rodata.str1.8
                0xffffffff8016f789       0x21 kernel/libnoninstrumentables.a.p/test_test.c.o
 .rodata.test_atomic1.str1.8
                0xffffffff8016f789       0xe3 kernel/libnoninstrumentables.a.p/test_atomic_atomic1.c.o
 .rodata.test_atomic1.str1.1
                0xffffffff8016f789       0x5e kernel/libnoninstrumentables.a.p/test_atomic_atomic1.c.o
 .rodata.test_fault1.str1.1
                0xffffffff8016f789       0x10 kernel/libnoninstrumentables.a.p/test_fault_fault1.c.o
 .rodata.test_falloc1.str1.1
                0xffffffff8016f789       0x64 kernel/libnoninstrumentables.a.p/test_mm_falloc1.c.o
 .rodata.test_falloc1.str1.8
                0xffffffff8016f789       0x2e kernel/libnoninstrumentables.a.p/test_mm_falloc1.c.o
 .rodata.falloc.str1.8
                0xffffffff8016f789      0x13c kernel/libnoninstrumentables.a.p/test_mm_falloc2.c.o
 .rodata.falloc.str1.1
                0xffffffff8016f789       0x1e kernel/libnoninstrumentables.a.p/test_mm_falloc2.c.o
 .rodata.test_falloc2.str1.1
                0xffffffff8016f789       0x42 kernel/libnoninstrumentables.a.p/test_mm_falloc2.c.o
 .rodata.test_mapping1.str1.8
                0xffffffff8016f789      0x137 kernel/libnoninstrumentables.a.p/test_mm_mapping1.c.o
 .rodata.slabtest.str1.1
                0xffffffff8016f789       0x2f kernel/libnoninstrumentables.a.p/test_mm_slab1.c.o
 .rodata.testit.constprop.0.str1.8
                0xffffffff8016f789       0x22 kernel/libnoninstrumentables.a.p/test_mm_slab1.c.o
 .rodata.testit.constprop.0.str1.1
                0xffffffff8016f789       0x4d kernel/libnoninstrumentables.a.p/test_mm_slab1.c.o
 .rodata.test_slab1.str1.1
                0xffffffff8016f789       0x32 kernel/libnoninstrumentables.a.p/test_mm_slab1.c.o
 .rodata.totalmemtest.str1.1
                0xffffffff8016f789       0x74 kernel/libnoninstrumentables.a.p/test_mm_slab2.c.o
 .rodata.totalmemtest.str1.8
                0xffffffff8016f789       0x2a kernel/libnoninstrumentables.a.p/test_mm_slab2.c.o
 .rodata.multitest.str1.8
                0xffffffff8016f789       0x22 kernel/libnoninstrumentables.a.p/test_mm_slab2.c.o
 .rodata.multitest.str1.1
                0xffffffff8016f789       0x49 kernel/libnoninstrumentables.a.p/test_mm_slab2.c.o
 .rodata.slabtest.str1.1
                0xffffffff8016f789       0x64 kernel/libnoninstrumentables.a.p/test_mm_slab2.c.o
 .rodata.test_slab2.str1.8
                0xffffffff8016f789       0x5e kernel/libnoninstrumentables.a.p/test_mm_slab2.c.o
 .rodata.test_slab2.str1.1
                0xffffffff8016f789       0x12 kernel/libnoninstrumentables.a.p/test_mm_slab2.c.o
 .rodata.test_semaphore1.str1.8
                0xffffffff8016f789       0x62 kernel/libnoninstrumentables.a.p/test_synch_semaphore1.c.o
 .rodata.test_semaphore1.str1.1
                0xffffffff8016f789       0x52 kernel/libnoninstrumentables.a.p/test_synch_semaphore1.c.o
 .rodata.consumer.str1.1
                0xffffffff8016f789       0x5a kernel/libnoninstrumentables.a.p/test_synch_semaphore2.c.o
 .rodata.test_semaphore2.str1.1
                0xffffffff8016f789       0x37 kernel/libnoninstrumentables.a.p/test_synch_semaphore2.c.o
 .rodata.str1.1
                0xffffffff8016f789        0x9 kernel/libnoninstrumentables.a.p/test_synch_semaphore2.c.o
 .rodata.test_print1.str1.8
                0xffffffff8016f789      0x122 kernel/libnoninstrumentables.a.p/test_print_print1.c.o
 .rodata.test_print1.str1.1
                0xffffffff8016f789       0xd6 kernel/libnoninstrumentables.a.p/test_print_print1.c.o
 .rodata.test_print2.str1.1
                0xffffffff8016f789       0x59 kernel/libnoninstrumentables.a.p/test_print_print2.c.o
 .rodata.test_print2.str1.8
                0xffffffff8016f789      0x552 kernel/libnoninstrumentables.a.p/test_print_print2.c.o
 .rodata.test_print3.str1.8
                0xffffffff8016f789      0x33b kernel/libnoninstrumentables.a.p/test_print_print3.c.o
 .rodata.test_print3.str1.1
                0xffffffff8016f789        0xf kernel/libnoninstrumentables.a.p/test_print_print3.c.o
 .rodata.test_print4.str1.8
                0xffffffff8016f789      0x2cf kernel/libnoninstrumentables.a.p/test_print_print4.c.o
 .rodata.test_print4.str1.1
                0xffffffff8016f789       0xdd kernel/libnoninstrumentables.a.p/test_print_print4.c.o
 *fill*         0xffffffff8016f789        0x7 
 .rodata.test_print4.str4.8
                0xffffffff8016f790      0x468 kernel/libnoninstrumentables.a.p/test_print_print4.c.o
 .rodata.test_print5.str1.1
                0xffffffff8016fbf8       0x51 kernel/libnoninstrumentables.a.p/test_print_print5.c.o
 .rodata.test_print5.str1.8
                0xffffffff8016fbf8       0xba kernel/libnoninstrumentables.a.p/test_print_print5.c.o
 .rodata.threadtest.str1.1
                0xffffffff8016fbf8        0x5 kernel/libnoninstrumentables.a.p/test_thread_thread1.c.o
 .rodata.test_thread1.str1.1
                0xffffffff8016fbf8       0x39 kernel/libnoninstrumentables.a.p/test_thread_thread1.c.o
 .rodata.test_thread1.str1.8
                0xffffffff8016fbf8       0x23 kernel/libnoninstrumentables.a.p/test_thread_thread1.c.o
 *(.data .data.*)
 *fill*         0xffffffff8016fbf8        0x8 
 .data.exc_info
                0xffffffff8016fc00       0x58 kernel/libinstrumentables.a.p/generic_src_interrupt_interrupt.c.o
 *fill*         0xffffffff8016fc58        0x8 
 .data.exc_argv
                0xffffffff8016fc60       0x28 kernel/libinstrumentables.a.p/generic_src_interrupt_interrupt.c.o
 *fill*         0xffffffff8016fc88       0x18 
 .data.exctbl_lock
                0xffffffff8016fca0       0x28 kernel/libinstrumentables.a.p/generic_src_interrupt_interrupt.c.o
                0xffffffff8016fca0                exctbl_lock
 *fill*         0xffffffff8016fcc8        0x8 
 .data.inactive_as_with_asid_list
                0xffffffff8016fcd0       0x10 kernel/libinstrumentables.a.p/generic_src_mm_as.c.o
                0xffffffff8016fcd0                inactive_as_with_asid_list
 .data.asidlock
                0xffffffff8016fce0       0x10 kernel/libinstrumentables.a.p/generic_src_mm_as.c.o
                0xffffffff8016fce0                asidlock
 .data.slab_cache_list
                0xffffffff8016fcf0       0x10 kernel/libinstrumentables.a.p/generic_src_mm_slab.c.o
 .data.slab_cache_lock
                0xffffffff8016fd00       0x28 kernel/libinstrumentables.a.p/generic_src_mm_slab.c.o
 *fill*         0xffffffff8016fd28       0x18 
 .data.tlblock  0xffffffff8016fd40       0x28 kernel/libinstrumentables.a.p/generic_src_mm_tlb.c.o
 *fill*         0xffffffff8016fd68        0x8 
 .data.cmd_list
                0xffffffff8016fd70       0x10 kernel/libinstrumentables.a.p/generic_src_console_kconsole.c.o
                0xffffffff8016fd70                cmd_list
 .data.cmd_lock
                0xffffffff8016fd80       0x10 kernel/libinstrumentables.a.p/generic_src_console_kconsole.c.o
                0xffffffff8016fd80                cmd_lock
 .data.arch_ops
                0xffffffff8016fd90        0x8 kernel/libnoninstrumentables.a.p/arch_amd64_src_amd64.c.o
                0xffffffff8016fd90                arch_ops
 *fill*         0xffffffff8016fd98        0x8 
 .data.amd64_ops
                0xffffffff8016fda0       0x28 kernel/libnoninstrumentables.a.p/arch_amd64_src_amd64.c.o
                0xffffffff8016fda0                amd64_ops
 .data.idtr     0xffffffff8016fdc8        0xa kernel/libnoninstrumentables.a.p/arch_amd64_src_pm.c.o
                0xffffffff8016fdc8                idtr
 *fill*         0xffffffff8016fdd2        0x6 
 .data.gdtr     0xffffffff8016fdd8        0xa kernel/libnoninstrumentables.a.p/arch_amd64_src_pm.c.o
                0xffffffff8016fdd8                gdtr
 *fill*         0xffffffff8016fde2       0x1e 
 .data.gdt      0xffffffff8016fe00       0x50 kernel/libnoninstrumentables.a.p/arch_amd64_src_pm.c.o
                0xffffffff8016fe00                gdt
 .data.vreg_ptr
                0xffffffff8016fe50        0x8 kernel/libnoninstrumentables.a.p/arch_amd64_src_vreg.c.o
                0xffffffff8016fe50                vreg_ptr
 .data.io_apic  0xffffffff8016fe58        0x8 kernel/libnoninstrumentables.a.p/arch_amd64_src_smp_apic.c.o
                0xffffffff8016fe58                io_apic
 .data.l_apic   0xffffffff8016fe60        0x8 kernel/libnoninstrumentables.a.p/arch_amd64_src_smp_apic.c.o
                0xffffffff8016fe60                l_apic
 *fill*         0xffffffff8016fe68       0x18 
 .data.apic_pic_ops
                0xffffffff8016fe80       0x30 kernel/libnoninstrumentables.a.p/arch_amd64_src_smp_apic.c.o
                0xffffffff8016fe80                apic_pic_ops
 *fill*         0xffffffff8016feb0       0x10 
 .data.mps_config_operations
                0xffffffff8016fec0       0x20 kernel/libnoninstrumentables.a.p/arch_amd64_src_smp_mps.c.o
                0xffffffff8016fec0                mps_config_operations
 .data.signature_map
                0xffffffff8016fee0       0x18 kernel/libnoninstrumentables.a.p/genarch_src_acpi_acpi.c.o
                0xffffffff8016fee0                signature_map
 *fill*         0xffffffff8016fef8        0x8 
 .data.madt_config_operations
                0xffffffff8016ff00       0x20 kernel/libnoninstrumentables.a.p/genarch_src_acpi_madt.c.o
                0xffffffff8016ff00                madt_config_operations
 .data.entry    0xffffffff8016ff20       0x48 kernel/libnoninstrumentables.a.p/genarch_src_acpi_madt.c.o
                0xffffffff8016ff20                entry
 *fill*         0xffffffff8016ff68       0x18 
 .data.isa_irq_map
                0xffffffff8016ff80       0x40 kernel/libnoninstrumentables.a.p/genarch_src_acpi_madt.c.o
 .data.fb_font  0xffffffff8016ffc0     0xb530 kernel/libnoninstrumentables.a.p/genarch_src_fb_font-8x16.c.o
                0xffffffff8016ffc0                fb_font
 *fill*         0xffffffff8017b4f0       0x10 
 .data.fbdev_ops
                0xffffffff8017b500       0x20 kernel/libnoninstrumentables.a.p/genarch_src_fb_fb.c.o
 .data.i8259_pic_ops
                0xffffffff8017b520       0x30 kernel/libnoninstrumentables.a.p/genarch_src_drivers_i8259_i8259.c.o
                0xffffffff8017b520                i8259_pic_ops
 *fill*         0xffffffff8017b550       0x10 
 .data.ns16550_ops
                0xffffffff8017b560       0x20 kernel/libnoninstrumentables.a.p/genarch_src_drivers_ns16550_ns16550.c.o
 .data.sc_secondary_map
                0xffffffff8017b580      0x200 kernel/libnoninstrumentables.a.p/genarch_src_kbrd_scanc_pc.c.o
                0xffffffff8017b580                sc_secondary_map
 .data.sc_primary_map
                0xffffffff8017b780      0x200 kernel/libnoninstrumentables.a.p/genarch_src_kbrd_scanc_pc.c.o
                0xffffffff8017b780                sc_primary_map
 .data.egadev_ops
                0xffffffff8017b980       0x20 kernel/libnoninstrumentables.a.p/genarch_src_drivers_ega_ega.c.o
 .data.kobject_ops
                0xffffffff8017b9a0       0x20 kernel/libnoninstrumentables.a.p/generic_src_cap_cap.c.o
                0xffffffff8017b9a0                kobject_ops
 .data.stdout_ops
                0xffffffff8017b9c0       0x20 kernel/libnoninstrumentables.a.p/generic_src_console_console.c.o
 .data.stdin_ops
                0xffffffff8017b9e0       0x10 kernel/libnoninstrumentables.a.p/generic_src_console_console.c.o
 .data.kio_lock
                0xffffffff8017b9f0       0x10 kernel/libnoninstrumentables.a.p/generic_src_console_console.c.o
                0xffffffff8017b9f0                kio_lock
 .data.irq_uspace_hash_table_lock
                0xffffffff8017ba00       0x28 kernel/libnoninstrumentables.a.p/generic_src_ddi_irq.c.o
                0xffffffff8017ba00                irq_uspace_hash_table_lock
 *fill*         0xffffffff8017ba28       0x18 
 .data.irq_kernel_hash_table_lock
                0xffffffff8017ba40       0x28 kernel/libnoninstrumentables.a.p/generic_src_ddi_irq.c.o
 *fill*         0xffffffff8017ba68       0x18 
 .data.ust_ops  0xffffffff8017ba80       0x20 kernel/libnoninstrumentables.a.p/generic_src_debug_stacktrace.c.o
                0xffffffff8017ba80                ust_ops
 .data.kst_ops  0xffffffff8017baa0       0x20 kernel/libnoninstrumentables.a.p/generic_src_debug_stacktrace.c.o
                0xffffffff8017baa0                kst_ops
 .data.call_kobject_ops
                0xffffffff8017bac0        0x8 kernel/libnoninstrumentables.a.p/generic_src_ipc_ipc.c.o
                0xffffffff8017bac0                call_kobject_ops
 .data.phone_kobject_ops
                0xffffffff8017bac8        0x8 kernel/libnoninstrumentables.a.p/generic_src_ipc_ipcrsc.c.o
                0xffffffff8017bac8                phone_kobject_ops
 .data.irq_kobject_ops
                0xffffffff8017bad0        0x8 kernel/libnoninstrumentables.a.p/generic_src_ipc_irq.c.o
                0xffffffff8017bad0                irq_kobject_ops
 *fill*         0xffffffff8017bad8        0x8 
 .data.ipc_m_connect_me_to_ops
                0xffffffff8017bae0       0x30 kernel/libnoninstrumentables.a.p/generic_src_ipc_ops_conctmeto.c.o
                0xffffffff8017bae0                ipc_m_connect_me_to_ops
 *fill*         0xffffffff8017bb10       0x10 
 .data.ipc_m_connect_to_me_ops
                0xffffffff8017bb20       0x30 kernel/libnoninstrumentables.a.p/generic_src_ipc_ops_concttome.c.o
                0xffffffff8017bb20                ipc_m_connect_to_me_ops
 *fill*         0xffffffff8017bb50       0x10 
 .data.ipc_m_data_read_ops
                0xffffffff8017bb60       0x30 kernel/libnoninstrumentables.a.p/generic_src_ipc_ops_dataread.c.o
                0xffffffff8017bb60                ipc_m_data_read_ops
 *fill*         0xffffffff8017bb90       0x10 
 .data.ipc_m_data_write_ops
                0xffffffff8017bba0       0x30 kernel/libnoninstrumentables.a.p/generic_src_ipc_ops_datawrite.c.o
                0xffffffff8017bba0                ipc_m_data_write_ops
 *fill*         0xffffffff8017bbd0       0x10 
 .data.ipc_m_debug_ops
                0xffffffff8017bbe0       0x30 kernel/libnoninstrumentables.a.p/generic_src_ipc_ops_debug.c.o
                0xffffffff8017bbe0                ipc_m_debug_ops
 *fill*         0xffffffff8017bc10       0x10 
 .data.ipc_m_page_in_ops
                0xffffffff8017bc20       0x30 kernel/libnoninstrumentables.a.p/generic_src_ipc_ops_pagein.c.o
                0xffffffff8017bc20                ipc_m_page_in_ops
 *fill*         0xffffffff8017bc50       0x10 
 .data.ipc_m_share_in_ops
                0xffffffff8017bc60       0x30 kernel/libnoninstrumentables.a.p/generic_src_ipc_ops_sharein.c.o
                0xffffffff8017bc60                ipc_m_share_in_ops
 *fill*         0xffffffff8017bc90       0x10 
 .data.ipc_m_share_out_ops
                0xffffffff8017bca0       0x30 kernel/libnoninstrumentables.a.p/generic_src_ipc_ops_shareout.c.o
                0xffffffff8017bca0                ipc_m_share_out_ops
 *fill*         0xffffffff8017bcd0       0x10 
 .data.ipc_m_state_change_authorize_ops
                0xffffffff8017bce0       0x30 kernel/libnoninstrumentables.a.p/generic_src_ipc_ops_stchngath.c.o
                0xffffffff8017bce0                ipc_m_state_change_authorize_ops
 *fill*         0xffffffff8017bd10       0x10 
 .data.null_ops
                0xffffffff8017bd20       0x30 kernel/libnoninstrumentables.a.p/generic_src_ipc_sysipc_ops.c.o
 .data.log_lock
                0xffffffff8017bd50       0x10 kernel/libnoninstrumentables.a.p/generic_src_log_log.c.o
 .data.anon_backend
                0xffffffff8017bd60       0x50 kernel/libnoninstrumentables.a.p/generic_src_mm_backend_anon.c.o
                0xffffffff8017bd60                anon_backend
 *fill*         0xffffffff8017bdb0       0x10 
 .data.elf_backend
                0xffffffff8017bdc0       0x50 kernel/libnoninstrumentables.a.p/generic_src_mm_backend_elf.c.o
                0xffffffff8017bdc0                elf_backend
 *fill*         0xffffffff8017be10       0x10 
 .data.phys_backend
                0xffffffff8017be20       0x50 kernel/libnoninstrumentables.a.p/generic_src_mm_backend_phys.c.o
                0xffffffff8017be20                phys_backend
 *fill*         0xffffffff8017be70       0x10 
 .data.user_backend
                0xffffffff8017be80       0x50 kernel/libnoninstrumentables.a.p/generic_src_mm_backend_user.c.o
                0xffffffff8017be80                user_backend
 *fill*         0xffffffff8017bed0       0x10 
 .data.reserve_lock
                0xffffffff8017bee0       0x28 kernel/libnoninstrumentables.a.p/generic_src_mm_reserve.c.o
 *fill*         0xffffffff8017bf08       0x18 
 .data.tasks_lock
                0xffffffff8017bf20       0x28 kernel/libnoninstrumentables.a.p/generic_src_proc_task.c.o
                0xffffffff8017bf20                tasks_lock
 *fill*         0xffffffff8017bf48       0x18 
 .data.tidlock  0xffffffff8017bf60       0x28 kernel/libnoninstrumentables.a.p/generic_src_proc_thread.c.o
 *fill*         0xffffffff8017bf88       0x18 
 .data.threads_lock
                0xffffffff8017bfa0       0x28 kernel/libnoninstrumentables.a.p/generic_src_proc_thread.c.o
                0xffffffff8017bfa0                threads_lock
 *fill*         0xffffffff8017bfc8       0x18 
 .data.thread_states
                0xffffffff8017bfe0       0x38 kernel/libnoninstrumentables.a.p/generic_src_proc_thread.c.o
                0xffffffff8017bfe0                thread_states
 .data.waitq_kobject_ops
                0xffffffff8017c018        0x8 kernel/libnoninstrumentables.a.p/generic_src_synch_syswaitq.c.o
                0xffffffff8017c018                waitq_kobject_ops
 .data.version_info
                0xffffffff8017c020       0x58 kernel/libnoninstrumentables.a.p/generic_src_console_cmd.c.o
                0xffffffff8017c020                version_info
 *fill*         0xffffffff8017c078        0x8 
 .data.cpus_info
                0xffffffff8017c080       0x58 kernel/libnoninstrumentables.a.p/generic_src_console_cmd.c.o
                0xffffffff8017c080                cpus_info
 *fill*         0xffffffff8017c0d8        0x8 
 .data.kill_info
                0xffffffff8017c0e0       0x58 kernel/libnoninstrumentables.a.p/generic_src_console_cmd.c.o
 *fill*         0xffffffff8017c138        0x8 
 .data.kill_argv
                0xffffffff8017c140       0x28 kernel/libnoninstrumentables.a.p/generic_src_console_cmd.c.o
 *fill*         0xffffffff8017c168       0x18 
 .data.ipc_info
                0xffffffff8017c180       0x58 kernel/libnoninstrumentables.a.p/generic_src_console_cmd.c.o
 *fill*         0xffffffff8017c1d8        0x8 
 .data.ipc_argv
                0xffffffff8017c1e0       0x28 kernel/libnoninstrumentables.a.p/generic_src_console_cmd.c.o
 *fill*         0xffffffff8017c208       0x18 
 .data.zone_info
                0xffffffff8017c220       0x58 kernel/libnoninstrumentables.a.p/generic_src_console_cmd.c.o
 *fill*         0xffffffff8017c278        0x8 
 .data.zone_argv
                0xffffffff8017c280       0x28 kernel/libnoninstrumentables.a.p/generic_src_console_cmd.c.o
 *fill*         0xffffffff8017c2a8       0x18 
 .data.zones_info
                0xffffffff8017c2c0       0x58 kernel/libnoninstrumentables.a.p/generic_src_console_cmd.c.o
 *fill*         0xffffffff8017c318        0x8 
 .data.sysinfo_info
                0xffffffff8017c320       0x58 kernel/libnoninstrumentables.a.p/generic_src_console_cmd.c.o
 *fill*         0xffffffff8017c378        0x8 
 .data.caches_info
                0xffffffff8017c380       0x58 kernel/libnoninstrumentables.a.p/generic_src_console_cmd.c.o
 *fill*         0xffffffff8017c3d8        0x8 
 .data.sched_info
                0xffffffff8017c3e0       0x58 kernel/libnoninstrumentables.a.p/generic_src_console_cmd.c.o
 *fill*         0xffffffff8017c438        0x8 
 .data.btrace_info
                0xffffffff8017c440       0x58 kernel/libnoninstrumentables.a.p/generic_src_console_cmd.c.o
 *fill*         0xffffffff8017c498        0x8 
 .data.btrace_argv
                0xffffffff8017c4a0       0x28 kernel/libnoninstrumentables.a.p/generic_src_console_cmd.c.o
 *fill*         0xffffffff8017c4c8       0x18 
 .data.tasks_info
                0xffffffff8017c4e0       0x58 kernel/libnoninstrumentables.a.p/generic_src_console_cmd.c.o
 *fill*         0xffffffff8017c538        0x8 
 .data.tasks_argv
                0xffffffff8017c540       0x28 kernel/libnoninstrumentables.a.p/generic_src_console_cmd.c.o
 *fill*         0xffffffff8017c568       0x18 
 .data.threads_info
                0xffffffff8017c580       0x58 kernel/libnoninstrumentables.a.p/generic_src_console_cmd.c.o
 *fill*         0xffffffff8017c5d8        0x8 
 .data.threads_argv
                0xffffffff8017c5e0       0x28 kernel/libnoninstrumentables.a.p/generic_src_console_cmd.c.o
 *fill*         0xffffffff8017c608       0x18 
 .data.tlb_info
                0xffffffff8017c620       0x58 kernel/libnoninstrumentables.a.p/generic_src_console_cmd.c.o
                0xffffffff8017c620                tlb_info
 *fill*         0xffffffff8017c678        0x8 
 .data.physmem_info
                0xffffffff8017c680       0x58 kernel/libnoninstrumentables.a.p/generic_src_console_cmd.c.o
                0xffffffff8017c680                physmem_info
 *fill*         0xffffffff8017c6d8        0x8 
 .data.halt_info
                0xffffffff8017c6e0       0x58 kernel/libnoninstrumentables.a.p/generic_src_console_cmd.c.o
 *fill*         0xffffffff8017c738        0x8 
 .data.call3_info
                0xffffffff8017c740       0x58 kernel/libnoninstrumentables.a.p/generic_src_console_cmd.c.o
 *fill*         0xffffffff8017c798        0x8 
 .data.call3_argv
                0xffffffff8017c7a0       0xa0 kernel/libnoninstrumentables.a.p/generic_src_console_cmd.c.o
 .data.call2_info
                0xffffffff8017c840       0x58 kernel/libnoninstrumentables.a.p/generic_src_console_cmd.c.o
 *fill*         0xffffffff8017c898        0x8 
 .data.call2_argv
                0xffffffff8017c8a0       0x78 kernel/libnoninstrumentables.a.p/generic_src_console_cmd.c.o
 *fill*         0xffffffff8017c918        0x8 
 .data.call1_info
                0xffffffff8017c920       0x58 kernel/libnoninstrumentables.a.p/generic_src_console_cmd.c.o
 *fill*         0xffffffff8017c978        0x8 
 .data.call1_argv
                0xffffffff8017c980       0x50 kernel/libnoninstrumentables.a.p/generic_src_console_cmd.c.o
 *fill*         0xffffffff8017c9d0       0x10 
 .data.mcall0_info
                0xffffffff8017c9e0       0x58 kernel/libnoninstrumentables.a.p/generic_src_console_cmd.c.o
 *fill*         0xffffffff8017ca38        0x8 
 .data.mcall0_argv
                0xffffffff8017ca40       0x28 kernel/libnoninstrumentables.a.p/generic_src_console_cmd.c.o
 *fill*         0xffffffff8017ca68       0x18 
 .data.call0_info
                0xffffffff8017ca80       0x58 kernel/libnoninstrumentables.a.p/generic_src_console_cmd.c.o
 *fill*         0xffffffff8017cad8        0x8 
 .data.call0_argv
                0xffffffff8017cae0       0x28 kernel/libnoninstrumentables.a.p/generic_src_console_cmd.c.o
 *fill*         0xffffffff8017cb08       0x18 
 .data.set4_info
                0xffffffff8017cb20       0x58 kernel/libnoninstrumentables.a.p/generic_src_console_cmd.c.o
 *fill*         0xffffffff8017cb78        0x8 
 .data.set4_argv
                0xffffffff8017cb80       0x50 kernel/libnoninstrumentables.a.p/generic_src_console_cmd.c.o
 *fill*         0xffffffff8017cbd0       0x10 
 .data.symaddr_info
                0xffffffff8017cbe0       0x58 kernel/libnoninstrumentables.a.p/generic_src_console_cmd.c.o
 *fill*         0xffffffff8017cc38        0x8 
 .data.symaddr_argv
                0xffffffff8017cc40       0x28 kernel/libnoninstrumentables.a.p/generic_src_console_cmd.c.o
 *fill*         0xffffffff8017cc68       0x18 
 .data.desc_info
                0xffffffff8017cc80       0x58 kernel/libnoninstrumentables.a.p/generic_src_console_cmd.c.o
 *fill*         0xffffffff8017ccd8        0x8 
 .data.desc_argv
                0xffffffff8017cce0       0x28 kernel/libnoninstrumentables.a.p/generic_src_console_cmd.c.o
 *fill*         0xffffffff8017cd08       0x18 
 .data.printbench_info
                0xffffffff8017cd20       0x58 kernel/libnoninstrumentables.a.p/generic_src_console_cmd.c.o
 *fill*         0xffffffff8017cd78        0x8 
 .data.bench_info
                0xffffffff8017cd80       0x58 kernel/libnoninstrumentables.a.p/generic_src_console_cmd.c.o
 *fill*         0xffffffff8017cdd8        0x8 
 .data.bench_argv
                0xffffffff8017cde0       0x50 kernel/libnoninstrumentables.a.p/generic_src_console_cmd.c.o
 *fill*         0xffffffff8017ce30       0x10 
 .data.test_info
                0xffffffff8017ce40       0x58 kernel/libnoninstrumentables.a.p/generic_src_console_cmd.c.o
 *fill*         0xffffffff8017ce98        0x8 
 .data.test_argv
                0xffffffff8017cea0       0x28 kernel/libnoninstrumentables.a.p/generic_src_console_cmd.c.o
 *fill*         0xffffffff8017cec8       0x18 
 .data.continue_info
                0xffffffff8017cee0       0x58 kernel/libnoninstrumentables.a.p/generic_src_console_cmd.c.o
 *fill*         0xffffffff8017cf38        0x8 
 .data.uptime_info
                0xffffffff8017cf40       0x58 kernel/libnoninstrumentables.a.p/generic_src_console_cmd.c.o
 *fill*         0xffffffff8017cf98        0x8 
 .data.reboot_info
                0xffffffff8017cfa0       0x58 kernel/libnoninstrumentables.a.p/generic_src_console_cmd.c.o
 *fill*         0xffffffff8017cff8        0x8 
 .data.pio_write_32_info
                0xffffffff8017d000       0x58 kernel/libnoninstrumentables.a.p/generic_src_console_cmd.c.o
 *fill*         0xffffffff8017d058        0x8 
 .data.pio_write_32_argv
                0xffffffff8017d060       0x50 kernel/libnoninstrumentables.a.p/generic_src_console_cmd.c.o
 *fill*         0xffffffff8017d0b0       0x10 
 .data.pio_write_16_info
                0xffffffff8017d0c0       0x58 kernel/libnoninstrumentables.a.p/generic_src_console_cmd.c.o
 *fill*         0xffffffff8017d118        0x8 
 .data.pio_write_16_argv
                0xffffffff8017d120       0x50 kernel/libnoninstrumentables.a.p/generic_src_console_cmd.c.o
 *fill*         0xffffffff8017d170       0x10 
 .data.pio_write_8_info
                0xffffffff8017d180       0x58 kernel/libnoninstrumentables.a.p/generic_src_console_cmd.c.o
 *fill*         0xffffffff8017d1d8        0x8 
 .data.pio_write_8_argv
                0xffffffff8017d1e0       0x50 kernel/libnoninstrumentables.a.p/generic_src_console_cmd.c.o
 *fill*         0xffffffff8017d230       0x10 
 .data.pio_read_32_info
                0xffffffff8017d240       0x58 kernel/libnoninstrumentables.a.p/generic_src_console_cmd.c.o
 *fill*         0xffffffff8017d298        0x8 
 .data.pio_read_32_argv
                0xffffffff8017d2a0       0x28 kernel/libnoninstrumentables.a.p/generic_src_console_cmd.c.o
 *fill*         0xffffffff8017d2c8       0x18 
 .data.pio_read_16_info
                0xffffffff8017d2e0       0x58 kernel/libnoninstrumentables.a.p/generic_src_console_cmd.c.o
 *fill*         0xffffffff8017d338        0x8 
 .data.pio_read_16_argv
                0xffffffff8017d340       0x28 kernel/libnoninstrumentables.a.p/generic_src_console_cmd.c.o
 *fill*         0xffffffff8017d368       0x18 
 .data.pio_read_8_info
                0xffffffff8017d380       0x58 kernel/libnoninstrumentables.a.p/generic_src_console_cmd.c.o
 *fill*         0xffffffff8017d3d8        0x8 
 .data.pio_read_8_argv
                0xffffffff8017d3e0       0x28 kernel/libnoninstrumentables.a.p/generic_src_console_cmd.c.o
 *fill*         0xffffffff8017d408       0x18 
 .data.help_info
                0xffffffff8017d420       0x58 kernel/libnoninstrumentables.a.p/generic_src_console_cmd.c.o
 *fill*         0xffffffff8017d478        0x8 
 .data.tests    0xffffffff8017d480      0x220 kernel/libnoninstrumentables.a.p/test_test.c.o
                0xffffffff8017d480                tests
 .data.seed     0xffffffff8017d6a0        0x4 kernel/libnoninstrumentables.a.p/test_synch_semaphore2.c.o
 *fill*         0xffffffff8017d6a4        0xc 
 .data.sem_lock
                0xffffffff8017d6b0       0x10 kernel/libnoninstrumentables.a.p/test_synch_semaphore2.c.o
                0xffffffff8017d6b0                sem_lock
 *(.bss .bss.*)
 .bss.cpus      0xffffffff8017d6c0        0x8 kernel/libinstrumentables.a.p/generic_src_cpu_cpu.c.o
                0xffffffff8017d6c0                cpus
 *fill*         0xffffffff8017d6c8       0x18 
 .bss.pareas    0xffffffff8017d6e0       0x28 kernel/libinstrumentables.a.p/generic_src_ddi_ddi.c.o
 *fill*         0xffffffff8017d708       0x18 
 .bss.pareas_lock
                0xffffffff8017d720       0x60 kernel/libinstrumentables.a.p/generic_src_ddi_ddi.c.o
 .bss.flag_buf  0xffffffff8017d780      0x101 kernel/libinstrumentables.a.p/generic_src_interrupt_interrupt.c.o
 *fill*         0xffffffff8017d881       0x1f 
 .bss.exc_table
                0xffffffff8017d8a0      0xa00 kernel/libinstrumentables.a.p/generic_src_interrupt_interrupt.c.o
                0xffffffff8017d8a0                exc_table
 *fill*         0xffffffff8017e2a0     0x1d60 
 .bss.bootstrap_stack
                0xffffffff80180000     0x2000 kernel/libinstrumentables.a.p/generic_src_main_main.c.o
 .bss.ctx       0xffffffff80182000       0x48 kernel/libinstrumentables.a.p/generic_src_main_main.c.o
 *fill*         0xffffffff80182048        0x8 
 .bss.ballocs   0xffffffff80182050       0x10 kernel/libinstrumentables.a.p/generic_src_main_main.c.o
                0xffffffff80182050                ballocs
 .bss.init      0xffffffff80182060      0xe08 kernel/libinstrumentables.a.p/generic_src_main_main.c.o
                0xffffffff80182060                init
 *fill*         0xffffffff80182e68       0x18 
 .bss.bargs     0xffffffff80182e80      0x100 kernel/libinstrumentables.a.p/generic_src_main_main.c.o
                0xffffffff80182e80                bargs
 .bss.config    0xffffffff80182f80       0x48 kernel/libinstrumentables.a.p/generic_src_main_main.c.o
                0xffffffff80182f80                config
 .bss.AS_KERNEL
                0xffffffff80182fc8        0x8 kernel/libinstrumentables.a.p/generic_src_mm_as.c.o
                0xffffffff80182fc8                AS_KERNEL
 .bss.used_space_ival_cache
                0xffffffff80182fd0        0x8 kernel/libinstrumentables.a.p/generic_src_mm_as.c.o
 .bss.as_page_mapping_cache
                0xffffffff80182fd8        0x8 kernel/libinstrumentables.a.p/generic_src_mm_as.c.o
 .bss.as_cache  0xffffffff80182fe0        0x8 kernel/libinstrumentables.a.p/generic_src_mm_as.c.o
 .bss.as_operations
                0xffffffff80182fe8        0x8 kernel/libinstrumentables.a.p/generic_src_mm_as.c.o
                0xffffffff80182fe8                as_operations
 .bss.mem_avail_gen
                0xffffffff80182ff0        0x8 kernel/libinstrumentables.a.p/generic_src_mm_frame.c.o
 .bss.mem_avail_req
                0xffffffff80182ff8        0x8 kernel/libinstrumentables.a.p/generic_src_mm_frame.c.o
 .bss.mem_avail_cv
                0xffffffff80183000       0x48 kernel/libinstrumentables.a.p/generic_src_mm_frame.c.o
 *fill*         0xffffffff80183048       0x18 
 .bss.mem_avail_mtx
                0xffffffff80183060       0x60 kernel/libinstrumentables.a.p/generic_src_mm_frame.c.o
 .bss.zones     0xffffffff801830c0      0x930 kernel/libinstrumentables.a.p/generic_src_mm_frame.c.o
                0xffffffff801830c0                zones
 .bss.page_mapping_operations
                0xffffffff801839f0        0x8 kernel/libinstrumentables.a.p/generic_src_mm_page.c.o
                0xffffffff801839f0                page_mapping_operations
 .bss._slab_initialized
                0xffffffff801839f8        0x4 kernel/libinstrumentables.a.p/generic_src_mm_slab.c.o
 *fill*         0xffffffff801839fc        0x4 
 .bss.slab_extern_cache
                0xffffffff80183a00        0x8 kernel/libinstrumentables.a.p/generic_src_mm_slab.c.o
 *fill*         0xffffffff80183a08       0x18 
 .bss.slab_mag_cache
                0xffffffff80183a20       0xf0 kernel/libinstrumentables.a.p/generic_src_mm_slab.c.o
 *fill*         0xffffffff80183b10       0x10 
 .bss.slab_cache_cache
                0xffffffff80183b20       0xf0 kernel/libinstrumentables.a.p/generic_src_mm_slab.c.o
 *fill*         0xffffffff80183c10       0x10 
 .bss.mag_cache
                0xffffffff80183c20       0xf0 kernel/libinstrumentables.a.p/generic_src_mm_slab.c.o
 *fill*         0xffffffff80183d10       0x10 
 .bss.sysinfo_lock
                0xffffffff80183d20       0x60 kernel/libinstrumentables.a.p/generic_src_sysinfo_sysinfo.c.o
 .bss.sysinfo_item_cache
                0xffffffff80183d80        0x8 kernel/libinstrumentables.a.p/generic_src_sysinfo_sysinfo.c.o
 .bss.global_root
                0xffffffff80183d88        0x8 kernel/libinstrumentables.a.p/generic_src_sysinfo_sysinfo.c.o
 .bss.fb_exported
                0xffffffff80183d90        0x1 kernel/libinstrumentables.a.p/generic_src_sysinfo_sysinfo.c.o
                0xffffffff80183d90                fb_exported
 *fill*         0xffffffff80183d91        0x7 
 .bss.history_pos
                0xffffffff80183d98        0x8 kernel/libinstrumentables.a.p/generic_src_console_kconsole.c.o
 .bss.history   0xffffffff80183da0     0x2800 kernel/libinstrumentables.a.p/generic_src_console_kconsole.c.o
 .bss.ebda      0xffffffff801865a0        0x8 kernel/libnoninstrumentables.a.p/arch_amd64_src_bios_bios.c.o
                0xffffffff801865a0                ebda
 *fill*         0xffffffff801865a8       0x18 
 .bss.e820table
                0xffffffff801865c0      0x280 kernel/libnoninstrumentables.a.p/arch_amd64_src_boot_memmap.c.o
                0xffffffff801865c0                e820table
 .bss.e820counter
                0xffffffff80186840        0x1 kernel/libnoninstrumentables.a.p/arch_amd64_src_boot_memmap.c.o
                0xffffffff80186840                e820counter
 *fill*         0xffffffff80186841       0x1f 
 .bss.i8254_irq
                0xffffffff80186860       0xb0 kernel/libnoninstrumentables.a.p/arch_amd64_src_drivers_i8254.c.o
 .bss.pic_ops   0xffffffff80186910        0x8 kernel/libnoninstrumentables.a.p/arch_amd64_src_interrupt.c.o
                0xffffffff80186910                pic_ops
 .bss.tss_p     0xffffffff80186918        0x8 kernel/libnoninstrumentables.a.p/arch_amd64_src_pm.c.o
                0xffffffff80186918                tss_p
 .bss.tss       0xffffffff80186920     0x2069 kernel/libnoninstrumentables.a.p/arch_amd64_src_pm.c.o
 *fill*         0xffffffff80188989       0x17 
 .bss.idt       0xffffffff801889a0      0x400 kernel/libnoninstrumentables.a.p/arch_amd64_src_pm.c.o
                0xffffffff801889a0                idt
 .bss.vreg_tp_dummy
                0xffffffff80188da0        0x8 kernel/libnoninstrumentables.a.p/arch_amd64_src_vreg.c.o
 *fill*         0xffffffff80188da8       0x18 
 .bss.l_apic_timer_irq
                0xffffffff80188dc0       0xb0 kernel/libnoninstrumentables.a.p/arch_amd64_src_smp_apic.c.o
 .bss.bsp_l_apic
                0xffffffff80188e70        0x1 kernel/libnoninstrumentables.a.p/arch_amd64_src_smp_apic.c.o
                0xffffffff80188e70                bsp_l_apic
 *fill*         0xffffffff80188e71        0x3 
 .bss.apic_id_mask
                0xffffffff80188e74        0x4 kernel/libnoninstrumentables.a.p/arch_amd64_src_smp_apic.c.o
                0xffffffff80188e74                apic_id_mask
 .bss.l_intr_entry_cnt
                0xffffffff80188e78        0x8 kernel/libnoninstrumentables.a.p/arch_amd64_src_smp_mps.c.o
 .bss.io_intr_entry_cnt
                0xffffffff80188e80        0x8 kernel/libnoninstrumentables.a.p/arch_amd64_src_smp_mps.c.o
 .bss.io_apic_entry_cnt
                0xffffffff80188e88        0x8 kernel/libnoninstrumentables.a.p/arch_amd64_src_smp_mps.c.o
 .bss.bus_entry_cnt
                0xffffffff80188e90        0x8 kernel/libnoninstrumentables.a.p/arch_amd64_src_smp_mps.c.o
 .bss.processor_entry_cnt
                0xffffffff80188e98        0x8 kernel/libnoninstrumentables.a.p/arch_amd64_src_smp_mps.c.o
 .bss.io_apic_cnt
                0xffffffff80188ea0        0x8 kernel/libnoninstrumentables.a.p/arch_amd64_src_smp_mps.c.o
 .bss.l_intr_entries
                0xffffffff80188ea8        0x8 kernel/libnoninstrumentables.a.p/arch_amd64_src_smp_mps.c.o
 .bss.io_intr_entries
                0xffffffff80188eb0        0x8 kernel/libnoninstrumentables.a.p/arch_amd64_src_smp_mps.c.o
 .bss.io_apic_entries
                0xffffffff80188eb8        0x8 kernel/libnoninstrumentables.a.p/arch_amd64_src_smp_mps.c.o
 .bss.bus_entries
                0xffffffff80188ec0        0x8 kernel/libnoninstrumentables.a.p/arch_amd64_src_smp_mps.c.o
 .bss.processor_entries
                0xffffffff80188ec8        0x8 kernel/libnoninstrumentables.a.p/arch_amd64_src_smp_mps.c.o
 .bss.ct        0xffffffff80188ed0        0x8 kernel/libnoninstrumentables.a.p/arch_amd64_src_smp_mps.c.o
 .bss.fs        0xffffffff80188ed8        0x8 kernel/libnoninstrumentables.a.p/arch_amd64_src_smp_mps.c.o
 .bss.ops       0xffffffff80188ee0        0x8 kernel/libnoninstrumentables.a.p/arch_amd64_src_smp_smp.c.o
 .bss.acpi_xsdt
                0xffffffff80188ee8        0x8 kernel/libnoninstrumentables.a.p/genarch_src_acpi_acpi.c.o
                0xffffffff80188ee8                acpi_xsdt
 .bss.acpi_rsdt
                0xffffffff80188ef0        0x8 kernel/libnoninstrumentables.a.p/genarch_src_acpi_acpi.c.o
                0xffffffff80188ef0                acpi_rsdt
 .bss.acpi_rsdp
                0xffffffff80188ef8        0x8 kernel/libnoninstrumentables.a.p/genarch_src_acpi_acpi.c.o
                0xffffffff80188ef8                acpi_rsdp
 .bss.madt_entries_index
                0xffffffff80188f00        0x8 kernel/libnoninstrumentables.a.p/genarch_src_acpi_madt.c.o
 .bss.madt_io_apic_entry_cnt
                0xffffffff80188f08        0x8 kernel/libnoninstrumentables.a.p/genarch_src_acpi_madt.c.o
 .bss.madt_l_apic_entry_cnt
                0xffffffff80188f10        0x8 kernel/libnoninstrumentables.a.p/genarch_src_acpi_madt.c.o
 .bss.madt_l_apic_entry_index
                0xffffffff80188f18        0x8 kernel/libnoninstrumentables.a.p/genarch_src_acpi_madt.c.o
 .bss.acpi_madt
                0xffffffff80188f20        0x8 kernel/libnoninstrumentables.a.p/genarch_src_acpi_madt.c.o
                0xffffffff80188f20                acpi_madt
 .bss.bfb_blue_size
                0xffffffff80188f28        0x1 kernel/libnoninstrumentables.a.p/genarch_src_fb_bfb.c.o
                0xffffffff80188f28                bfb_blue_size
 .bss.bfb_blue_pos
                0xffffffff80188f29        0x1 kernel/libnoninstrumentables.a.p/genarch_src_fb_bfb.c.o
                0xffffffff80188f29                bfb_blue_pos
 .bss.bfb_green_size
                0xffffffff80188f2a        0x1 kernel/libnoninstrumentables.a.p/genarch_src_fb_bfb.c.o
                0xffffffff80188f2a                bfb_green_size
 .bss.bfb_green_pos
                0xffffffff80188f2b        0x1 kernel/libnoninstrumentables.a.p/genarch_src_fb_bfb.c.o
                0xffffffff80188f2b                bfb_green_pos
 .bss.bfb_red_size
                0xffffffff80188f2c        0x1 kernel/libnoninstrumentables.a.p/genarch_src_fb_bfb.c.o
                0xffffffff80188f2c                bfb_red_size
 .bss.bfb_red_pos
                0xffffffff80188f2d        0x1 kernel/libnoninstrumentables.a.p/genarch_src_fb_bfb.c.o
                0xffffffff80188f2d                bfb_red_pos
 *fill*         0xffffffff80188f2e        0x2 
 .bss.bfb_scanline
                0xffffffff80188f30        0x4 kernel/libnoninstrumentables.a.p/genarch_src_fb_bfb.c.o
                0xffffffff80188f30                bfb_scanline
 .bss.bfb_bpp   0xffffffff80188f34        0x2 kernel/libnoninstrumentables.a.p/genarch_src_fb_bfb.c.o
                0xffffffff80188f34                bfb_bpp
 *fill*         0xffffffff80188f36        0x2 
 .bss.bfb_height
                0xffffffff80188f38        0x4 kernel/libnoninstrumentables.a.p/genarch_src_fb_bfb.c.o
                0xffffffff80188f38                bfb_height
 .bss.bfb_width
                0xffffffff80188f3c        0x4 kernel/libnoninstrumentables.a.p/genarch_src_fb_bfb.c.o
                0xffffffff80188f3c                bfb_width
 .bss.bfb_addr  0xffffffff80188f40        0x8 kernel/libnoninstrumentables.a.p/genarch_src_fb_bfb.c.o
                0xffffffff80188f40                bfb_addr
 .bss.saved_pic1
                0xffffffff80188f48        0x8 kernel/libnoninstrumentables.a.p/genarch_src_drivers_i8259_i8259.c.o
 .bss.saved_pic0
                0xffffffff80188f50        0x8 kernel/libnoninstrumentables.a.p/genarch_src_drivers_i8259_i8259.c.o
 *fill*         0xffffffff80188f58        0x8 
 .bss.kbrd_raw_ops
                0xffffffff80188f60       0x10 kernel/libnoninstrumentables.a.p/genarch_src_kbrd_kbrd.c.o
 .bss.srln_raw_ops
                0xffffffff80188f70       0x10 kernel/libnoninstrumentables.a.p/genarch_src_srln_srln.c.o
 .bss.kobject_cache
                0xffffffff80188f80        0x8 kernel/libnoninstrumentables.a.p/generic_src_cap_cap.c.o
 .bss.cap_cache
                0xffffffff80188f88        0x8 kernel/libnoninstrumentables.a.p/generic_src_cap_cap.c.o
 .bss.stdout    0xffffffff80188f90        0x8 kernel/libnoninstrumentables.a.p/generic_src_console_console.c.o
                0xffffffff80188f90                stdout
 .bss.stdin     0xffffffff80188f98        0x8 kernel/libnoninstrumentables.a.p/generic_src_console_console.c.o
                0xffffffff80188f98                stdin
 .bss.console_override
                0xffffffff80188fa0        0x1 kernel/libnoninstrumentables.a.p/generic_src_console_console.c.o
                0xffffffff80188fa0                console_override
 *fill*         0xffffffff80188fa1       0x1f 
 .bss.stdout_source
                0xffffffff80188fc0       0x48 kernel/libnoninstrumentables.a.p/generic_src_console_console.c.o
 *fill*         0xffffffff80189008       0x18 
 .bss.stdin_sink
                0xffffffff80189020      0x898 kernel/libnoninstrumentables.a.p/generic_src_console_console.c.o
 *fill*         0xffffffff801898b8        0x8 
 .bss.kio_parea
                0xffffffff801898c0       0x60 kernel/libnoninstrumentables.a.p/generic_src_console_console.c.o
 .bss.kio_uspace
                0xffffffff80189920        0x8 kernel/libnoninstrumentables.a.p/generic_src_console_console.c.o
 .bss.kio_stored
                0xffffffff80189928        0x8 kernel/libnoninstrumentables.a.p/generic_src_console_console.c.o
 .bss.kio_len   0xffffffff80189930        0x8 kernel/libnoninstrumentables.a.p/generic_src_console_console.c.o
 .bss.kio_start
                0xffffffff80189938        0x8 kernel/libnoninstrumentables.a.p/generic_src_console_console.c.o
 .bss.kio_inited
                0xffffffff80189940        0x1 kernel/libnoninstrumentables.a.p/generic_src_console_console.c.o
 *fill*         0xffffffff80189941      0x6bf 
 .bss.kio       0xffffffff8018a000     0x8000 kernel/libnoninstrumentables.a.p/generic_src_console_console.c.o
                0xffffffff8018a000                kio
 .bss.last_inr  0xffffffff80192000        0x4 kernel/libnoninstrumentables.a.p/generic_src_ddi_irq.c.o
                0xffffffff80192000                last_inr
 *fill*         0xffffffff80192004       0x1c 
 .bss.irq_uspace_hash_table
                0xffffffff80192020       0x38 kernel/libnoninstrumentables.a.p/generic_src_ddi_irq.c.o
                0xffffffff80192020                irq_uspace_hash_table
 *fill*         0xffffffff80192058        0x8 
 .bss.irq_kernel_hash_table
                0xffffffff80192060       0x38 kernel/libnoninstrumentables.a.p/generic_src_ddi_irq.c.o
 .bss.irq_cache
                0xffffffff80192098        0x8 kernel/libnoninstrumentables.a.p/generic_src_ddi_irq.c.o
                0xffffffff80192098                irq_cache
 .bss.kernel_sections
                0xffffffff801920a0       0xb0 kernel/libnoninstrumentables.a.p/generic_src_debug_sections.c.o
                0xffffffff801920a0                kernel_sections
 *fill*         0xffffffff80192150       0x10 
 .bss.events    0xffffffff80192160       0xe0 kernel/libnoninstrumentables.a.p/generic_src_ipc_event.c.o
 .bss.phone_cache
                0xffffffff80192240        0x8 kernel/libnoninstrumentables.a.p/generic_src_ipc_ipc.c.o
                0xffffffff80192240                phone_cache
 .bss.answerbox_cache
                0xffffffff80192248        0x8 kernel/libnoninstrumentables.a.p/generic_src_ipc_ipc.c.o
 .bss.call_cache
                0xffffffff80192250        0x8 kernel/libnoninstrumentables.a.p/generic_src_ipc_ipc.c.o
 .bss.ipc_box_0
                0xffffffff80192258        0x8 kernel/libnoninstrumentables.a.p/generic_src_ipc_ipc.c.o
                0xffffffff80192258                ipc_box_0
 .bss.haltstate
                0xffffffff80192260        0x1 kernel/libnoninstrumentables.a.p/generic_src_lib_halt.c.o
                0xffffffff80192260                haltstate
 *fill*         0xffffffff80192261        0x7 
 .bss.ra_segment_cache
                0xffffffff80192268        0x8 kernel/libnoninstrumentables.a.p/generic_src_lib_ra.c.o
 *fill*         0xffffffff80192270       0x10 
 .bss.rd_parea  0xffffffff80192280       0x60 kernel/libnoninstrumentables.a.p/generic_src_lib_rd.c.o
 .bss.next_for_uspace
                0xffffffff801922e0        0x8 kernel/libnoninstrumentables.a.p/generic_src_log_log.c.o
 .bss.log_current_len
                0xffffffff801922e8        0x8 kernel/libnoninstrumentables.a.p/generic_src_log_log.c.o
 .bss.log_current_start
                0xffffffff801922f0        0x8 kernel/libnoninstrumentables.a.p/generic_src_log_log.c.o
 .bss.log_counter
                0xffffffff801922f8        0x4 kernel/libnoninstrumentables.a.p/generic_src_log_log.c.o
 *fill*         0xffffffff801922fc        0x4 
 .bss.log_used  0xffffffff80192300        0x8 kernel/libnoninstrumentables.a.p/generic_src_log_log.c.o
                0xffffffff80192300                log_used
 .bss.log_start
                0xffffffff80192308        0x8 kernel/libnoninstrumentables.a.p/generic_src_log_log.c.o
                0xffffffff80192308                log_start
 .bss.log_inited
                0xffffffff80192310        0x1 kernel/libnoninstrumentables.a.p/generic_src_log_log.c.o
 *fill*         0xffffffff80192311      0xcef 
 .bss.log_buffer
                0xffffffff80193000     0x8000 kernel/libnoninstrumentables.a.p/generic_src_log_log.c.o
                0xffffffff80193000                log_buffer
 .bss.deferred_page
                0xffffffff8019b000     0x1000 kernel/libnoninstrumentables.a.p/generic_src_mm_km.c.o
 .bss.deferred_pages
                0xffffffff8019c000        0x4 kernel/libnoninstrumentables.a.p/generic_src_mm_km.c.o
 *fill*         0xffffffff8019c004        0x4 
 .bss.km_ni_arena
                0xffffffff8019c008        0x8 kernel/libnoninstrumentables.a.p/generic_src_mm_km.c.o
 *fill*         0xffffffff8019c010       0x10 
 .bss.malloc_caches
                0xffffffff8019c020       0x98 kernel/libnoninstrumentables.a.p/generic_src_mm_malloc.c.o
 .bss.reserve   0xffffffff8019c0b8        0x8 kernel/libnoninstrumentables.a.p/generic_src_mm_reserve.c.o
 .bss.reserve_initialized
                0xffffffff8019c0c0        0x1 kernel/libnoninstrumentables.a.p/generic_src_mm_reserve.c.o
 *fill*         0xffffffff8019c0c1        0x7 
 .bss.program_loader
                0xffffffff8019c0c8        0x8 kernel/libnoninstrumentables.a.p/generic_src_proc_program.c.o
                0xffffffff8019c0c8                program_loader
 .bss.nrdy      0xffffffff8019c0d0        0x8 kernel/libnoninstrumentables.a.p/generic_src_proc_scheduler.c.o
                0xffffffff8019c0d0                nrdy
 .bss.task_cache
                0xffffffff8019c0d8        0x8 kernel/libnoninstrumentables.a.p/generic_src_proc_task.c.o
 .bss.task_counter
                0xffffffff8019c0e0        0x8 kernel/libnoninstrumentables.a.p/generic_src_proc_task.c.o
 *fill*         0xffffffff8019c0e8       0x18 
 .bss.tasks     0xffffffff8019c100       0x28 kernel/libnoninstrumentables.a.p/generic_src_proc_task.c.o
                0xffffffff8019c100                tasks
 .bss.thread_cache
                0xffffffff8019c128        0x8 kernel/libnoninstrumentables.a.p/generic_src_proc_thread.c.o
 .bss.last_tid  0xffffffff8019c130        0x8 kernel/libnoninstrumentables.a.p/generic_src_proc_thread.c.o
 *fill*         0xffffffff8019c138        0x8 
 .bss.threads   0xffffffff8019c140       0x28 kernel/libnoninstrumentables.a.p/generic_src_proc_thread.c.o
                0xffffffff8019c140                threads
 *fill*         0xffffffff8019c168       0x18 
 .bss.ap_completion_semaphore
                0xffffffff8019c180       0x48 kernel/libnoninstrumentables.a.p/generic_src_smp_smp.c.o
                0xffffffff8019c180                ap_completion_semaphore
 .bss.waitq_cache
                0xffffffff8019c1c8        0x8 kernel/libnoninstrumentables.a.p/generic_src_synch_syswaitq.c.o
 *fill*         0xffffffff8019c1d0       0x10 
 .bss.load_lock
                0xffffffff8019c1e0       0x60 kernel/libnoninstrumentables.a.p/generic_src_sysinfo_stats.c.o
 .bss.avenrdy   0xffffffff8019c240        0xc kernel/libnoninstrumentables.a.p/generic_src_sysinfo_stats.c.o
 *fill*         0xffffffff8019c24c       0x14 
 .bss.clock_parea
                0xffffffff8019c260       0x60 kernel/libnoninstrumentables.a.p/generic_src_time_clock.c.o
 .bss.uptime    0xffffffff8019c2c0        0x8 kernel/libnoninstrumentables.a.p/generic_src_time_clock.c.o
                0xffffffff8019c2c0                uptime
 *fill*         0xffffffff8019c2c8       0x18 
 .bss.flag_buf  0xffffffff8019c2e0      0x101 kernel/libnoninstrumentables.a.p/generic_src_console_cmd.c.o
 *fill*         0xffffffff8019c3e1       0x1f 
 .bss.carg3_buf
                0xffffffff8019c400      0x101 kernel/libnoninstrumentables.a.p/generic_src_console_cmd.c.o
 *fill*         0xffffffff8019c501       0x1f 
 .bss.carg2_buf
                0xffffffff8019c520      0x101 kernel/libnoninstrumentables.a.p/generic_src_console_cmd.c.o
 *fill*         0xffffffff8019c621       0x1f 
 .bss.carg1_buf
                0xffffffff8019c640      0x101 kernel/libnoninstrumentables.a.p/generic_src_console_cmd.c.o
 *fill*         0xffffffff8019c741       0x1f 
 .bss.call0_buf
                0xffffffff8019c760      0x101 kernel/libnoninstrumentables.a.p/generic_src_console_cmd.c.o
 *fill*         0xffffffff8019c861       0x1f 
 .bss.set_buf   0xffffffff8019c880      0x101 kernel/libnoninstrumentables.a.p/generic_src_console_cmd.c.o
 *fill*         0xffffffff8019c981       0x1f 
 .bss.symaddr_buf
                0xffffffff8019c9a0      0x101 kernel/libnoninstrumentables.a.p/generic_src_console_cmd.c.o
 *fill*         0xffffffff8019caa1       0x1f 
 .bss.desc_buf  0xffffffff8019cac0      0x101 kernel/libnoninstrumentables.a.p/generic_src_console_cmd.c.o
 *fill*         0xffffffff8019cbc1       0x1f 
 .bss.test_buf  0xffffffff8019cbe0      0x101 kernel/libnoninstrumentables.a.p/generic_src_console_cmd.c.o
 .bss.test_quiet
                0xffffffff8019cce1        0x1 kernel/libnoninstrumentables.a.p/test_test.c.o
                0xffffffff8019cce1                test_quiet
 *fill*         0xffffffff8019cce2        0x6 
 .bss.thread_fail
                0xffffffff8019cce8        0x8 kernel/libnoninstrumentables.a.p/test_mm_falloc2.c.o
 .bss.thr_cache
                0xffffffff8019ccf0        0x8 kernel/libnoninstrumentables.a.p/test_mm_slab1.c.o
 *fill*         0xffffffff8019ccf8        0x8 
 .bss.thr_data  0xffffffff8019cd00     0xc000 kernel/libnoninstrumentables.a.p/test_mm_slab1.c.o
 .bss.data      0xffffffff801a8d00     0x2000 kernel/libnoninstrumentables.a.p/test_mm_slab1.c.o
 .bss.starter_mutex
                0xffffffff801aad00       0x60 kernel/libnoninstrumentables.a.p/test_mm_slab2.c.o
 .bss.thread_starter
                0xffffffff801aad60       0x48 kernel/libnoninstrumentables.a.p/test_mm_slab2.c.o
 .bss.thr_cache
                0xffffffff801aada8        0x8 kernel/libnoninstrumentables.a.p/test_mm_slab2.c.o
 .bss.items_consumed
                0xffffffff801aadb0        0x8 kernel/libnoninstrumentables.a.p/test_synch_semaphore1.c.o
 .bss.items_produced
                0xffffffff801aadb8        0x8 kernel/libnoninstrumentables.a.p/test_synch_semaphore1.c.o
 .bss.can_start
                0xffffffff801aadc0       0x48 kernel/libnoninstrumentables.a.p/test_synch_semaphore1.c.o
 *fill*         0xffffffff801aae08       0x18 
 .bss.sem       0xffffffff801aae20       0x48 kernel/libnoninstrumentables.a.p/test_synch_semaphore1.c.o
 *fill*         0xffffffff801aae68       0x18 
 .bss.can_start
                0xffffffff801aae80       0x48 kernel/libnoninstrumentables.a.p/test_synch_semaphore2.c.o
 *fill*         0xffffffff801aaec8       0x18 
 .bss.sem       0xffffffff801aaee0       0x48 kernel/libnoninstrumentables.a.p/test_synch_semaphore2.c.o
 .bss.finish    0xffffffff801aaf28        0x1 kernel/libnoninstrumentables.a.p/test_thread_thread1.c.o
 *(COMMON)
                0xffffffff801aaf29                kdata_end = .

.comment        0x0000000000000000       0x12
 *(.comment)
 .comment       0x0000000000000000       0x12 kernel/libinstrumentables.a.p/generic_src_cpu_cpu.c.o
                                         0x13 (size before relaxing)
 .comment       0x0000000000000012       0x13 kernel/libinstrumentables.a.p/generic_src_ddi_ddi.c.o
 .comment       0x0000000000000012       0x13 kernel/libinstrumentables.a.p/generic_src_interrupt_interrupt.c.o
 .comment       0x0000000000000012       0x13 kernel/libinstrumentables.a.p/generic_src_main_kinit.c.o
 .comment       0x0000000000000012       0x13 kernel/libinstrumentables.a.p/generic_src_main_main.c.o
 .comment       0x0000000000000012       0x13 kernel/libinstrumentables.a.p/generic_src_mm_as.c.o
 .comment       0x0000000000000012       0x13 kernel/libinstrumentables.a.p/generic_src_mm_frame.c.o
 .comment       0x0000000000000012       0x13 kernel/libinstrumentables.a.p/generic_src_mm_page.c.o
 .comment       0x0000000000000012       0x13 kernel/libinstrumentables.a.p/generic_src_mm_slab.c.o
 .comment       0x0000000000000012       0x13 kernel/libinstrumentables.a.p/generic_src_mm_tlb.c.o
 .comment       0x0000000000000012       0x13 kernel/libinstrumentables.a.p/generic_src_proc_current.c.o
 .comment       0x0000000000000012       0x13 kernel/libinstrumentables.a.p/generic_src_sysinfo_sysinfo.c.o
 .comment       0x0000000000000012       0x13 kernel/libinstrumentables.a.p/generic_src_console_kconsole.c.o
 .comment       0x0000000000000012       0x13 kernel/libnoninstrumentables.a.p/arch_amd64_src_amd64.c.o
 .comment       0x0000000000000012       0x13 kernel/libnoninstrumentables.a.p/arch_amd64_src_bios_bios.c.o
 .comment       0x0000000000000012       0x13 kernel/libnoninstrumentables.a.p/arch_amd64_src_boot_memmap.c.o
 .comment       0x0000000000000012       0x13 kernel/libnoninstrumentables.a.p/arch_amd64_src_cpu_cpu.c.o
 .comment       0x0000000000000012       0x13 kernel/libnoninstrumentables.a.p/arch_amd64_src_ddi_ddi.c.o
 .comment       0x0000000000000012       0x13 kernel/libnoninstrumentables.a.p/arch_amd64_src_debug_stacktrace.c.o
 .comment       0x0000000000000012       0x13 kernel/libnoninstrumentables.a.p/arch_amd64_src_drivers_i8254.c.o
 .comment       0x0000000000000012       0x13 kernel/libnoninstrumentables.a.p/arch_amd64_src_fpu_context.c.o
 .comment       0x0000000000000012       0x13 kernel/libnoninstrumentables.a.p/arch_amd64_src_interrupt.c.o
 .comment       0x0000000000000012       0x13 kernel/libnoninstrumentables.a.p/arch_amd64_src_kseg.c.o
 .comment       0x0000000000000012       0x13 kernel/libnoninstrumentables.a.p/arch_amd64_src_mm_as.c.o
 .comment       0x0000000000000012       0x13 kernel/libnoninstrumentables.a.p/arch_amd64_src_mm_frame.c.o
 .comment       0x0000000000000012       0x13 kernel/libnoninstrumentables.a.p/arch_amd64_src_mm_km.c.o
 .comment       0x0000000000000012       0x13 kernel/libnoninstrumentables.a.p/arch_amd64_src_mm_page.c.o
 .comment       0x0000000000000012       0x13 kernel/libnoninstrumentables.a.p/arch_amd64_src_mm_tlb.c.o
 .comment       0x0000000000000012       0x13 kernel/libnoninstrumentables.a.p/arch_amd64_src_pm.c.o
 .comment       0x0000000000000012       0x13 kernel/libnoninstrumentables.a.p/arch_amd64_src_proc_scheduler.c.o
 .comment       0x0000000000000012       0x13 kernel/libnoninstrumentables.a.p/arch_amd64_src_proc_task.c.o
 .comment       0x0000000000000012       0x13 kernel/libnoninstrumentables.a.p/arch_amd64_src_proc_thread.c.o
 .comment       0x0000000000000012       0x13 kernel/libnoninstrumentables.a.p/arch_amd64_src_smc.c.o
 .comment       0x0000000000000012       0x13 kernel/libnoninstrumentables.a.p/arch_amd64_src_syscall.c.o
 .comment       0x0000000000000012       0x13 kernel/libnoninstrumentables.a.p/arch_amd64_src_userspace.c.o
 .comment       0x0000000000000012       0x13 kernel/libnoninstrumentables.a.p/arch_amd64_src_vreg.c.o
 .comment       0x0000000000000012       0x13 kernel/libnoninstrumentables.a.p/arch_amd64_src_smp_apic.c.o
 .comment       0x0000000000000012       0x13 kernel/libnoninstrumentables.a.p/arch_amd64_src_smp_ipi.c.o
 .comment       0x0000000000000012       0x13 kernel/libnoninstrumentables.a.p/arch_amd64_src_smp_mps.c.o
 .comment       0x0000000000000012       0x13 kernel/libnoninstrumentables.a.p/arch_amd64_src_smp_smp.c.o
 .comment       0x0000000000000012       0x13 kernel/libnoninstrumentables.a.p/genarch_src_acpi_acpi.c.o
 .comment       0x0000000000000012       0x13 kernel/libnoninstrumentables.a.p/genarch_src_acpi_madt.c.o
 .comment       0x0000000000000012       0x13 kernel/libnoninstrumentables.a.p/genarch_src_mm_page_pt.c.o
 .comment       0x0000000000000012       0x13 kernel/libnoninstrumentables.a.p/genarch_src_mm_as_pt.c.o
 .comment       0x0000000000000012       0x13 kernel/libnoninstrumentables.a.p/genarch_src_fb_font-8x16.c.o
 .comment       0x0000000000000012       0x13 kernel/libnoninstrumentables.a.p/genarch_src_fb_fb.c.o
 .comment       0x0000000000000012       0x13 kernel/libnoninstrumentables.a.p/genarch_src_fb_bfb.c.o
 .comment       0x0000000000000012       0x13 kernel/libnoninstrumentables.a.p/genarch_src_drivers_i8042_i8042.c.o
 .comment       0x0000000000000012       0x13 kernel/libnoninstrumentables.a.p/genarch_src_drivers_i8259_i8259.c.o
 .comment       0x0000000000000012       0x13 kernel/libnoninstrumentables.a.p/genarch_src_drivers_ns16550_ns16550.c.o
 .comment       0x0000000000000012       0x13 kernel/libnoninstrumentables.a.p/genarch_src_drivers_pl011_pl011.c.o
 .comment       0x0000000000000012       0x13 kernel/libnoninstrumentables.a.p/genarch_src_kbrd_kbrd.c.o
 .comment       0x0000000000000012       0x13 kernel/libnoninstrumentables.a.p/genarch_src_kbrd_scanc_pc.c.o
 .comment       0x0000000000000012       0x13 kernel/libnoninstrumentables.a.p/genarch_src_srln_srln.c.o
 .comment       0x0000000000000012       0x13 kernel/libnoninstrumentables.a.p/genarch_src_multiboot_common.c.o
 .comment       0x0000000000000012       0x13 kernel/libnoninstrumentables.a.p/genarch_src_multiboot_multiboot.c.o
 .comment       0x0000000000000012       0x13 kernel/libnoninstrumentables.a.p/genarch_src_multiboot_multiboot2.c.o
 .comment       0x0000000000000012       0x13 kernel/libnoninstrumentables.a.p/genarch_src_drivers_ega_ega.c.o
 .comment       0x0000000000000012       0x13 kernel/libnoninstrumentables.a.p/genarch_src_ddi_ddi-bitmap.c.o
 .comment       0x0000000000000012       0x13 kernel/libnoninstrumentables.a.p/generic_common_adt_bitmap.c.o
 .comment       0x0000000000000012       0x13 kernel/libnoninstrumentables.a.p/generic_common_adt_hash_table.c.o
 .comment       0x0000000000000012       0x13 kernel/libnoninstrumentables.a.p/generic_common_adt_list.c.o
 .comment       0x0000000000000012       0x13 kernel/libnoninstrumentables.a.p/generic_common_adt_odict.c.o
 .comment       0x0000000000000012       0x13 kernel/libnoninstrumentables.a.p/generic_common_printf_printf_core.c.o
 .comment       0x0000000000000012       0x13 kernel/libnoninstrumentables.a.p/generic_common_stdc_calloc.c.o
 .comment       0x0000000000000012       0x13 kernel/libnoninstrumentables.a.p/generic_common_stdc_ctype.c.o
 .comment       0x0000000000000012       0x13 kernel/libnoninstrumentables.a.p/generic_common_stdc_mem.c.o
 .comment       0x0000000000000012       0x13 kernel/libnoninstrumentables.a.p/generic_common_gsort.c.o
 .comment       0x0000000000000012       0x13 kernel/libnoninstrumentables.a.p/generic_common_str.c.o
 .comment       0x0000000000000012       0x13 kernel/libnoninstrumentables.a.p/generic_common_str_error.c.o
 .comment       0x0000000000000012       0x13 kernel/libnoninstrumentables.a.p/generic_common_strtol.c.o
 .comment       0x0000000000000012       0x13 kernel/libnoninstrumentables.a.p/generic_src_cap_cap.c.o
 .comment       0x0000000000000012       0x13 kernel/libnoninstrumentables.a.p/generic_src_console_chardev.c.o
 .comment       0x0000000000000012       0x13 kernel/libnoninstrumentables.a.p/generic_src_console_console.c.o
 .comment       0x0000000000000012       0x13 kernel/libnoninstrumentables.a.p/generic_src_console_prompt.c.o
 .comment       0x0000000000000012       0x13 kernel/libnoninstrumentables.a.p/generic_src_cpu_cpu_mask.c.o
 .comment       0x0000000000000012       0x13 kernel/libnoninstrumentables.a.p/generic_src_ddi_irq.c.o
 .comment       0x0000000000000012       0x13 kernel/libnoninstrumentables.a.p/generic_src_debug_line.c.o
 .comment       0x0000000000000012       0x13 kernel/libnoninstrumentables.a.p/generic_src_debug_names.c.o
 .comment       0x0000000000000012       0x13 kernel/libnoninstrumentables.a.p/generic_src_debug_panic.c.o
 .comment       0x0000000000000012       0x13 kernel/libnoninstrumentables.a.p/generic_src_debug_sections.c.o
 .comment       0x0000000000000012       0x13 kernel/libnoninstrumentables.a.p/generic_src_debug_stacktrace.c.o
 .comment       0x0000000000000012       0x13 kernel/libnoninstrumentables.a.p/generic_src_debug_symtab.c.o
 .comment       0x0000000000000012       0x13 kernel/libnoninstrumentables.a.p/generic_src_debug_util.c.o
 .comment       0x0000000000000012       0x13 kernel/libnoninstrumentables.a.p/generic_src_ipc_event.c.o
 .comment       0x0000000000000012       0x13 kernel/libnoninstrumentables.a.p/generic_src_ipc_ipc.c.o
 .comment       0x0000000000000012       0x13 kernel/libnoninstrumentables.a.p/generic_src_ipc_ipcrsc.c.o
 .comment       0x0000000000000012       0x13 kernel/libnoninstrumentables.a.p/generic_src_ipc_irq.c.o
 .comment       0x0000000000000012       0x13 kernel/libnoninstrumentables.a.p/generic_src_ipc_ops_conctmeto.c.o
 .comment       0x0000000000000012       0x13 kernel/libnoninstrumentables.a.p/generic_src_ipc_ops_concttome.c.o
 .comment       0x0000000000000012       0x13 kernel/libnoninstrumentables.a.p/generic_src_ipc_ops_dataread.c.o
 .comment       0x0000000000000012       0x13 kernel/libnoninstrumentables.a.p/generic_src_ipc_ops_datawrite.c.o
 .comment       0x0000000000000012       0x13 kernel/libnoninstrumentables.a.p/generic_src_ipc_ops_debug.c.o
 .comment       0x0000000000000012       0x13 kernel/libnoninstrumentables.a.p/generic_src_ipc_ops_pagein.c.o
 .comment       0x0000000000000012       0x13 kernel/libnoninstrumentables.a.p/generic_src_ipc_ops_sharein.c.o
 .comment       0x0000000000000012       0x13 kernel/libnoninstrumentables.a.p/generic_src_ipc_ops_shareout.c.o
 .comment       0x0000000000000012       0x13 kernel/libnoninstrumentables.a.p/generic_src_ipc_ops_stchngath.c.o
 .comment       0x0000000000000012       0x13 kernel/libnoninstrumentables.a.p/generic_src_ipc_sysipc.c.o
 .comment       0x0000000000000012       0x13 kernel/libnoninstrumentables.a.p/generic_src_ipc_sysipc_ops.c.o
 .comment       0x0000000000000012       0x13 kernel/libnoninstrumentables.a.p/generic_src_lib_elf.c.o
 .comment       0x0000000000000012       0x13 kernel/libnoninstrumentables.a.p/generic_src_lib_halt.c.o
 .comment       0x0000000000000012       0x13 kernel/libnoninstrumentables.a.p/generic_src_lib_mem.c.o
 .comment       0x0000000000000012       0x13 kernel/libnoninstrumentables.a.p/generic_src_lib_ra.c.o
 .comment       0x0000000000000012       0x13 kernel/libnoninstrumentables.a.p/generic_src_lib_rd.c.o
 .comment       0x0000000000000012       0x13 kernel/libnoninstrumentables.a.p/generic_src_lib_ubsan.c.o
 .comment       0x0000000000000012       0x13 kernel/libnoninstrumentables.a.p/generic_src_log_log.c.o
 .comment       0x0000000000000012       0x13 kernel/libnoninstrumentables.a.p/generic_src_main_shutdown.c.o
 .comment       0x0000000000000012       0x13 kernel/libnoninstrumentables.a.p/generic_src_main_uinit.c.o
 .comment       0x0000000000000012       0x13 kernel/libnoninstrumentables.a.p/generic_src_main_version.c.o
 .comment       0x0000000000000012       0x13 kernel/libnoninstrumentables.a.p/generic_src_mm_backend_anon.c.o
 .comment       0x0000000000000012       0x13 kernel/libnoninstrumentables.a.p/generic_src_mm_backend_elf.c.o
 .comment       0x0000000000000012       0x13 kernel/libnoninstrumentables.a.p/generic_src_mm_backend_phys.c.o
 .comment       0x0000000000000012       0x13 kernel/libnoninstrumentables.a.p/generic_src_mm_backend_user.c.o
 .comment       0x0000000000000012       0x13 kernel/libnoninstrumentables.a.p/generic_src_mm_km.c.o
 .comment       0x0000000000000012       0x13 kernel/libnoninstrumentables.a.p/generic_src_mm_malloc.c.o
 .comment       0x0000000000000012       0x13 kernel/libnoninstrumentables.a.p/generic_src_mm_reserve.c.o
 .comment       0x0000000000000012       0x13 kernel/libnoninstrumentables.a.p/generic_src_printf_printf.c.o
 .comment       0x0000000000000012       0x13 kernel/libnoninstrumentables.a.p/generic_src_printf_snprintf.c.o
 .comment       0x0000000000000012       0x13 kernel/libnoninstrumentables.a.p/generic_src_printf_vprintf.c.o
 .comment       0x0000000000000012       0x13 kernel/libnoninstrumentables.a.p/generic_src_printf_vsnprintf.c.o
 .comment       0x0000000000000012       0x13 kernel/libnoninstrumentables.a.p/generic_src_proc_program.c.o
 .comment       0x0000000000000012       0x13 kernel/libnoninstrumentables.a.p/generic_src_proc_scheduler.c.o
 .comment       0x0000000000000012       0x13 kernel/libnoninstrumentables.a.p/generic_src_proc_task.c.o
 .comment       0x0000000000000012       0x13 kernel/libnoninstrumentables.a.p/generic_src_proc_thread.c.o
 .comment       0x0000000000000012       0x13 kernel/libnoninstrumentables.a.p/generic_src_security_perm.c.o
 .comment       0x0000000000000012       0x13 kernel/libnoninstrumentables.a.p/generic_src_smp_ipi.c.o
 .comment       0x0000000000000012       0x13 kernel/libnoninstrumentables.a.p/generic_src_smp_smp.c.o
 .comment       0x0000000000000012       0x13 kernel/libnoninstrumentables.a.p/generic_src_synch_condvar.c.o
 .comment       0x0000000000000012       0x13 kernel/libnoninstrumentables.a.p/generic_src_synch_irq_spinlock.c.o
 .comment       0x0000000000000012       0x13 kernel/libnoninstrumentables.a.p/generic_src_synch_mutex.c.o
 .comment       0x0000000000000012       0x13 kernel/libnoninstrumentables.a.p/generic_src_synch_semaphore.c.o
 .comment       0x0000000000000012       0x13 kernel/libnoninstrumentables.a.p/generic_src_synch_smc.c.o
 .comment       0x0000000000000012       0x13 kernel/libnoninstrumentables.a.p/generic_src_synch_spinlock.c.o
 .comment       0x0000000000000012       0x13 kernel/libnoninstrumentables.a.p/generic_src_synch_syswaitq.c.o
 .comment       0x0000000000000012       0x13 kernel/libnoninstrumentables.a.p/generic_src_synch_waitq.c.o
 .comment       0x0000000000000012       0x13 kernel/libnoninstrumentables.a.p/generic_src_syscall_copy.c.o
 .comment       0x0000000000000012       0x13 kernel/libnoninstrumentables.a.p/generic_src_syscall_syscall.c.o
 .comment       0x0000000000000012       0x13 kernel/libnoninstrumentables.a.p/generic_src_sysinfo_stats.c.o
 .comment       0x0000000000000012       0x13 kernel/libnoninstrumentables.a.p/generic_src_time_clock.c.o
 .comment       0x0000000000000012       0x13 kernel/libnoninstrumentables.a.p/generic_src_time_delay.c.o
 .comment       0x0000000000000012       0x13 kernel/libnoninstrumentables.a.p/generic_src_time_timeout.c.o
 .comment       0x0000000000000012       0x13 kernel/libnoninstrumentables.a.p/generic_src_console_cmd.c.o
 .comment       0x0000000000000012       0x13 kernel/libnoninstrumentables.a.p/generic_src_ipc_kbox.c.o
 .comment       0x0000000000000012       0x13 kernel/libnoninstrumentables.a.p/generic_src_udebug_udebug.c.o
 .comment       0x0000000000000012       0x13 kernel/libnoninstrumentables.a.p/generic_src_udebug_udebug_ops.c.o
 .comment       0x0000000000000012       0x13 kernel/libnoninstrumentables.a.p/generic_src_udebug_udebug_ipc.c.o
 .comment       0x0000000000000012       0x13 kernel/libnoninstrumentables.a.p/test_test.c.o
 .comment       0x0000000000000012       0x13 kernel/libnoninstrumentables.a.p/test_atomic_atomic1.c.o
 .comment       0x0000000000000012       0x13 kernel/libnoninstrumentables.a.p/test_fault_fault1.c.o
 .comment       0x0000000000000012       0x13 kernel/libnoninstrumentables.a.p/test_mm_falloc1.c.o
 .comment       0x0000000000000012       0x13 kernel/libnoninstrumentables.a.p/test_mm_falloc2.c.o
 .comment       0x0000000000000012       0x13 kernel/libnoninstrumentables.a.p/test_mm_mapping1.c.o
 .comment       0x0000000000000012       0x13 kernel/libnoninstrumentables.a.p/test_mm_slab1.c.o
 .comment       0x0000000000000012       0x13 kernel/libnoninstrumentables.a.p/test_mm_slab2.c.o
 .comment       0x0000000000000012       0x13 kernel/libnoninstrumentables.a.p/test_synch_semaphore1.c.o
 .comment       0x0000000000000012       0x13 kernel/libnoninstrumentables.a.p/test_synch_semaphore2.c.o
 .comment       0x0000000000000012       0x13 kernel/libnoninstrumentables.a.p/test_print_print1.c.o
 .comment       0x0000000000000012       0x13 kernel/libnoninstrumentables.a.p/test_print_print2.c.o
 .comment       0x0000000000000012       0x13 kernel/libnoninstrumentables.a.p/test_print_print3.c.o
 .comment       0x0000000000000012       0x13 kernel/libnoninstrumentables.a.p/test_print_print4.c.o
 .comment       0x0000000000000012       0x13 kernel/libnoninstrumentables.a.p/test_print_print5.c.o
 .comment       0x0000000000000012       0x13 kernel/libnoninstrumentables.a.p/test_thread_thread1.c.o
 .comment       0x0000000000000012       0x13 kernel/libnoninstrumentables.a.p/test_debug_mips1_skip.c.o
 .comment       0x0000000000000012       0x13 kernel/libnoninstrumentables.a.p/test_mm_purge1_skip.c.o

.debug_abbrev   0x0000000000000000     0x879a
 *(.debug_abbrev)
 .debug_abbrev  0x0000000000000000       0xa9 kernel/libinstrumentables.a.p/generic_src_cpu_cpu.c.o
 .debug_abbrev  0x00000000000000a9      0x138 kernel/libinstrumentables.a.p/generic_src_ddi_ddi.c.o
 .debug_abbrev  0x00000000000001e1      0x153 kernel/libinstrumentables.a.p/generic_src_interrupt_interrupt.c.o
 .debug_abbrev  0x0000000000000334       0xee kernel/libinstrumentables.a.p/generic_src_main_kinit.c.o
 .debug_abbrev  0x0000000000000422      0x136 kernel/libinstrumentables.a.p/generic_src_main_main.c.o
 .debug_abbrev  0x0000000000000558      0x2ec kernel/libinstrumentables.a.p/generic_src_mm_as.c.o
 .debug_abbrev  0x0000000000000844      0x259 kernel/libinstrumentables.a.p/generic_src_mm_frame.c.o
 .debug_abbrev  0x0000000000000a9d      0x10f kernel/libinstrumentables.a.p/generic_src_mm_page.c.o
 .debug_abbrev  0x0000000000000bac      0x190 kernel/libinstrumentables.a.p/generic_src_mm_slab.c.o
 .debug_abbrev  0x0000000000000d3c      0x128 kernel/libinstrumentables.a.p/generic_src_mm_tlb.c.o
 .debug_abbrev  0x0000000000000e64       0x56 kernel/libinstrumentables.a.p/generic_src_proc_current.c.o
 .debug_abbrev  0x0000000000000eba      0x17a kernel/libinstrumentables.a.p/generic_src_sysinfo_sysinfo.c.o
 .debug_abbrev  0x0000000000001034      0x174 kernel/libinstrumentables.a.p/generic_src_console_kconsole.c.o
 .debug_abbrev  0x00000000000011a8      0x149 kernel/libnoninstrumentables.a.p/arch_amd64_src_amd64.c.o
 .debug_abbrev  0x00000000000012f1       0x28 kernel/libnoninstrumentables.a.p/arch_amd64_src_asm.S.o
 .debug_abbrev  0x0000000000001319       0x49 kernel/libnoninstrumentables.a.p/arch_amd64_src_bios_bios.c.o
 .debug_abbrev  0x0000000000001362       0x32 kernel/libnoninstrumentables.a.p/arch_amd64_src_boot_memmap.c.o
 .debug_abbrev  0x0000000000001394       0x14 kernel/libnoninstrumentables.a.p/arch_amd64_src_boot_multiboot2.S.o
 .debug_abbrev  0x00000000000013a8       0x14 kernel/libnoninstrumentables.a.p/arch_amd64_src_boot_multiboot.S.o
 .debug_abbrev  0x00000000000013bc       0x28 kernel/libnoninstrumentables.a.p/arch_amd64_src_context.S.o
 .debug_abbrev  0x00000000000013e4       0xa5 kernel/libnoninstrumentables.a.p/arch_amd64_src_cpu_cpu.c.o
 .debug_abbrev  0x0000000000001489       0x77 kernel/libnoninstrumentables.a.p/arch_amd64_src_ddi_ddi.c.o
 .debug_abbrev  0x0000000000001500       0x28 kernel/libnoninstrumentables.a.p/arch_amd64_src_debug_stacktrace_asm.S.o
 .debug_abbrev  0x0000000000001528       0x86 kernel/libnoninstrumentables.a.p/arch_amd64_src_debug_stacktrace.c.o
 .debug_abbrev  0x00000000000015ae       0x28 kernel/libnoninstrumentables.a.p/arch_amd64_src_delay.S.o
 .debug_abbrev  0x00000000000015d6       0xf4 kernel/libnoninstrumentables.a.p/arch_amd64_src_drivers_i8254.c.o
 .debug_abbrev  0x00000000000016ca       0x2d kernel/libnoninstrumentables.a.p/arch_amd64_src_fpu_context.c.o
 .debug_abbrev  0x00000000000016f7       0xda kernel/libnoninstrumentables.a.p/arch_amd64_src_interrupt.c.o
 .debug_abbrev  0x00000000000017d1       0x75 kernel/libnoninstrumentables.a.p/arch_amd64_src_kseg.c.o
 .debug_abbrev  0x0000000000001846       0x4d kernel/libnoninstrumentables.a.p/arch_amd64_src_mm_as.c.o
 .debug_abbrev  0x0000000000001893       0x79 kernel/libnoninstrumentables.a.p/arch_amd64_src_mm_frame.c.o
 .debug_abbrev  0x000000000000190c       0x9b kernel/libnoninstrumentables.a.p/arch_amd64_src_mm_km.c.o
 .debug_abbrev  0x00000000000019a7       0xd8 kernel/libnoninstrumentables.a.p/arch_amd64_src_mm_page.c.o
 .debug_abbrev  0x0000000000001a7f       0xa6 kernel/libnoninstrumentables.a.p/arch_amd64_src_mm_tlb.c.o
 .debug_abbrev  0x0000000000001b25      0x14a kernel/libnoninstrumentables.a.p/arch_amd64_src_pm.c.o
 .debug_abbrev  0x0000000000001c6f       0x8a kernel/libnoninstrumentables.a.p/arch_amd64_src_proc_scheduler.c.o
 .debug_abbrev  0x0000000000001cf9       0x3d kernel/libnoninstrumentables.a.p/arch_amd64_src_proc_task.c.o
 .debug_abbrev  0x0000000000001d36       0x2b kernel/libnoninstrumentables.a.p/arch_amd64_src_proc_thread.c.o
 .debug_abbrev  0x0000000000001d61       0x4d kernel/libnoninstrumentables.a.p/arch_amd64_src_smc.c.o
 .debug_abbrev  0x0000000000001dae       0x75 kernel/libnoninstrumentables.a.p/arch_amd64_src_syscall.c.o
 .debug_abbrev  0x0000000000001e23       0x7b kernel/libnoninstrumentables.a.p/arch_amd64_src_userspace.c.o
 .debug_abbrev  0x0000000000001e9e       0x93 kernel/libnoninstrumentables.a.p/arch_amd64_src_vreg.c.o
 .debug_abbrev  0x0000000000001f31      0x1de kernel/libnoninstrumentables.a.p/arch_amd64_src_smp_apic.c.o
 .debug_abbrev  0x000000000000210f       0x14 kernel/libnoninstrumentables.a.p/arch_amd64_src_smp_ap.S.o
 .debug_abbrev  0x0000000000002123       0x3a kernel/libnoninstrumentables.a.p/arch_amd64_src_smp_ipi.c.o
 .debug_abbrev  0x000000000000215d      0x123 kernel/libnoninstrumentables.a.p/arch_amd64_src_smp_mps.c.o
 .debug_abbrev  0x0000000000002280      0x108 kernel/libnoninstrumentables.a.p/arch_amd64_src_smp_smp.c.o
 .debug_abbrev  0x0000000000002388       0xf0 kernel/libnoninstrumentables.a.p/genarch_src_acpi_acpi.c.o
 .debug_abbrev  0x0000000000002478      0x113 kernel/libnoninstrumentables.a.p/genarch_src_acpi_madt.c.o
 .debug_abbrev  0x000000000000258b      0x12c kernel/libnoninstrumentables.a.p/genarch_src_mm_page_pt.c.o
 .debug_abbrev  0x00000000000026b7       0x80 kernel/libnoninstrumentables.a.p/genarch_src_mm_as_pt.c.o
 .debug_abbrev  0x0000000000002737       0x4b kernel/libnoninstrumentables.a.p/genarch_src_fb_font-8x16.c.o
 .debug_abbrev  0x0000000000002782      0x147 kernel/libnoninstrumentables.a.p/genarch_src_fb_fb.c.o
 .debug_abbrev  0x00000000000028c9       0x6d kernel/libnoninstrumentables.a.p/genarch_src_fb_bfb.c.o
 .debug_abbrev  0x0000000000002936      0x120 kernel/libnoninstrumentables.a.p/genarch_src_drivers_i8042_i8042.c.o
 .debug_abbrev  0x0000000000002a56       0xe0 kernel/libnoninstrumentables.a.p/genarch_src_drivers_i8259_i8259.c.o
 .debug_abbrev  0x0000000000002b36      0x11b kernel/libnoninstrumentables.a.p/genarch_src_drivers_ns16550_ns16550.c.o
 .debug_abbrev  0x0000000000002c51       0xd8 kernel/libnoninstrumentables.a.p/genarch_src_drivers_pl011_pl011.c.o
 .debug_abbrev  0x0000000000002d29       0xa0 kernel/libnoninstrumentables.a.p/genarch_src_kbrd_kbrd.c.o
 .debug_abbrev  0x0000000000002dc9       0x34 kernel/libnoninstrumentables.a.p/genarch_src_kbrd_scanc_pc.c.o
 .debug_abbrev  0x0000000000002dfd       0x66 kernel/libnoninstrumentables.a.p/genarch_src_srln_srln.c.o
 .debug_abbrev  0x0000000000002e63       0x3c kernel/libnoninstrumentables.a.p/genarch_src_multiboot_common.c.o
 .debug_abbrev  0x0000000000002e9f       0xc5 kernel/libnoninstrumentables.a.p/genarch_src_multiboot_multiboot.c.o
 .debug_abbrev  0x0000000000002f64       0x87 kernel/libnoninstrumentables.a.p/genarch_src_multiboot_multiboot2.c.o
 .debug_abbrev  0x0000000000002feb       0xdf kernel/libnoninstrumentables.a.p/genarch_src_drivers_ega_ega.c.o
 .debug_abbrev  0x00000000000030ca       0x3e kernel/libnoninstrumentables.a.p/genarch_src_ddi_ddi-bitmap.c.o
 .debug_abbrev  0x0000000000003108       0xc5 kernel/libnoninstrumentables.a.p/generic_common_adt_bitmap.c.o
 .debug_abbrev  0x00000000000031cd      0x204 kernel/libnoninstrumentables.a.p/generic_common_adt_hash_table.c.o
 .debug_abbrev  0x00000000000033d1       0x89 kernel/libnoninstrumentables.a.p/generic_common_adt_list.c.o
 .debug_abbrev  0x000000000000345a      0x27d kernel/libnoninstrumentables.a.p/generic_common_adt_odict.c.o
 .debug_abbrev  0x00000000000036d7       0xfd kernel/libnoninstrumentables.a.p/generic_common_printf_printf_core.c.o
 .debug_abbrev  0x00000000000037d4       0x3c kernel/libnoninstrumentables.a.p/generic_common_stdc_calloc.c.o
 .debug_abbrev  0x0000000000003810       0xc6 kernel/libnoninstrumentables.a.p/generic_common_stdc_ctype.c.o
 .debug_abbrev  0x00000000000038d6       0xa9 kernel/libnoninstrumentables.a.p/generic_common_stdc_mem.c.o
 .debug_abbrev  0x000000000000397f       0x5f kernel/libnoninstrumentables.a.p/generic_common_gsort.c.o
 .debug_abbrev  0x00000000000039de      0x17f kernel/libnoninstrumentables.a.p/generic_common_str.c.o
 .debug_abbrev  0x0000000000003b5d       0x51 kernel/libnoninstrumentables.a.p/generic_common_str_error.c.o
 .debug_abbrev  0x0000000000003bae      0x11c kernel/libnoninstrumentables.a.p/generic_common_strtol.c.o
 .debug_abbrev  0x0000000000003cca      0x229 kernel/libnoninstrumentables.a.p/generic_src_cap_cap.c.o
 .debug_abbrev  0x0000000000003ef3      0x13f kernel/libnoninstrumentables.a.p/generic_src_console_chardev.c.o
 .debug_abbrev  0x0000000000004032      0x1ec kernel/libnoninstrumentables.a.p/generic_src_console_console.c.o
 .debug_abbrev  0x000000000000421e       0x52 kernel/libnoninstrumentables.a.p/generic_src_console_prompt.c.o
 .debug_abbrev  0x0000000000004270      0x10d kernel/libnoninstrumentables.a.p/generic_src_cpu_cpu_mask.c.o
 .debug_abbrev  0x000000000000437d      0x10e kernel/libnoninstrumentables.a.p/generic_src_ddi_irq.c.o
 .debug_abbrev  0x000000000000448b      0x154 kernel/libnoninstrumentables.a.p/generic_src_debug_line.c.o
 .debug_abbrev  0x00000000000045df       0x2d kernel/libnoninstrumentables.a.p/generic_src_debug_names.c.o
 .debug_abbrev  0x000000000000460c       0x64 kernel/libnoninstrumentables.a.p/generic_src_debug_panic.c.o
 .debug_abbrev  0x0000000000004670       0xaa kernel/libnoninstrumentables.a.p/generic_src_debug_sections.c.o
 .debug_abbrev  0x000000000000471a       0xce kernel/libnoninstrumentables.a.p/generic_src_debug_stacktrace.c.o
 .debug_abbrev  0x00000000000047e8      0x102 kernel/libnoninstrumentables.a.p/generic_src_debug_symtab.c.o
 .debug_abbrev  0x00000000000048ea       0xf4 kernel/libnoninstrumentables.a.p/generic_src_debug_util.c.o
 .debug_abbrev  0x00000000000049de      0x117 kernel/libnoninstrumentables.a.p/generic_src_ipc_event.c.o
 .debug_abbrev  0x0000000000004af5      0x26c kernel/libnoninstrumentables.a.p/generic_src_ipc_ipc.c.o
 .debug_abbrev  0x0000000000004d61       0x85 kernel/libnoninstrumentables.a.p/generic_src_ipc_ipcrsc.c.o
 .debug_abbrev  0x0000000000004de6      0x16a kernel/libnoninstrumentables.a.p/generic_src_ipc_irq.c.o
 .debug_abbrev  0x0000000000004f50       0x82 kernel/libnoninstrumentables.a.p/generic_src_ipc_ops_conctmeto.c.o
 .debug_abbrev  0x0000000000004fd2       0x91 kernel/libnoninstrumentables.a.p/generic_src_ipc_ops_concttome.c.o
 .debug_abbrev  0x0000000000005063       0xa8 kernel/libnoninstrumentables.a.p/generic_src_ipc_ops_dataread.c.o
 .debug_abbrev  0x000000000000510b       0x8f kernel/libnoninstrumentables.a.p/generic_src_ipc_ops_datawrite.c.o
 .debug_abbrev  0x000000000000519a       0x84 kernel/libnoninstrumentables.a.p/generic_src_ipc_ops_debug.c.o
 .debug_abbrev  0x000000000000521e       0x8c kernel/libnoninstrumentables.a.p/generic_src_ipc_ops_pagein.c.o
 .debug_abbrev  0x00000000000052aa       0x9d kernel/libnoninstrumentables.a.p/generic_src_ipc_ops_sharein.c.o
 .debug_abbrev  0x0000000000005347       0xb1 kernel/libnoninstrumentables.a.p/generic_src_ipc_ops_shareout.c.o
 .debug_abbrev  0x00000000000053f8       0x9f kernel/libnoninstrumentables.a.p/generic_src_ipc_ops_stchngath.c.o
 .debug_abbrev  0x0000000000005497      0x142 kernel/libnoninstrumentables.a.p/generic_src_ipc_sysipc.c.o
 .debug_abbrev  0x00000000000055d9       0x71 kernel/libnoninstrumentables.a.p/generic_src_ipc_sysipc_ops.c.o
 .debug_abbrev  0x000000000000564a       0x6d kernel/libnoninstrumentables.a.p/generic_src_lib_elf.c.o
 .debug_abbrev  0x00000000000056b7       0xec kernel/libnoninstrumentables.a.p/generic_src_lib_halt.c.o
 .debug_abbrev  0x00000000000057a3       0x40 kernel/libnoninstrumentables.a.p/generic_src_lib_mem.c.o
 .debug_abbrev  0x00000000000057e3      0x1c7 kernel/libnoninstrumentables.a.p/generic_src_lib_ra.c.o
 .debug_abbrev  0x00000000000059aa       0x60 kernel/libnoninstrumentables.a.p/generic_src_lib_rd.c.o
 .debug_abbrev  0x0000000000005a0a       0x9c kernel/libnoninstrumentables.a.p/generic_src_lib_ubsan.c.o
 .debug_abbrev  0x0000000000005aa6      0x186 kernel/libnoninstrumentables.a.p/generic_src_log_log.c.o
 .debug_abbrev  0x0000000000005c2c       0x62 kernel/libnoninstrumentables.a.p/generic_src_main_shutdown.c.o
 .debug_abbrev  0x0000000000005c8e       0x50 kernel/libnoninstrumentables.a.p/generic_src_main_uinit.c.o
 .debug_abbrev  0x0000000000005cde       0x3c kernel/libnoninstrumentables.a.p/generic_src_main_version.c.o
 .debug_abbrev  0x0000000000005d1a      0x10d kernel/libnoninstrumentables.a.p/generic_src_mm_backend_anon.c.o
 .debug_abbrev  0x0000000000005e27      0x115 kernel/libnoninstrumentables.a.p/generic_src_mm_backend_elf.c.o
 .debug_abbrev  0x0000000000005f3c      0x117 kernel/libnoninstrumentables.a.p/generic_src_mm_backend_phys.c.o
 .debug_abbrev  0x0000000000006053      0x106 kernel/libnoninstrumentables.a.p/generic_src_mm_backend_user.c.o
 .debug_abbrev  0x0000000000006159      0x167 kernel/libnoninstrumentables.a.p/generic_src_mm_km.c.o
 .debug_abbrev  0x00000000000062c0      0x106 kernel/libnoninstrumentables.a.p/generic_src_mm_malloc.c.o
 .debug_abbrev  0x00000000000063c6       0x69 kernel/libnoninstrumentables.a.p/generic_src_mm_reserve.c.o
 .debug_abbrev  0x000000000000642f       0x3c kernel/libnoninstrumentables.a.p/generic_src_printf_printf.c.o
 .debug_abbrev  0x000000000000646b       0x3c kernel/libnoninstrumentables.a.p/generic_src_printf_snprintf.c.o
 .debug_abbrev  0x00000000000064a7       0x55 kernel/libnoninstrumentables.a.p/generic_src_printf_vprintf.c.o
 .debug_abbrev  0x00000000000064fc       0x80 kernel/libnoninstrumentables.a.p/generic_src_printf_vsnprintf.c.o
 .debug_abbrev  0x000000000000657c       0xf0 kernel/libnoninstrumentables.a.p/generic_src_proc_program.c.o
 .debug_abbrev  0x000000000000666c      0x234 kernel/libnoninstrumentables.a.p/generic_src_proc_scheduler.c.o
 .debug_abbrev  0x00000000000068a0      0x29f kernel/libnoninstrumentables.a.p/generic_src_proc_task.c.o
 .debug_abbrev  0x0000000000006b3f      0x2e9 kernel/libnoninstrumentables.a.p/generic_src_proc_thread.c.o
 .debug_abbrev  0x0000000000006e28       0xac kernel/libnoninstrumentables.a.p/generic_src_security_perm.c.o
 .debug_abbrev  0x0000000000006ed4       0x4b kernel/libnoninstrumentables.a.p/generic_src_smp_ipi.c.o
 .debug_abbrev  0x0000000000006f1f       0x30 kernel/libnoninstrumentables.a.p/generic_src_smp_smp.c.o
 .debug_abbrev  0x0000000000006f4f       0x9f kernel/libnoninstrumentables.a.p/generic_src_synch_condvar.c.o
 .debug_abbrev  0x0000000000006fee      0x14e kernel/libnoninstrumentables.a.p/generic_src_synch_irq_spinlock.c.o
 .debug_abbrev  0x000000000000713c       0xd8 kernel/libnoninstrumentables.a.p/generic_src_synch_mutex.c.o
 .debug_abbrev  0x0000000000007214       0xb2 kernel/libnoninstrumentables.a.p/generic_src_synch_semaphore.c.o
 .debug_abbrev  0x00000000000072c6       0x5f kernel/libnoninstrumentables.a.p/generic_src_synch_smc.c.o
 .debug_abbrev  0x0000000000007325       0xd5 kernel/libnoninstrumentables.a.p/generic_src_synch_spinlock.c.o
 .debug_abbrev  0x00000000000073fa       0x9a kernel/libnoninstrumentables.a.p/generic_src_synch_syswaitq.c.o
 .debug_abbrev  0x0000000000007494      0x1af kernel/libnoninstrumentables.a.p/generic_src_synch_waitq.c.o
 .debug_abbrev  0x0000000000007643       0xed kernel/libnoninstrumentables.a.p/generic_src_syscall_copy.c.o
 .debug_abbrev  0x0000000000007730       0xf9 kernel/libnoninstrumentables.a.p/generic_src_syscall_syscall.c.o
 .debug_abbrev  0x0000000000007829      0x16f kernel/libnoninstrumentables.a.p/generic_src_sysinfo_stats.c.o
 .debug_abbrev  0x0000000000007998       0xeb kernel/libnoninstrumentables.a.p/generic_src_time_clock.c.o
 .debug_abbrev  0x0000000000007a83       0x3b kernel/libnoninstrumentables.a.p/generic_src_time_delay.c.o
 .debug_abbrev  0x0000000000007abe      0x135 kernel/libnoninstrumentables.a.p/generic_src_time_timeout.c.o
 .debug_abbrev  0x0000000000007bf3      0x1a9 kernel/libnoninstrumentables.a.p/generic_src_console_cmd.c.o
 .debug_abbrev  0x0000000000007d9c       0xbb kernel/libnoninstrumentables.a.p/generic_src_ipc_kbox.c.o
 .debug_abbrev  0x0000000000007e57       0xfa kernel/libnoninstrumentables.a.p/generic_src_udebug_udebug.c.o
 .debug_abbrev  0x0000000000007f51       0xdf kernel/libnoninstrumentables.a.p/generic_src_udebug_udebug_ops.c.o
 .debug_abbrev  0x0000000000008030      0x109 kernel/libnoninstrumentables.a.p/generic_src_udebug_udebug_ipc.c.o
 .debug_abbrev  0x0000000000008139       0x69 kernel/libnoninstrumentables.a.p/test_test.c.o
 .debug_abbrev  0x00000000000081a2       0x2b kernel/libnoninstrumentables.a.p/test_atomic_atomic1.c.o
 .debug_abbrev  0x00000000000081cd       0x2b kernel/libnoninstrumentables.a.p/test_fault_fault1.c.o
 .debug_abbrev  0x00000000000081f8       0x4d kernel/libnoninstrumentables.a.p/test_mm_falloc1.c.o
 .debug_abbrev  0x0000000000008245       0x71 kernel/libnoninstrumentables.a.p/test_mm_falloc2.c.o
 .debug_abbrev  0x00000000000082b6       0x4d kernel/libnoninstrumentables.a.p/test_mm_mapping1.c.o
 .debug_abbrev  0x0000000000008303       0xb8 kernel/libnoninstrumentables.a.p/test_mm_slab1.c.o
 .debug_abbrev  0x00000000000083bb       0x74 kernel/libnoninstrumentables.a.p/test_mm_slab2.c.o
 .debug_abbrev  0x000000000000842f       0x75 kernel/libnoninstrumentables.a.p/test_synch_semaphore1.c.o
 .debug_abbrev  0x00000000000084a4       0xa9 kernel/libnoninstrumentables.a.p/test_synch_semaphore2.c.o
 .debug_abbrev  0x000000000000854d       0x4d kernel/libnoninstrumentables.a.p/test_print_print1.c.o
 .debug_abbrev  0x000000000000859a       0x4d kernel/libnoninstrumentables.a.p/test_print_print2.c.o
 .debug_abbrev  0x00000000000085e7       0x4f kernel/libnoninstrumentables.a.p/test_print_print3.c.o
 .debug_abbrev  0x0000000000008636       0x4d kernel/libnoninstrumentables.a.p/test_print_print4.c.o
 .debug_abbrev  0x0000000000008683       0x4d kernel/libnoninstrumentables.a.p/test_print_print5.c.o
 .debug_abbrev  0x00000000000086d0       0x74 kernel/libnoninstrumentables.a.p/test_thread_thread1.c.o
 .debug_abbrev  0x0000000000008744       0x2b kernel/libnoninstrumentables.a.p/test_debug_mips1_skip.c.o
 .debug_abbrev  0x000000000000876f       0x2b kernel/libnoninstrumentables.a.p/test_mm_purge1_skip.c.o

.debug_abbrev.dwo
 *(.debug_abbrev.dwo)

.debug_addr
 *(.debug_addr)

.debug_aranges  0x0000000000000000     0x58a0
 *(.debug_aranges)
 .debug_aranges
                0x0000000000000000       0x40 kernel/libinstrumentables.a.p/generic_src_cpu_cpu.c.o
 .debug_aranges
                0x0000000000000040      0x110 kernel/libinstrumentables.a.p/generic_src_ddi_ddi.c.o
 .debug_aranges
                0x0000000000000150       0xb0 kernel/libinstrumentables.a.p/generic_src_interrupt_interrupt.c.o
 .debug_aranges
                0x0000000000000200       0x30 kernel/libinstrumentables.a.p/generic_src_main_kinit.c.o
 .debug_aranges
                0x0000000000000230       0x60 kernel/libinstrumentables.a.p/generic_src_main_main.c.o
 .debug_aranges
                0x0000000000000290      0x370 kernel/libinstrumentables.a.p/generic_src_mm_as.c.o
 .debug_aranges
                0x0000000000000600      0x1f0 kernel/libinstrumentables.a.p/generic_src_mm_frame.c.o
 .debug_aranges
                0x00000000000007f0       0xa0 kernel/libinstrumentables.a.p/generic_src_mm_page.c.o
 .debug_aranges
                0x0000000000000890      0x100 kernel/libinstrumentables.a.p/generic_src_mm_slab.c.o
 .debug_aranges
                0x0000000000000990       0x70 kernel/libinstrumentables.a.p/generic_src_mm_tlb.c.o
 .debug_aranges
                0x0000000000000a00       0x40 kernel/libinstrumentables.a.p/generic_src_proc_current.c.o
 .debug_aranges
                0x0000000000000a40      0x170 kernel/libinstrumentables.a.p/generic_src_sysinfo_sysinfo.c.o
 .debug_aranges
                0x0000000000000bb0       0x90 kernel/libinstrumentables.a.p/generic_src_console_kconsole.c.o
 .debug_aranges
                0x0000000000000c40       0xc0 kernel/libnoninstrumentables.a.p/arch_amd64_src_amd64.c.o
 .debug_aranges
                0x0000000000000d00       0x30 kernel/libnoninstrumentables.a.p/arch_amd64_src_asm.S.o
 .debug_aranges
                0x0000000000000d30       0x30 kernel/libnoninstrumentables.a.p/arch_amd64_src_bios_bios.c.o
 .debug_aranges
                0x0000000000000d60       0x20 kernel/libnoninstrumentables.a.p/arch_amd64_src_boot_memmap.c.o
 .debug_aranges
                0x0000000000000d80       0x30 kernel/libnoninstrumentables.a.p/arch_amd64_src_boot_multiboot2.S.o
 .debug_aranges
                0x0000000000000db0       0x30 kernel/libnoninstrumentables.a.p/arch_amd64_src_boot_multiboot.S.o
 .debug_aranges
                0x0000000000000de0       0x30 kernel/libnoninstrumentables.a.p/arch_amd64_src_context.S.o
 .debug_aranges
                0x0000000000000e10       0x80 kernel/libnoninstrumentables.a.p/arch_amd64_src_cpu_cpu.c.o
 .debug_aranges
                0x0000000000000e90       0x30 kernel/libnoninstrumentables.a.p/arch_amd64_src_ddi_ddi.c.o
 .debug_aranges
                0x0000000000000ec0       0x30 kernel/libnoninstrumentables.a.p/arch_amd64_src_debug_stacktrace_asm.S.o
 .debug_aranges
                0x0000000000000ef0       0x80 kernel/libnoninstrumentables.a.p/arch_amd64_src_debug_stacktrace.c.o
 .debug_aranges
                0x0000000000000f70       0x30 kernel/libnoninstrumentables.a.p/arch_amd64_src_delay.S.o
 .debug_aranges
                0x0000000000000fa0       0x70 kernel/libnoninstrumentables.a.p/arch_amd64_src_drivers_i8254.c.o
 .debug_aranges
                0x0000000000001010       0x50 kernel/libnoninstrumentables.a.p/arch_amd64_src_fpu_context.c.o
 .debug_aranges
                0x0000000000001060       0xc0 kernel/libnoninstrumentables.a.p/arch_amd64_src_interrupt.c.o
 .debug_aranges
                0x0000000000001120       0x30 kernel/libnoninstrumentables.a.p/arch_amd64_src_kseg.c.o
 .debug_aranges
                0x0000000000001150       0x30 kernel/libnoninstrumentables.a.p/arch_amd64_src_mm_as.c.o
 .debug_aranges
                0x0000000000001180       0x60 kernel/libnoninstrumentables.a.p/arch_amd64_src_mm_frame.c.o
 .debug_aranges
                0x00000000000011e0       0x50 kernel/libnoninstrumentables.a.p/arch_amd64_src_mm_km.c.o
 .debug_aranges
                0x0000000000001230       0x40 kernel/libnoninstrumentables.a.p/arch_amd64_src_mm_page.c.o
 .debug_aranges
                0x0000000000001270       0x70 kernel/libnoninstrumentables.a.p/arch_amd64_src_mm_tlb.c.o
 .debug_aranges
                0x00000000000012e0       0x80 kernel/libnoninstrumentables.a.p/arch_amd64_src_pm.c.o
 .debug_aranges
                0x0000000000001360       0x50 kernel/libnoninstrumentables.a.p/arch_amd64_src_proc_scheduler.c.o
 .debug_aranges
                0x00000000000013b0       0x40 kernel/libnoninstrumentables.a.p/arch_amd64_src_proc_task.c.o
 .debug_aranges
                0x00000000000013f0       0x30 kernel/libnoninstrumentables.a.p/arch_amd64_src_proc_thread.c.o
 .debug_aranges
                0x0000000000001420       0x30 kernel/libnoninstrumentables.a.p/arch_amd64_src_smc.c.o
 .debug_aranges
                0x0000000000001450       0x30 kernel/libnoninstrumentables.a.p/arch_amd64_src_syscall.c.o
 .debug_aranges
                0x0000000000001480       0x40 kernel/libnoninstrumentables.a.p/arch_amd64_src_userspace.c.o
 .debug_aranges
                0x00000000000014c0       0x30 kernel/libnoninstrumentables.a.p/arch_amd64_src_vreg.c.o
 .debug_aranges
                0x00000000000014f0      0x150 kernel/libnoninstrumentables.a.p/arch_amd64_src_smp_apic.c.o
 .debug_aranges
                0x0000000000001640       0x30 kernel/libnoninstrumentables.a.p/arch_amd64_src_smp_ap.S.o
 .debug_aranges
                0x0000000000001670       0x30 kernel/libnoninstrumentables.a.p/arch_amd64_src_smp_ipi.c.o
 .debug_aranges
                0x00000000000016a0       0x70 kernel/libnoninstrumentables.a.p/arch_amd64_src_smp_mps.c.o
 .debug_aranges
                0x0000000000001710       0x50 kernel/libnoninstrumentables.a.p/arch_amd64_src_smp_smp.c.o
 .debug_aranges
                0x0000000000001760       0x40 kernel/libnoninstrumentables.a.p/genarch_src_acpi_acpi.c.o
 .debug_aranges
                0x00000000000017a0       0x80 kernel/libnoninstrumentables.a.p/genarch_src_acpi_madt.c.o
 .debug_aranges
                0x0000000000001820       0x80 kernel/libnoninstrumentables.a.p/genarch_src_mm_page_pt.c.o
 .debug_aranges
                0x00000000000018a0       0x70 kernel/libnoninstrumentables.a.p/genarch_src_mm_as_pt.c.o
 .debug_aranges
                0x0000000000001910       0x30 kernel/libnoninstrumentables.a.p/genarch_src_fb_font-8x16.c.o
 .debug_aranges
                0x0000000000001940      0x150 kernel/libnoninstrumentables.a.p/genarch_src_fb_fb.c.o
 .debug_aranges
                0x0000000000001a90       0x30 kernel/libnoninstrumentables.a.p/genarch_src_fb_bfb.c.o
 .debug_aranges
                0x0000000000001ac0       0x70 kernel/libnoninstrumentables.a.p/genarch_src_drivers_i8042_i8042.c.o
 .debug_aranges
                0x0000000000001b30       0x90 kernel/libnoninstrumentables.a.p/genarch_src_drivers_i8259_i8259.c.o
 .debug_aranges
                0x0000000000001bc0       0x80 kernel/libnoninstrumentables.a.p/genarch_src_drivers_ns16550_ns16550.c.o
 .debug_aranges
                0x0000000000001c40       0x70 kernel/libnoninstrumentables.a.p/genarch_src_drivers_pl011_pl011.c.o
 .debug_aranges
                0x0000000000001cb0       0x50 kernel/libnoninstrumentables.a.p/genarch_src_kbrd_kbrd.c.o
 .debug_aranges
                0x0000000000001d00       0x20 kernel/libnoninstrumentables.a.p/genarch_src_kbrd_scanc_pc.c.o
 .debug_aranges
                0x0000000000001d20       0x50 kernel/libnoninstrumentables.a.p/genarch_src_srln_srln.c.o
 .debug_aranges
                0x0000000000001d70       0x30 kernel/libnoninstrumentables.a.p/genarch_src_multiboot_common.c.o
 .debug_aranges
                0x0000000000001da0       0x50 kernel/libnoninstrumentables.a.p/genarch_src_multiboot_multiboot.c.o
 .debug_aranges
                0x0000000000001df0       0x30 kernel/libnoninstrumentables.a.p/genarch_src_multiboot_multiboot2.c.o
 .debug_aranges
                0x0000000000001e20       0x70 kernel/libnoninstrumentables.a.p/genarch_src_drivers_ega_ega.c.o
 .debug_aranges
                0x0000000000001e90       0x40 kernel/libnoninstrumentables.a.p/genarch_src_ddi_ddi-bitmap.c.o
 .debug_aranges
                0x0000000000001ed0       0x80 kernel/libnoninstrumentables.a.p/generic_common_adt_bitmap.c.o
 .debug_aranges
                0x0000000000001f50      0x120 kernel/libnoninstrumentables.a.p/generic_common_adt_hash_table.c.o
 .debug_aranges
                0x0000000000002070       0x50 kernel/libnoninstrumentables.a.p/generic_common_adt_list.c.o
 .debug_aranges
                0x00000000000020c0      0x1d0 kernel/libnoninstrumentables.a.p/generic_common_adt_odict.c.o
 .debug_aranges
                0x0000000000002290       0x30 kernel/libnoninstrumentables.a.p/generic_common_printf_printf_core.c.o
 .debug_aranges
                0x00000000000022c0       0x30 kernel/libnoninstrumentables.a.p/generic_common_stdc_calloc.c.o
 .debug_aranges
                0x00000000000022f0      0x100 kernel/libnoninstrumentables.a.p/generic_common_stdc_ctype.c.o
 .debug_aranges
                0x00000000000023f0       0x70 kernel/libnoninstrumentables.a.p/generic_common_stdc_mem.c.o
 .debug_aranges
                0x0000000000002460       0x30 kernel/libnoninstrumentables.a.p/generic_common_gsort.c.o
 .debug_aranges
                0x0000000000002490      0x330 kernel/libnoninstrumentables.a.p/generic_common_str.c.o
 .debug_aranges
                0x00000000000027c0       0x40 kernel/libnoninstrumentables.a.p/generic_common_str_error.c.o
 .debug_aranges
                0x0000000000002800      0x130 kernel/libnoninstrumentables.a.p/generic_common_strtol.c.o
 .debug_aranges
                0x0000000000002930      0x160 kernel/libnoninstrumentables.a.p/generic_src_cap_cap.c.o
 .debug_aranges
                0x0000000000002a90       0x80 kernel/libnoninstrumentables.a.p/generic_src_console_chardev.c.o
 .debug_aranges
                0x0000000000002b10      0x120 kernel/libnoninstrumentables.a.p/generic_src_console_console.c.o
 .debug_aranges
                0x0000000000002c30       0x40 kernel/libnoninstrumentables.a.p/generic_src_console_prompt.c.o
 .debug_aranges
                0x0000000000002c70       0xc0 kernel/libnoninstrumentables.a.p/generic_src_cpu_cpu_mask.c.o
 .debug_aranges
                0x0000000000002d30       0xa0 kernel/libnoninstrumentables.a.p/generic_src_ddi_irq.c.o
 .debug_aranges
                0x0000000000002dd0       0x90 kernel/libnoninstrumentables.a.p/generic_src_debug_line.c.o
 .debug_aranges
                0x0000000000002e60      0x1c0 kernel/libnoninstrumentables.a.p/generic_src_debug_names.c.o
 .debug_aranges
                0x0000000000003020       0x30 kernel/libnoninstrumentables.a.p/generic_src_debug_panic.c.o
 .debug_aranges
                0x0000000000003050       0x40 kernel/libnoninstrumentables.a.p/generic_src_debug_sections.c.o
 .debug_aranges
                0x0000000000003090       0x70 kernel/libnoninstrumentables.a.p/generic_src_debug_stacktrace.c.o
 .debug_aranges
                0x0000000000003100       0x70 kernel/libnoninstrumentables.a.p/generic_src_debug_symtab.c.o
 .debug_aranges
                0x0000000000003170       0x90 kernel/libnoninstrumentables.a.p/generic_src_debug_util.c.o
 .debug_aranges
                0x0000000000003200       0xc0 kernel/libnoninstrumentables.a.p/generic_src_ipc_event.c.o
 .debug_aranges
                0x00000000000032c0      0x1c0 kernel/libnoninstrumentables.a.p/generic_src_ipc_ipc.c.o
 .debug_aranges
                0x0000000000003480       0x50 kernel/libnoninstrumentables.a.p/generic_src_ipc_ipcrsc.c.o
 .debug_aranges
                0x00000000000034d0       0x80 kernel/libnoninstrumentables.a.p/generic_src_ipc_irq.c.o
 .debug_aranges
                0x0000000000003550       0x60 kernel/libnoninstrumentables.a.p/generic_src_ipc_ops_conctmeto.c.o
 .debug_aranges
                0x00000000000035b0       0x50 kernel/libnoninstrumentables.a.p/generic_src_ipc_ops_concttome.c.o
 .debug_aranges
                0x0000000000003600       0x50 kernel/libnoninstrumentables.a.p/generic_src_ipc_ops_dataread.c.o
 .debug_aranges
                0x0000000000003650       0x40 kernel/libnoninstrumentables.a.p/generic_src_ipc_ops_datawrite.c.o
 .debug_aranges
                0x0000000000003690       0x40 kernel/libnoninstrumentables.a.p/generic_src_ipc_ops_debug.c.o
 .debug_aranges
                0x00000000000036d0       0x40 kernel/libnoninstrumentables.a.p/generic_src_ipc_ops_pagein.c.o
 .debug_aranges
                0x0000000000003710       0x30 kernel/libnoninstrumentables.a.p/generic_src_ipc_ops_sharein.c.o
 .debug_aranges
                0x0000000000003740       0x40 kernel/libnoninstrumentables.a.p/generic_src_ipc_ops_shareout.c.o
 .debug_aranges
                0x0000000000003780       0x40 kernel/libnoninstrumentables.a.p/generic_src_ipc_ops_stchngath.c.o
 .debug_aranges
                0x00000000000037c0      0x110 kernel/libnoninstrumentables.a.p/generic_src_ipc_sysipc.c.o
 .debug_aranges
                0x00000000000038d0       0x90 kernel/libnoninstrumentables.a.p/generic_src_ipc_sysipc_ops.c.o
 .debug_aranges
                0x0000000000003960       0x30 kernel/libnoninstrumentables.a.p/generic_src_lib_elf.c.o
 .debug_aranges
                0x0000000000003990       0x30 kernel/libnoninstrumentables.a.p/generic_src_lib_halt.c.o
 .debug_aranges
                0x00000000000039c0       0x40 kernel/libnoninstrumentables.a.p/generic_src_lib_mem.c.o
 .debug_aranges
                0x0000000000003a00       0xb0 kernel/libnoninstrumentables.a.p/generic_src_lib_ra.c.o
 .debug_aranges
                0x0000000000003ab0       0x30 kernel/libnoninstrumentables.a.p/generic_src_lib_rd.c.o
 .debug_aranges
                0x0000000000003ae0      0x160 kernel/libnoninstrumentables.a.p/generic_src_lib_ubsan.c.o
 .debug_aranges
                0x0000000000003c40       0xd0 kernel/libnoninstrumentables.a.p/generic_src_log_log.c.o
 .debug_aranges
                0x0000000000003d10       0x30 kernel/libnoninstrumentables.a.p/generic_src_main_shutdown.c.o
 .debug_aranges
                0x0000000000003d40       0x30 kernel/libnoninstrumentables.a.p/generic_src_main_uinit.c.o
 .debug_aranges
                0x0000000000003d70       0x30 kernel/libnoninstrumentables.a.p/generic_src_main_version.c.o
 .debug_aranges
                0x0000000000003da0       0xa0 kernel/libnoninstrumentables.a.p/generic_src_mm_backend_anon.c.o
 .debug_aranges
                0x0000000000003e40       0xa0 kernel/libnoninstrumentables.a.p/generic_src_mm_backend_elf.c.o
 .debug_aranges
                0x0000000000003ee0       0xa0 kernel/libnoninstrumentables.a.p/generic_src_mm_backend_phys.c.o
 .debug_aranges
                0x0000000000003f80       0x80 kernel/libnoninstrumentables.a.p/generic_src_mm_backend_user.c.o
 .debug_aranges
                0x0000000000004000       0xe0 kernel/libnoninstrumentables.a.p/generic_src_mm_km.c.o
 .debug_aranges
                0x00000000000040e0       0x80 kernel/libnoninstrumentables.a.p/generic_src_mm_malloc.c.o
 .debug_aranges
                0x0000000000004160       0x60 kernel/libnoninstrumentables.a.p/generic_src_mm_reserve.c.o
 .debug_aranges
                0x00000000000041c0       0x30 kernel/libnoninstrumentables.a.p/generic_src_printf_printf.c.o
 .debug_aranges
                0x00000000000041f0       0x30 kernel/libnoninstrumentables.a.p/generic_src_printf_snprintf.c.o
 .debug_aranges
                0x0000000000004220       0x60 kernel/libnoninstrumentables.a.p/generic_src_printf_vprintf.c.o
 .debug_aranges
                0x0000000000004280       0x50 kernel/libnoninstrumentables.a.p/generic_src_printf_vsnprintf.c.o
 .debug_aranges
                0x00000000000042d0       0x70 kernel/libnoninstrumentables.a.p/generic_src_proc_program.c.o
 .debug_aranges
                0x0000000000004340       0xe0 kernel/libnoninstrumentables.a.p/generic_src_proc_scheduler.c.o
 .debug_aranges
                0x0000000000004420      0x180 kernel/libnoninstrumentables.a.p/generic_src_proc_task.c.o
 .debug_aranges
                0x00000000000045a0      0x2a0 kernel/libnoninstrumentables.a.p/generic_src_proc_thread.c.o
 .debug_aranges
                0x0000000000004840       0x60 kernel/libnoninstrumentables.a.p/generic_src_security_perm.c.o
 .debug_aranges
                0x00000000000048a0       0x30 kernel/libnoninstrumentables.a.p/generic_src_smp_ipi.c.o
 .debug_aranges
                0x00000000000048d0       0x20 kernel/libnoninstrumentables.a.p/generic_src_smp_smp.c.o
 .debug_aranges
                0x00000000000048f0       0x90 kernel/libnoninstrumentables.a.p/generic_src_synch_condvar.c.o
 .debug_aranges
                0x0000000000004980       0x90 kernel/libnoninstrumentables.a.p/generic_src_synch_irq_spinlock.c.o
 .debug_aranges
                0x0000000000004a10       0x80 kernel/libnoninstrumentables.a.p/generic_src_synch_mutex.c.o
 .debug_aranges
                0x0000000000004a90       0x80 kernel/libnoninstrumentables.a.p/generic_src_synch_semaphore.c.o
 .debug_aranges
                0x0000000000004b10       0x30 kernel/libnoninstrumentables.a.p/generic_src_synch_smc.c.o
 .debug_aranges
                0x0000000000004b40       0x70 kernel/libnoninstrumentables.a.p/generic_src_synch_spinlock.c.o
 .debug_aranges
                0x0000000000004bb0       0xa0 kernel/libnoninstrumentables.a.p/generic_src_synch_syswaitq.c.o
 .debug_aranges
                0x0000000000004c50       0xf0 kernel/libnoninstrumentables.a.p/generic_src_synch_waitq.c.o
 .debug_aranges
                0x0000000000004d40       0x40 kernel/libnoninstrumentables.a.p/generic_src_syscall_copy.c.o
 .debug_aranges
                0x0000000000004d80       0x30 kernel/libnoninstrumentables.a.p/generic_src_syscall_syscall.c.o
 .debug_aranges
                0x0000000000004db0      0x110 kernel/libnoninstrumentables.a.p/generic_src_sysinfo_stats.c.o
 .debug_aranges
                0x0000000000004ec0       0x40 kernel/libnoninstrumentables.a.p/generic_src_time_clock.c.o
 .debug_aranges
                0x0000000000004f00       0x30 kernel/libnoninstrumentables.a.p/generic_src_time_delay.c.o
 .debug_aranges
                0x0000000000004f30       0x90 kernel/libnoninstrumentables.a.p/generic_src_time_timeout.c.o
 .debug_aranges
                0x0000000000004fc0      0x2b0 kernel/libnoninstrumentables.a.p/generic_src_console_cmd.c.o
 .debug_aranges
                0x0000000000005270       0x50 kernel/libnoninstrumentables.a.p/generic_src_ipc_kbox.c.o
 .debug_aranges
                0x00000000000052c0       0xc0 kernel/libnoninstrumentables.a.p/generic_src_udebug_udebug.c.o
 .debug_aranges
                0x0000000000005380       0xd0 kernel/libnoninstrumentables.a.p/generic_src_udebug_udebug_ops.c.o
 .debug_aranges
                0x0000000000005450       0x40 kernel/libnoninstrumentables.a.p/generic_src_udebug_udebug_ipc.c.o
 .debug_aranges
                0x0000000000005490       0x30 kernel/libnoninstrumentables.a.p/test_test.c.o
 .debug_aranges
                0x00000000000054c0       0x30 kernel/libnoninstrumentables.a.p/test_atomic_atomic1.c.o
 .debug_aranges
                0x00000000000054f0       0x30 kernel/libnoninstrumentables.a.p/test_fault_fault1.c.o
 .debug_aranges
                0x0000000000005520       0x30 kernel/libnoninstrumentables.a.p/test_mm_falloc1.c.o
 .debug_aranges
                0x0000000000005550       0x40 kernel/libnoninstrumentables.a.p/test_mm_falloc2.c.o
 .debug_aranges
                0x0000000000005590       0x30 kernel/libnoninstrumentables.a.p/test_mm_mapping1.c.o
 .debug_aranges
                0x00000000000055c0       0x60 kernel/libnoninstrumentables.a.p/test_mm_slab1.c.o
 .debug_aranges
                0x0000000000005620       0x60 kernel/libnoninstrumentables.a.p/test_mm_slab2.c.o
 .debug_aranges
                0x0000000000005680       0x50 kernel/libnoninstrumentables.a.p/test_synch_semaphore1.c.o
 .debug_aranges
                0x00000000000056d0       0x40 kernel/libnoninstrumentables.a.p/test_synch_semaphore2.c.o
 .debug_aranges
                0x0000000000005710       0x30 kernel/libnoninstrumentables.a.p/test_print_print1.c.o
 .debug_aranges
                0x0000000000005740       0x30 kernel/libnoninstrumentables.a.p/test_print_print2.c.o
 .debug_aranges
                0x0000000000005770       0x30 kernel/libnoninstrumentables.a.p/test_print_print3.c.o
 .debug_aranges
                0x00000000000057a0       0x30 kernel/libnoninstrumentables.a.p/test_print_print4.c.o
 .debug_aranges
                0x00000000000057d0       0x30 kernel/libnoninstrumentables.a.p/test_print_print5.c.o
 .debug_aranges
                0x0000000000005800       0x40 kernel/libnoninstrumentables.a.p/test_thread_thread1.c.o
 .debug_aranges
                0x0000000000005840       0x30 kernel/libnoninstrumentables.a.p/test_debug_mips1_skip.c.o
 .debug_aranges
                0x0000000000005870       0x30 kernel/libnoninstrumentables.a.p/test_mm_purge1_skip.c.o

.debug_cu_index
 *(.debug_cu_index)

.debug_frame
 *(.debug_frame)

.debug_frame_hdr
 *(.debug_frame_hdr)

.debug_info     0x0000000000000000    0x1abbe
 *(.debug_info)
 .debug_info    0x0000000000000000      0x104 kernel/libinstrumentables.a.p/generic_src_cpu_cpu.c.o
 .debug_info    0x0000000000000104      0x380 kernel/libinstrumentables.a.p/generic_src_ddi_ddi.c.o
 .debug_info    0x0000000000000484      0x290 kernel/libinstrumentables.a.p/generic_src_interrupt_interrupt.c.o
 .debug_info    0x0000000000000714      0x236 kernel/libinstrumentables.a.p/generic_src_main_kinit.c.o
 .debug_info    0x000000000000094a      0x370 kernel/libinstrumentables.a.p/generic_src_main_main.c.o
 .debug_info    0x0000000000000cba     0x124a kernel/libinstrumentables.a.p/generic_src_mm_as.c.o
 .debug_info    0x0000000000001f04      0xd17 kernel/libinstrumentables.a.p/generic_src_mm_frame.c.o
 .debug_info    0x0000000000002c1b      0x1c6 kernel/libinstrumentables.a.p/generic_src_mm_page.c.o
 .debug_info    0x0000000000002de1      0xc33 kernel/libinstrumentables.a.p/generic_src_mm_slab.c.o
 .debug_info    0x0000000000003a14      0x1c2 kernel/libinstrumentables.a.p/generic_src_mm_tlb.c.o
 .debug_info    0x0000000000003bd6       0x67 kernel/libinstrumentables.a.p/generic_src_proc_current.c.o
 .debug_info    0x0000000000003c3d      0x515 kernel/libinstrumentables.a.p/generic_src_sysinfo_sysinfo.c.o
 .debug_info    0x0000000000004152      0x449 kernel/libinstrumentables.a.p/generic_src_console_kconsole.c.o
 .debug_info    0x000000000000459b      0x3f4 kernel/libnoninstrumentables.a.p/arch_amd64_src_amd64.c.o
 .debug_info    0x000000000000498f       0x8b kernel/libnoninstrumentables.a.p/arch_amd64_src_asm.S.o
 .debug_info    0x0000000000004a1a       0x5e kernel/libnoninstrumentables.a.p/arch_amd64_src_bios_bios.c.o
 .debug_info    0x0000000000004a78       0x4f kernel/libnoninstrumentables.a.p/arch_amd64_src_boot_memmap.c.o
 .debug_info    0x0000000000004ac7       0x29 kernel/libnoninstrumentables.a.p/arch_amd64_src_boot_multiboot2.S.o
 .debug_info    0x0000000000004af0       0x29 kernel/libnoninstrumentables.a.p/arch_amd64_src_boot_multiboot.S.o
 .debug_info    0x0000000000004b19       0x48 kernel/libnoninstrumentables.a.p/arch_amd64_src_context.S.o
 .debug_info    0x0000000000004b61      0x1c0 kernel/libnoninstrumentables.a.p/arch_amd64_src_cpu_cpu.c.o
 .debug_info    0x0000000000004d21       0xe1 kernel/libnoninstrumentables.a.p/arch_amd64_src_ddi_ddi.c.o
 .debug_info    0x0000000000004e02       0x48 kernel/libnoninstrumentables.a.p/arch_amd64_src_debug_stacktrace_asm.S.o
 .debug_info    0x0000000000004e4a       0xbb kernel/libnoninstrumentables.a.p/arch_amd64_src_debug_stacktrace.c.o
 .debug_info    0x0000000000004f05       0x48 kernel/libnoninstrumentables.a.p/arch_amd64_src_delay.S.o
 .debug_info    0x0000000000004f4d      0x339 kernel/libnoninstrumentables.a.p/arch_amd64_src_drivers_i8254.c.o
 .debug_info    0x0000000000005286       0x73 kernel/libnoninstrumentables.a.p/arch_amd64_src_fpu_context.c.o
 .debug_info    0x00000000000052f9      0x1b7 kernel/libnoninstrumentables.a.p/arch_amd64_src_interrupt.c.o
 .debug_info    0x00000000000054b0       0x90 kernel/libnoninstrumentables.a.p/arch_amd64_src_kseg.c.o
 .debug_info    0x0000000000005540       0x56 kernel/libnoninstrumentables.a.p/arch_amd64_src_mm_as.c.o
 .debug_info    0x0000000000005596       0xd7 kernel/libnoninstrumentables.a.p/arch_amd64_src_mm_frame.c.o
 .debug_info    0x000000000000566d       0xab kernel/libnoninstrumentables.a.p/arch_amd64_src_mm_km.c.o
 .debug_info    0x0000000000005718      0x124 kernel/libnoninstrumentables.a.p/arch_amd64_src_mm_page.c.o
 .debug_info    0x000000000000583c      0x150 kernel/libnoninstrumentables.a.p/arch_amd64_src_mm_tlb.c.o
 .debug_info    0x000000000000598c      0x913 kernel/libnoninstrumentables.a.p/arch_amd64_src_pm.c.o
 .debug_info    0x000000000000629f       0xa4 kernel/libnoninstrumentables.a.p/arch_amd64_src_proc_scheduler.c.o
 .debug_info    0x0000000000006343       0x69 kernel/libnoninstrumentables.a.p/arch_amd64_src_proc_task.c.o
 .debug_info    0x00000000000063ac       0x45 kernel/libnoninstrumentables.a.p/arch_amd64_src_proc_thread.c.o
 .debug_info    0x00000000000063f1       0x6b kernel/libnoninstrumentables.a.p/arch_amd64_src_smc.c.o
 .debug_info    0x000000000000645c       0xc8 kernel/libnoninstrumentables.a.p/arch_amd64_src_syscall.c.o
 .debug_info    0x0000000000006524       0x8d kernel/libnoninstrumentables.a.p/arch_amd64_src_userspace.c.o
 .debug_info    0x00000000000065b1       0x9c kernel/libnoninstrumentables.a.p/arch_amd64_src_vreg.c.o
 .debug_info    0x000000000000664d      0x533 kernel/libnoninstrumentables.a.p/arch_amd64_src_smp_apic.c.o
 .debug_info    0x0000000000006b80       0x29 kernel/libnoninstrumentables.a.p/arch_amd64_src_smp_ap.S.o
 .debug_info    0x0000000000006ba9       0x4e kernel/libnoninstrumentables.a.p/arch_amd64_src_smp_ipi.c.o
 .debug_info    0x0000000000006bf7      0x239 kernel/libnoninstrumentables.a.p/arch_amd64_src_smp_mps.c.o
 .debug_info    0x0000000000006e30      0x18c kernel/libnoninstrumentables.a.p/arch_amd64_src_smp_smp.c.o
 .debug_info    0x0000000000006fbc      0x27d kernel/libnoninstrumentables.a.p/genarch_src_acpi_acpi.c.o
 .debug_info    0x0000000000007239      0x218 kernel/libnoninstrumentables.a.p/genarch_src_acpi_madt.c.o
 .debug_info    0x0000000000007451      0x40a kernel/libnoninstrumentables.a.p/genarch_src_mm_page_pt.c.o
 .debug_info    0x000000000000785b       0xf8 kernel/libnoninstrumentables.a.p/genarch_src_mm_as_pt.c.o
 .debug_info    0x0000000000007953       0x60 kernel/libnoninstrumentables.a.p/genarch_src_fb_font-8x16.c.o
 .debug_info    0x00000000000079b3      0x43a kernel/libnoninstrumentables.a.p/genarch_src_fb_fb.c.o
 .debug_info    0x0000000000007ded      0x166 kernel/libnoninstrumentables.a.p/genarch_src_fb_bfb.c.o
 .debug_info    0x0000000000007f53      0x266 kernel/libnoninstrumentables.a.p/genarch_src_drivers_i8042_i8042.c.o
 .debug_info    0x00000000000081b9      0x38e kernel/libnoninstrumentables.a.p/genarch_src_drivers_i8259_i8259.c.o
 .debug_info    0x0000000000008547      0x496 kernel/libnoninstrumentables.a.p/genarch_src_drivers_ns16550_ns16550.c.o
 .debug_info    0x00000000000089dd      0x20c kernel/libnoninstrumentables.a.p/genarch_src_drivers_pl011_pl011.c.o
 .debug_info    0x0000000000008be9      0x118 kernel/libnoninstrumentables.a.p/genarch_src_kbrd_kbrd.c.o
 .debug_info    0x0000000000008d01       0x4b kernel/libnoninstrumentables.a.p/genarch_src_kbrd_scanc_pc.c.o
 .debug_info    0x0000000000008d4c       0xb7 kernel/libnoninstrumentables.a.p/genarch_src_srln_srln.c.o
 .debug_info    0x0000000000008e03       0x4d kernel/libnoninstrumentables.a.p/genarch_src_multiboot_common.c.o
 .debug_info    0x0000000000008e50      0x14d kernel/libnoninstrumentables.a.p/genarch_src_multiboot_multiboot.c.o
 .debug_info    0x0000000000008f9d      0x132 kernel/libnoninstrumentables.a.p/genarch_src_multiboot_multiboot2.c.o
 .debug_info    0x00000000000090cf      0x485 kernel/libnoninstrumentables.a.p/genarch_src_drivers_ega_ega.c.o
 .debug_info    0x0000000000009554       0x93 kernel/libnoninstrumentables.a.p/genarch_src_ddi_ddi-bitmap.c.o
 .debug_info    0x00000000000095e7      0x138 kernel/libnoninstrumentables.a.p/generic_common_adt_bitmap.c.o
 .debug_info    0x000000000000971f      0x565 kernel/libnoninstrumentables.a.p/generic_common_adt_hash_table.c.o
 .debug_info    0x0000000000009c84       0xf6 kernel/libnoninstrumentables.a.p/generic_common_adt_list.c.o
 .debug_info    0x0000000000009d7a      0xb6e kernel/libnoninstrumentables.a.p/generic_common_adt_odict.c.o
 .debug_info    0x000000000000a8e8      0x4d4 kernel/libnoninstrumentables.a.p/generic_common_printf_printf_core.c.o
 .debug_info    0x000000000000adbc       0x4d kernel/libnoninstrumentables.a.p/generic_common_stdc_calloc.c.o
 .debug_info    0x000000000000ae09      0x2d9 kernel/libnoninstrumentables.a.p/generic_common_stdc_ctype.c.o
 .debug_info    0x000000000000b0e2       0xe5 kernel/libnoninstrumentables.a.p/generic_common_stdc_mem.c.o
 .debug_info    0x000000000000b1c7       0x75 kernel/libnoninstrumentables.a.p/generic_common_gsort.c.o
 .debug_info    0x000000000000b23c      0xb20 kernel/libnoninstrumentables.a.p/generic_common_str.c.o
 .debug_info    0x000000000000bd5c       0x9a kernel/libnoninstrumentables.a.p/generic_common_str_error.c.o
 .debug_info    0x000000000000bdf6      0x543 kernel/libnoninstrumentables.a.p/generic_common_strtol.c.o
 .debug_info    0x000000000000c339      0x699 kernel/libnoninstrumentables.a.p/generic_src_cap_cap.c.o
 .debug_info    0x000000000000c9d2      0x201 kernel/libnoninstrumentables.a.p/generic_src_console_chardev.c.o
 .debug_info    0x000000000000cbd3      0x426 kernel/libnoninstrumentables.a.p/generic_src_console_console.c.o
 .debug_info    0x000000000000cff9       0x73 kernel/libnoninstrumentables.a.p/generic_src_console_prompt.c.o
 .debug_info    0x000000000000d06c      0x1ce kernel/libnoninstrumentables.a.p/generic_src_cpu_cpu_mask.c.o
 .debug_info    0x000000000000d23a      0x281 kernel/libnoninstrumentables.a.p/generic_src_ddi_irq.c.o
 .debug_info    0x000000000000d4bb      0xbd5 kernel/libnoninstrumentables.a.p/generic_src_debug_line.c.o
 .debug_info    0x000000000000e090      0x2b5 kernel/libnoninstrumentables.a.p/generic_src_debug_names.c.o
 .debug_info    0x000000000000e345       0x75 kernel/libnoninstrumentables.a.p/generic_src_debug_panic.c.o
 .debug_info    0x000000000000e3ba       0xea kernel/libnoninstrumentables.a.p/generic_src_debug_sections.c.o
 .debug_info    0x000000000000e4a4      0x18c kernel/libnoninstrumentables.a.p/generic_src_debug_stacktrace.c.o
 .debug_info    0x000000000000e630      0x2a4 kernel/libnoninstrumentables.a.p/generic_src_debug_symtab.c.o
 .debug_info    0x000000000000e8d4      0x587 kernel/libnoninstrumentables.a.p/generic_src_debug_util.c.o
 .debug_info    0x000000000000ee5b      0x46e kernel/libnoninstrumentables.a.p/generic_src_ipc_event.c.o
 .debug_info    0x000000000000f2c9      0xd90 kernel/libnoninstrumentables.a.p/generic_src_ipc_ipc.c.o
 .debug_info    0x0000000000010059       0xf9 kernel/libnoninstrumentables.a.p/generic_src_ipc_ipcrsc.c.o
 .debug_info    0x0000000000010152      0x5ae kernel/libnoninstrumentables.a.p/generic_src_ipc_irq.c.o
 .debug_info    0x0000000000010700      0x181 kernel/libnoninstrumentables.a.p/generic_src_ipc_ops_conctmeto.c.o
 .debug_info    0x0000000000010881      0x1d2 kernel/libnoninstrumentables.a.p/generic_src_ipc_ops_concttome.c.o
 .debug_info    0x0000000000010a53      0x1f9 kernel/libnoninstrumentables.a.p/generic_src_ipc_ops_dataread.c.o
 .debug_info    0x0000000000010c4c      0x1ab kernel/libnoninstrumentables.a.p/generic_src_ipc_ops_datawrite.c.o
 .debug_info    0x0000000000010df7       0xcb kernel/libnoninstrumentables.a.p/generic_src_ipc_ops_debug.c.o
 .debug_info    0x0000000000010ec2      0x13e kernel/libnoninstrumentables.a.p/generic_src_ipc_ops_pagein.c.o
 .debug_info    0x0000000000011000      0x144 kernel/libnoninstrumentables.a.p/generic_src_ipc_ops_sharein.c.o
 .debug_info    0x0000000000011144      0x152 kernel/libnoninstrumentables.a.p/generic_src_ipc_ops_shareout.c.o
 .debug_info    0x0000000000011296      0x189 kernel/libnoninstrumentables.a.p/generic_src_ipc_ops_stchngath.c.o
 .debug_info    0x000000000001141f      0xa27 kernel/libnoninstrumentables.a.p/generic_src_ipc_sysipc.c.o
 .debug_info    0x0000000000011e46       0xd1 kernel/libnoninstrumentables.a.p/generic_src_ipc_sysipc_ops.c.o
 .debug_info    0x0000000000011f17       0x75 kernel/libnoninstrumentables.a.p/generic_src_lib_elf.c.o
 .debug_info    0x0000000000011f8c       0xf4 kernel/libnoninstrumentables.a.p/generic_src_lib_halt.c.o
 .debug_info    0x0000000000012080       0x5f kernel/libnoninstrumentables.a.p/generic_src_lib_mem.c.o
 .debug_info    0x00000000000120df      0x98e kernel/libnoninstrumentables.a.p/generic_src_lib_ra.c.o
 .debug_info    0x0000000000012a6d       0x6a kernel/libnoninstrumentables.a.p/generic_src_lib_rd.c.o
 .debug_info    0x0000000000012ad7      0x227 kernel/libnoninstrumentables.a.p/generic_src_lib_ubsan.c.o
 .debug_info    0x0000000000012cfe      0x30f kernel/libnoninstrumentables.a.p/generic_src_log_log.c.o
 .debug_info    0x000000000001300d       0x63 kernel/libnoninstrumentables.a.p/generic_src_main_shutdown.c.o
 .debug_info    0x0000000000013070       0x5d kernel/libnoninstrumentables.a.p/generic_src_main_uinit.c.o
 .debug_info    0x00000000000130cd       0x4d kernel/libnoninstrumentables.a.p/generic_src_main_version.c.o
 .debug_info    0x000000000001311a      0x22b kernel/libnoninstrumentables.a.p/generic_src_mm_backend_anon.c.o
 .debug_info    0x0000000000013345      0x256 kernel/libnoninstrumentables.a.p/generic_src_mm_backend_elf.c.o
 .debug_info    0x000000000001359b      0x195 kernel/libnoninstrumentables.a.p/generic_src_mm_backend_phys.c.o
 .debug_info    0x0000000000013730      0x24d kernel/libnoninstrumentables.a.p/generic_src_mm_backend_user.c.o
 .debug_info    0x000000000001397d      0x324 kernel/libnoninstrumentables.a.p/generic_src_mm_km.c.o
 .debug_info    0x0000000000013ca1      0x281 kernel/libnoninstrumentables.a.p/generic_src_mm_malloc.c.o
 .debug_info    0x0000000000013f22       0xb3 kernel/libnoninstrumentables.a.p/generic_src_mm_reserve.c.o
 .debug_info    0x0000000000013fd5       0x4d kernel/libnoninstrumentables.a.p/generic_src_printf_printf.c.o
 .debug_info    0x0000000000014022       0x4d kernel/libnoninstrumentables.a.p/generic_src_printf_snprintf.c.o
 .debug_info    0x000000000001406f       0xa3 kernel/libnoninstrumentables.a.p/generic_src_printf_vprintf.c.o
 .debug_info    0x0000000000014112       0xb0 kernel/libnoninstrumentables.a.p/generic_src_printf_vsnprintf.c.o
 .debug_info    0x00000000000141c2      0x19c kernel/libnoninstrumentables.a.p/generic_src_proc_program.c.o
 .debug_info    0x000000000001435e      0xb6e kernel/libnoninstrumentables.a.p/generic_src_proc_scheduler.c.o
 .debug_info    0x0000000000014ecc      0x8ba kernel/libnoninstrumentables.a.p/generic_src_proc_task.c.o
 .debug_info    0x0000000000015786      0xee4 kernel/libnoninstrumentables.a.p/generic_src_proc_thread.c.o
 .debug_info    0x000000000001666a      0x11f kernel/libnoninstrumentables.a.p/generic_src_security_perm.c.o
 .debug_info    0x0000000000016789       0x55 kernel/libnoninstrumentables.a.p/generic_src_smp_ipi.c.o
 .debug_info    0x00000000000167de       0x39 kernel/libnoninstrumentables.a.p/generic_src_smp_smp.c.o
 .debug_info    0x0000000000016817      0x14a kernel/libnoninstrumentables.a.p/generic_src_synch_condvar.c.o
 .debug_info    0x0000000000016961      0x46e kernel/libnoninstrumentables.a.p/generic_src_synch_irq_spinlock.c.o
 .debug_info    0x0000000000016dcf      0x142 kernel/libnoninstrumentables.a.p/generic_src_synch_mutex.c.o
 .debug_info    0x0000000000016f11      0x103 kernel/libnoninstrumentables.a.p/generic_src_synch_semaphore.c.o
 .debug_info    0x0000000000017014       0x81 kernel/libnoninstrumentables.a.p/generic_src_synch_smc.c.o
 .debug_info    0x0000000000017095      0x175 kernel/libnoninstrumentables.a.p/generic_src_synch_spinlock.c.o
 .debug_info    0x000000000001720a      0x1a8 kernel/libnoninstrumentables.a.p/generic_src_synch_syswaitq.c.o
 .debug_info    0x00000000000173b2      0x691 kernel/libnoninstrumentables.a.p/generic_src_synch_waitq.c.o
 .debug_info    0x0000000000017a43      0x1e7 kernel/libnoninstrumentables.a.p/generic_src_syscall_copy.c.o
 .debug_info    0x0000000000017c2a      0x34f kernel/libnoninstrumentables.a.p/generic_src_syscall_syscall.c.o
 .debug_info    0x0000000000017f79      0x429 kernel/libnoninstrumentables.a.p/generic_src_sysinfo_stats.c.o
 .debug_info    0x00000000000183a2      0x1fa kernel/libnoninstrumentables.a.p/generic_src_time_clock.c.o
 .debug_info    0x000000000001859c       0x5d kernel/libnoninstrumentables.a.p/generic_src_time_delay.c.o
 .debug_info    0x00000000000185f9      0x336 kernel/libnoninstrumentables.a.p/generic_src_time_timeout.c.o
 .debug_info    0x000000000001892f      0xa97 kernel/libnoninstrumentables.a.p/generic_src_console_cmd.c.o
 .debug_info    0x00000000000193c6      0x19e kernel/libnoninstrumentables.a.p/generic_src_ipc_kbox.c.o
 .debug_info    0x0000000000019564      0x35a kernel/libnoninstrumentables.a.p/generic_src_udebug_udebug.c.o
 .debug_info    0x00000000000198be      0x2ef kernel/libnoninstrumentables.a.p/generic_src_udebug_udebug_ops.c.o
 .debug_info    0x0000000000019bad      0x5ab kernel/libnoninstrumentables.a.p/generic_src_udebug_udebug_ipc.c.o
 .debug_info    0x000000000001a158      0x114 kernel/libnoninstrumentables.a.p/test_test.c.o
 .debug_info    0x000000000001a26c       0x45 kernel/libnoninstrumentables.a.p/test_atomic_atomic1.c.o
 .debug_info    0x000000000001a2b1       0x45 kernel/libnoninstrumentables.a.p/test_fault_fault1.c.o
 .debug_info    0x000000000001a2f6       0x75 kernel/libnoninstrumentables.a.p/test_mm_falloc1.c.o
 .debug_info    0x000000000001a36b       0xb0 kernel/libnoninstrumentables.a.p/test_mm_falloc2.c.o
 .debug_info    0x000000000001a41b       0x75 kernel/libnoninstrumentables.a.p/test_mm_mapping1.c.o
 .debug_info    0x000000000001a490      0x132 kernel/libnoninstrumentables.a.p/test_mm_slab1.c.o
 .debug_info    0x000000000001a5c2      0x11d kernel/libnoninstrumentables.a.p/test_mm_slab2.c.o
 .debug_info    0x000000000001a6df       0xda kernel/libnoninstrumentables.a.p/test_synch_semaphore1.c.o
 .debug_info    0x000000000001a7b9      0x137 kernel/libnoninstrumentables.a.p/test_synch_semaphore2.c.o
 .debug_info    0x000000000001a8f0       0x55 kernel/libnoninstrumentables.a.p/test_print_print1.c.o
 .debug_info    0x000000000001a945       0x55 kernel/libnoninstrumentables.a.p/test_print_print2.c.o
 .debug_info    0x000000000001a99a       0x59 kernel/libnoninstrumentables.a.p/test_print_print3.c.o
 .debug_info    0x000000000001a9f3       0x55 kernel/libnoninstrumentables.a.p/test_print_print4.c.o
 .debug_info    0x000000000001aa48       0x55 kernel/libnoninstrumentables.a.p/test_print_print5.c.o
 .debug_info    0x000000000001aa9d       0x97 kernel/libnoninstrumentables.a.p/test_thread_thread1.c.o
 .debug_info    0x000000000001ab34       0x45 kernel/libnoninstrumentables.a.p/test_debug_mips1_skip.c.o
 .debug_info    0x000000000001ab79       0x45 kernel/libnoninstrumentables.a.p/test_mm_purge1_skip.c.o

.debug_info.dwo
 *(.debug_info.dwo)

.debug_line     0x0000000000000000    0x2b144
 *(.debug_line)
 .debug_line    0x0000000000000000      0x267 kernel/libinstrumentables.a.p/generic_src_cpu_cpu.c.o
 .debug_line    0x0000000000000267      0x61e kernel/libinstrumentables.a.p/generic_src_ddi_ddi.c.o
 .debug_line    0x0000000000000885      0x51e kernel/libinstrumentables.a.p/generic_src_interrupt_interrupt.c.o
 .debug_line    0x0000000000000da3      0x3fb kernel/libinstrumentables.a.p/generic_src_main_kinit.c.o
 .debug_line    0x000000000000119e      0x37f kernel/libinstrumentables.a.p/generic_src_main_main.c.o
 .debug_line    0x000000000000151d     0x1e07 kernel/libinstrumentables.a.p/generic_src_mm_as.c.o
 .debug_line    0x0000000000003324     0x1a87 kernel/libinstrumentables.a.p/generic_src_mm_frame.c.o
 .debug_line    0x0000000000004dab      0x37e kernel/libinstrumentables.a.p/generic_src_mm_page.c.o
 .debug_line    0x0000000000005129     0x10dc kernel/libinstrumentables.a.p/generic_src_mm_slab.c.o
 .debug_line    0x0000000000006205      0x2bf kernel/libinstrumentables.a.p/generic_src_mm_tlb.c.o
 .debug_line    0x00000000000064c4       0xa9 kernel/libinstrumentables.a.p/generic_src_proc_current.c.o
 .debug_line    0x000000000000656d      0xd14 kernel/libinstrumentables.a.p/generic_src_sysinfo_sysinfo.c.o
 .debug_line    0x0000000000007281      0xcc6 kernel/libinstrumentables.a.p/generic_src_console_kconsole.c.o
 .debug_line    0x0000000000007f47      0x407 kernel/libnoninstrumentables.a.p/arch_amd64_src_amd64.c.o
 .debug_line    0x000000000000834e       0xb9 kernel/libnoninstrumentables.a.p/arch_amd64_src_asm.S.o
 .debug_line    0x0000000000008407       0x65 kernel/libnoninstrumentables.a.p/arch_amd64_src_bios_bios.c.o
 .debug_line    0x000000000000846c       0x43 kernel/libnoninstrumentables.a.p/arch_amd64_src_boot_memmap.c.o
 .debug_line    0x00000000000084af       0x91 kernel/libnoninstrumentables.a.p/arch_amd64_src_boot_multiboot2.S.o
 .debug_line    0x0000000000008540      0x259 kernel/libnoninstrumentables.a.p/arch_amd64_src_boot_multiboot.S.o
 .debug_line    0x0000000000008799       0x6b kernel/libnoninstrumentables.a.p/arch_amd64_src_context.S.o
 .debug_line    0x0000000000008804      0x237 kernel/libnoninstrumentables.a.p/arch_amd64_src_cpu_cpu.c.o
 .debug_line    0x0000000000008a3b      0x154 kernel/libnoninstrumentables.a.p/arch_amd64_src_ddi_ddi.c.o
 .debug_line    0x0000000000008b8f       0x50 kernel/libnoninstrumentables.a.p/arch_amd64_src_debug_stacktrace_asm.S.o
 .debug_line    0x0000000000008bdf      0x11a kernel/libnoninstrumentables.a.p/arch_amd64_src_debug_stacktrace.c.o
 .debug_line    0x0000000000008cf9       0x52 kernel/libnoninstrumentables.a.p/arch_amd64_src_delay.S.o
 .debug_line    0x0000000000008d4b      0x2e9 kernel/libnoninstrumentables.a.p/arch_amd64_src_drivers_i8254.c.o
 .debug_line    0x0000000000009034       0x8b kernel/libnoninstrumentables.a.p/arch_amd64_src_fpu_context.c.o
 .debug_line    0x00000000000090bf      0x364 kernel/libnoninstrumentables.a.p/arch_amd64_src_interrupt.c.o
 .debug_line    0x0000000000009423       0xb5 kernel/libnoninstrumentables.a.p/arch_amd64_src_kseg.c.o
 .debug_line    0x00000000000094d8       0x68 kernel/libnoninstrumentables.a.p/arch_amd64_src_mm_as.c.o
 .debug_line    0x0000000000009540      0x2cd kernel/libnoninstrumentables.a.p/arch_amd64_src_mm_frame.c.o
 .debug_line    0x000000000000980d       0xce kernel/libnoninstrumentables.a.p/arch_amd64_src_mm_km.c.o
 .debug_line    0x00000000000098db      0x139 kernel/libnoninstrumentables.a.p/arch_amd64_src_mm_page.c.o
 .debug_line    0x0000000000009a14      0x10c kernel/libnoninstrumentables.a.p/arch_amd64_src_mm_tlb.c.o
 .debug_line    0x0000000000009b20      0x8a4 kernel/libnoninstrumentables.a.p/arch_amd64_src_pm.c.o
 .debug_line    0x000000000000a3c4       0xf8 kernel/libnoninstrumentables.a.p/arch_amd64_src_proc_scheduler.c.o
 .debug_line    0x000000000000a4bc       0x95 kernel/libnoninstrumentables.a.p/arch_amd64_src_proc_task.c.o
 .debug_line    0x000000000000a551       0x5e kernel/libnoninstrumentables.a.p/arch_amd64_src_proc_thread.c.o
 .debug_line    0x000000000000a5af       0x63 kernel/libnoninstrumentables.a.p/arch_amd64_src_smc.c.o
 .debug_line    0x000000000000a612       0xb7 kernel/libnoninstrumentables.a.p/arch_amd64_src_syscall.c.o
 .debug_line    0x000000000000a6c9       0x94 kernel/libnoninstrumentables.a.p/arch_amd64_src_userspace.c.o
 .debug_line    0x000000000000a75d       0xab kernel/libnoninstrumentables.a.p/arch_amd64_src_vreg.c.o
 .debug_line    0x000000000000a808      0x80c kernel/libnoninstrumentables.a.p/arch_amd64_src_smp_apic.c.o
 .debug_line    0x000000000000b014       0x6e kernel/libnoninstrumentables.a.p/arch_amd64_src_smp_ap.S.o
 .debug_line    0x000000000000b082       0x62 kernel/libnoninstrumentables.a.p/arch_amd64_src_smp_ipi.c.o
 .debug_line    0x000000000000b0e4      0x426 kernel/libnoninstrumentables.a.p/arch_amd64_src_smp_mps.c.o
 .debug_line    0x000000000000b50a      0x272 kernel/libnoninstrumentables.a.p/arch_amd64_src_smp_smp.c.o
 .debug_line    0x000000000000b77c      0x512 kernel/libnoninstrumentables.a.p/genarch_src_acpi_acpi.c.o
 .debug_line    0x000000000000bc8e      0x2cd kernel/libnoninstrumentables.a.p/genarch_src_acpi_madt.c.o
 .debug_line    0x000000000000bf5b      0x60b kernel/libnoninstrumentables.a.p/genarch_src_mm_page_pt.c.o
 .debug_line    0x000000000000c566      0x144 kernel/libnoninstrumentables.a.p/genarch_src_mm_as_pt.c.o
 .debug_line    0x000000000000c6aa      0x245 kernel/libnoninstrumentables.a.p/genarch_src_fb_font-8x16.c.o
 .debug_line    0x000000000000c8ef      0xa96 kernel/libnoninstrumentables.a.p/genarch_src_fb_fb.c.o
 .debug_line    0x000000000000d385      0x10b kernel/libnoninstrumentables.a.p/genarch_src_fb_bfb.c.o
 .debug_line    0x000000000000d490      0x37d kernel/libnoninstrumentables.a.p/genarch_src_drivers_i8042_i8042.c.o
 .debug_line    0x000000000000d80d      0x3be kernel/libnoninstrumentables.a.p/genarch_src_drivers_i8259_i8259.c.o
 .debug_line    0x000000000000dbcb      0x5c0 kernel/libnoninstrumentables.a.p/genarch_src_drivers_ns16550_ns16550.c.o
 .debug_line    0x000000000000e18b      0x35f kernel/libnoninstrumentables.a.p/genarch_src_drivers_pl011_pl011.c.o
 .debug_line    0x000000000000e4ea      0x1d0 kernel/libnoninstrumentables.a.p/genarch_src_kbrd_kbrd.c.o
 .debug_line    0x000000000000e6ba       0x43 kernel/libnoninstrumentables.a.p/genarch_src_kbrd_scanc_pc.c.o
 .debug_line    0x000000000000e6fd      0x19c kernel/libnoninstrumentables.a.p/genarch_src_srln_srln.c.o
 .debug_line    0x000000000000e899       0x96 kernel/libnoninstrumentables.a.p/genarch_src_multiboot_common.c.o
 .debug_line    0x000000000000e92f      0x2a4 kernel/libnoninstrumentables.a.p/genarch_src_multiboot_multiboot.c.o
 .debug_line    0x000000000000ebd3      0x166 kernel/libnoninstrumentables.a.p/genarch_src_multiboot_multiboot2.c.o
 .debug_line    0x000000000000ed39      0x803 kernel/libnoninstrumentables.a.p/genarch_src_drivers_ega_ega.c.o
 .debug_line    0x000000000000f53c       0xf4 kernel/libnoninstrumentables.a.p/genarch_src_ddi_ddi-bitmap.c.o
 .debug_line    0x000000000000f630      0x3f4 kernel/libnoninstrumentables.a.p/generic_common_adt_bitmap.c.o
 .debug_line    0x000000000000fa24      0x9bd kernel/libnoninstrumentables.a.p/generic_common_adt_hash_table.c.o
 .debug_line    0x00000000000103e1      0x128 kernel/libnoninstrumentables.a.p/generic_common_adt_list.c.o
 .debug_line    0x0000000000010509     0x1594 kernel/libnoninstrumentables.a.p/generic_common_adt_odict.c.o
 .debug_line    0x0000000000011a9d      0xa50 kernel/libnoninstrumentables.a.p/generic_common_printf_printf_core.c.o
 .debug_line    0x00000000000124ed       0x76 kernel/libnoninstrumentables.a.p/generic_common_stdc_calloc.c.o
 .debug_line    0x0000000000012563      0x320 kernel/libnoninstrumentables.a.p/generic_common_stdc_ctype.c.o
 .debug_line    0x0000000000012883      0x515 kernel/libnoninstrumentables.a.p/generic_common_stdc_mem.c.o
 .debug_line    0x0000000000012d98       0xd3 kernel/libnoninstrumentables.a.p/generic_common_gsort.c.o
 .debug_line    0x0000000000012e6b     0x279e kernel/libnoninstrumentables.a.p/generic_common_str.c.o
 .debug_line    0x0000000000015609       0x9a kernel/libnoninstrumentables.a.p/generic_common_str_error.c.o
 .debug_line    0x00000000000156a3      0xa6e kernel/libnoninstrumentables.a.p/generic_common_strtol.c.o
 .debug_line    0x0000000000016111      0x7d4 kernel/libnoninstrumentables.a.p/generic_src_cap_cap.c.o
 .debug_line    0x00000000000168e5      0x24e kernel/libnoninstrumentables.a.p/generic_src_console_chardev.c.o
 .debug_line    0x0000000000016b33      0x6b0 kernel/libnoninstrumentables.a.p/generic_src_console_console.c.o
 .debug_line    0x00000000000171e3       0xf1 kernel/libnoninstrumentables.a.p/generic_src_console_prompt.c.o
 .debug_line    0x00000000000172d4      0x341 kernel/libnoninstrumentables.a.p/generic_src_cpu_cpu_mask.c.o
 .debug_line    0x0000000000017615      0x367 kernel/libnoninstrumentables.a.p/generic_src_ddi_irq.c.o
 .debug_line    0x000000000001797c     0x144e kernel/libnoninstrumentables.a.p/generic_src_debug_line.c.o
 .debug_line    0x0000000000018dca      0x3d6 kernel/libnoninstrumentables.a.p/generic_src_debug_names.c.o
 .debug_line    0x00000000000191a0      0x166 kernel/libnoninstrumentables.a.p/generic_src_debug_panic.c.o
 .debug_line    0x0000000000019306      0x256 kernel/libnoninstrumentables.a.p/generic_src_debug_sections.c.o
 .debug_line    0x000000000001955c      0x26f kernel/libnoninstrumentables.a.p/generic_src_debug_stacktrace.c.o
 .debug_line    0x00000000000197cb      0x5a4 kernel/libnoninstrumentables.a.p/generic_src_debug_symtab.c.o
 .debug_line    0x0000000000019d6f      0x535 kernel/libnoninstrumentables.a.p/generic_src_debug_util.c.o
 .debug_line    0x000000000001a2a4      0x4c1 kernel/libnoninstrumentables.a.p/generic_src_ipc_event.c.o
 .debug_line    0x000000000001a765     0x16e4 kernel/libnoninstrumentables.a.p/generic_src_ipc_ipc.c.o
 .debug_line    0x000000000001be49      0x1cd kernel/libnoninstrumentables.a.p/generic_src_ipc_ipcrsc.c.o
 .debug_line    0x000000000001c016      0x843 kernel/libnoninstrumentables.a.p/generic_src_ipc_irq.c.o
 .debug_line    0x000000000001c859      0x1f2 kernel/libnoninstrumentables.a.p/generic_src_ipc_ops_conctmeto.c.o
 .debug_line    0x000000000001ca4b      0x20d kernel/libnoninstrumentables.a.p/generic_src_ipc_ops_concttome.c.o
 .debug_line    0x000000000001cc58      0x16c kernel/libnoninstrumentables.a.p/generic_src_ipc_ops_dataread.c.o
 .debug_line    0x000000000001cdc4      0x157 kernel/libnoninstrumentables.a.p/generic_src_ipc_ops_datawrite.c.o
 .debug_line    0x000000000001cf1b       0xb1 kernel/libnoninstrumentables.a.p/generic_src_ipc_ops_debug.c.o
 .debug_line    0x000000000001cfcc      0x16b kernel/libnoninstrumentables.a.p/generic_src_ipc_ops_pagein.c.o
 .debug_line    0x000000000001d137      0x116 kernel/libnoninstrumentables.a.p/generic_src_ipc_ops_sharein.c.o
 .debug_line    0x000000000001d24d      0x139 kernel/libnoninstrumentables.a.p/generic_src_ipc_ops_shareout.c.o
 .debug_line    0x000000000001d386      0x1d6 kernel/libnoninstrumentables.a.p/generic_src_ipc_ops_stchngath.c.o
 .debug_line    0x000000000001d55c      0xecf kernel/libnoninstrumentables.a.p/generic_src_ipc_sysipc.c.o
 .debug_line    0x000000000001e42b       0xf5 kernel/libnoninstrumentables.a.p/generic_src_ipc_sysipc_ops.c.o
 .debug_line    0x000000000001e520      0x140 kernel/libnoninstrumentables.a.p/generic_src_lib_elf.c.o
 .debug_line    0x000000000001e660       0xd1 kernel/libnoninstrumentables.a.p/generic_src_lib_halt.c.o
 .debug_line    0x000000000001e731       0xf7 kernel/libnoninstrumentables.a.p/generic_src_lib_mem.c.o
 .debug_line    0x000000000001e828      0xafe kernel/libnoninstrumentables.a.p/generic_src_lib_ra.c.o
 .debug_line    0x000000000001f326       0xb8 kernel/libnoninstrumentables.a.p/generic_src_lib_rd.c.o
 .debug_line    0x000000000001f3de      0x2d0 kernel/libnoninstrumentables.a.p/generic_src_lib_ubsan.c.o
 .debug_line    0x000000000001f6ae      0x656 kernel/libnoninstrumentables.a.p/generic_src_log_log.c.o
 .debug_line    0x000000000001fd04       0x72 kernel/libnoninstrumentables.a.p/generic_src_main_shutdown.c.o
 .debug_line    0x000000000001fd76       0x75 kernel/libnoninstrumentables.a.p/generic_src_main_uinit.c.o
 .debug_line    0x000000000001fdeb       0x67 kernel/libnoninstrumentables.a.p/generic_src_main_version.c.o
 .debug_line    0x000000000001fe52      0x37b kernel/libnoninstrumentables.a.p/generic_src_mm_backend_anon.c.o
 .debug_line    0x00000000000201cd      0x5b0 kernel/libnoninstrumentables.a.p/generic_src_mm_backend_elf.c.o
 .debug_line    0x000000000002077d      0x23f kernel/libnoninstrumentables.a.p/generic_src_mm_backend_phys.c.o
 .debug_line    0x00000000000209bc      0x238 kernel/libnoninstrumentables.a.p/generic_src_mm_backend_user.c.o
 .debug_line    0x0000000000020bf4      0x47f kernel/libnoninstrumentables.a.p/generic_src_mm_km.c.o
 .debug_line    0x0000000000021073      0x3b4 kernel/libnoninstrumentables.a.p/generic_src_mm_malloc.c.o
 .debug_line    0x0000000000021427      0x155 kernel/libnoninstrumentables.a.p/generic_src_mm_reserve.c.o
 .debug_line    0x000000000002157c       0x75 kernel/libnoninstrumentables.a.p/generic_src_printf_printf.c.o
 .debug_line    0x00000000000215f1       0x6e kernel/libnoninstrumentables.a.p/generic_src_printf_snprintf.c.o
 .debug_line    0x000000000002165f      0x144 kernel/libnoninstrumentables.a.p/generic_src_printf_vprintf.c.o
 .debug_line    0x00000000000217a3      0x15c kernel/libnoninstrumentables.a.p/generic_src_printf_vsnprintf.c.o
 .debug_line    0x00000000000218ff      0x2d3 kernel/libnoninstrumentables.a.p/generic_src_proc_program.c.o
 .debug_line    0x0000000000021bd2      0xd30 kernel/libnoninstrumentables.a.p/generic_src_proc_scheduler.c.o
 .debug_line    0x0000000000022902      0xa55 kernel/libnoninstrumentables.a.p/generic_src_proc_task.c.o
 .debug_line    0x0000000000023357      0xecc kernel/libnoninstrumentables.a.p/generic_src_proc_thread.c.o
 .debug_line    0x0000000000024223      0x1cb kernel/libnoninstrumentables.a.p/generic_src_security_perm.c.o
 .debug_line    0x00000000000243ee       0x72 kernel/libnoninstrumentables.a.p/generic_src_smp_ipi.c.o
 .debug_line    0x0000000000024460       0x43 kernel/libnoninstrumentables.a.p/generic_src_smp_smp.c.o
 .debug_line    0x00000000000244a3      0x17e kernel/libnoninstrumentables.a.p/generic_src_synch_condvar.c.o
 .debug_line    0x0000000000024621      0x468 kernel/libnoninstrumentables.a.p/generic_src_synch_irq_spinlock.c.o
 .debug_line    0x0000000000024a89      0x2d8 kernel/libnoninstrumentables.a.p/generic_src_synch_mutex.c.o
 .debug_line    0x0000000000024d61      0x126 kernel/libnoninstrumentables.a.p/generic_src_synch_semaphore.c.o
 .debug_line    0x0000000000024e87       0xc8 kernel/libnoninstrumentables.a.p/generic_src_synch_smc.c.o
 .debug_line    0x0000000000024f4f      0x22d kernel/libnoninstrumentables.a.p/generic_src_synch_spinlock.c.o
 .debug_line    0x000000000002517c      0x280 kernel/libnoninstrumentables.a.p/generic_src_synch_syswaitq.c.o
 .debug_line    0x00000000000253fc      0x684 kernel/libnoninstrumentables.a.p/generic_src_synch_waitq.c.o
 .debug_line    0x0000000000025a80      0x25e kernel/libnoninstrumentables.a.p/generic_src_syscall_copy.c.o
 .debug_line    0x0000000000025cde      0x186 kernel/libnoninstrumentables.a.p/generic_src_syscall_syscall.c.o
 .debug_line    0x0000000000025e64      0x82b kernel/libnoninstrumentables.a.p/generic_src_sysinfo_stats.c.o
 .debug_line    0x000000000002668f      0x2fb kernel/libnoninstrumentables.a.p/generic_src_time_clock.c.o
 .debug_line    0x000000000002698a       0xa3 kernel/libnoninstrumentables.a.p/generic_src_time_delay.c.o
 .debug_line    0x0000000000026a2d      0x3ca kernel/libnoninstrumentables.a.p/generic_src_time_timeout.c.o
 .debug_line    0x0000000000026df7      0xfaa kernel/libnoninstrumentables.a.p/generic_src_console_cmd.c.o
 .debug_line    0x0000000000027da1      0x31c kernel/libnoninstrumentables.a.p/generic_src_ipc_kbox.c.o
 .debug_line    0x00000000000280bd      0x6d5 kernel/libnoninstrumentables.a.p/generic_src_udebug_udebug.c.o
 .debug_line    0x0000000000028792      0x747 kernel/libnoninstrumentables.a.p/generic_src_udebug_udebug_ops.c.o
 .debug_line    0x0000000000028ed9      0x324 kernel/libnoninstrumentables.a.p/generic_src_udebug_udebug_ipc.c.o
 .debug_line    0x00000000000291fd       0xd4 kernel/libnoninstrumentables.a.p/test_test.c.o
 .debug_line    0x00000000000292d1       0xcf kernel/libnoninstrumentables.a.p/test_atomic_atomic1.c.o
 .debug_line    0x00000000000293a0       0x57 kernel/libnoninstrumentables.a.p/test_fault_fault1.c.o
 .debug_line    0x00000000000293f7      0x180 kernel/libnoninstrumentables.a.p/test_mm_falloc1.c.o
 .debug_line    0x0000000000029577      0x325 kernel/libnoninstrumentables.a.p/test_mm_falloc2.c.o
 .debug_line    0x000000000002989c      0x156 kernel/libnoninstrumentables.a.p/test_mm_mapping1.c.o
 .debug_line    0x00000000000299f2      0x7bb kernel/libnoninstrumentables.a.p/test_mm_slab1.c.o
 .debug_line    0x000000000002a1ad      0x37b kernel/libnoninstrumentables.a.p/test_mm_slab2.c.o
 .debug_line    0x000000000002a528      0x1d8 kernel/libnoninstrumentables.a.p/test_synch_semaphore1.c.o
 .debug_line    0x000000000002a700      0x24c kernel/libnoninstrumentables.a.p/test_synch_semaphore2.c.o
 .debug_line    0x000000000002a94c       0xf5 kernel/libnoninstrumentables.a.p/test_print_print1.c.o
 .debug_line    0x000000000002aa41      0x12d kernel/libnoninstrumentables.a.p/test_print_print2.c.o
 .debug_line    0x000000000002ab6e       0xec kernel/libnoninstrumentables.a.p/test_print_print3.c.o
 .debug_line    0x000000000002ac5a      0x25f kernel/libnoninstrumentables.a.p/test_print_print4.c.o
 .debug_line    0x000000000002aeb9       0xaa kernel/libnoninstrumentables.a.p/test_print_print5.c.o
 .debug_line    0x000000000002af63      0x13d kernel/libnoninstrumentables.a.p/test_thread_thread1.c.o
 .debug_line    0x000000000002b0a0       0x52 kernel/libnoninstrumentables.a.p/test_debug_mips1_skip.c.o
 .debug_line    0x000000000002b0f2       0x52 kernel/libnoninstrumentables.a.p/test_mm_purge1_skip.c.o

.debug_line.dwo
 *(.debug_line.dwo)

.debug_line_str
                0x0000000000000000     0x2be2
 *(.debug_line_str)
 .debug_line_str
                0x0000000000000000     0x2be2 kernel/libinstrumentables.a.p/generic_src_cpu_cpu.c.o
                                        0x196 (size before relaxing)
 .debug_line_str
                0x0000000000002be2      0x1c5 kernel/libinstrumentables.a.p/generic_src_ddi_ddi.c.o
 .debug_line_str
                0x0000000000002be2      0x203 kernel/libinstrumentables.a.p/generic_src_interrupt_interrupt.c.o
 .debug_line_str
                0x0000000000002be2      0x2f9 kernel/libinstrumentables.a.p/generic_src_main_kinit.c.o
 .debug_line_str
                0x0000000000002be2      0x39b kernel/libinstrumentables.a.p/generic_src_main_main.c.o
 .debug_line_str
                0x0000000000002be2      0x294 kernel/libinstrumentables.a.p/generic_src_mm_as.c.o
 .debug_line_str
                0x0000000000002be2      0x1ee kernel/libinstrumentables.a.p/generic_src_mm_frame.c.o
 .debug_line_str
                0x0000000000002be2      0x140 kernel/libinstrumentables.a.p/generic_src_mm_page.c.o
 .debug_line_str
                0x0000000000002be2      0x16f kernel/libinstrumentables.a.p/generic_src_mm_slab.c.o
 .debug_line_str
                0x0000000000002be2      0x168 kernel/libinstrumentables.a.p/generic_src_mm_tlb.c.o
 .debug_line_str
                0x0000000000002be2       0xbb kernel/libinstrumentables.a.p/generic_src_proc_current.c.o
 .debug_line_str
                0x0000000000002be2      0x1a4 kernel/libinstrumentables.a.p/generic_src_sysinfo_sysinfo.c.o
 .debug_line_str
                0x0000000000002be2      0x1b4 kernel/libinstrumentables.a.p/generic_src_console_kconsole.c.o
 .debug_line_str
                0x0000000000002be2      0x52a kernel/libnoninstrumentables.a.p/arch_amd64_src_amd64.c.o
 .debug_line_str
                0x0000000000002be2       0x3f kernel/libnoninstrumentables.a.p/arch_amd64_src_asm.S.o
 .debug_line_str
                0x0000000000002be2       0xc4 kernel/libnoninstrumentables.a.p/arch_amd64_src_bios_bios.c.o
 .debug_line_str
                0x0000000000002be2       0xcc kernel/libnoninstrumentables.a.p/arch_amd64_src_boot_memmap.c.o
 .debug_line_str
                0x0000000000002be2       0x4b kernel/libnoninstrumentables.a.p/arch_amd64_src_boot_multiboot2.S.o
 .debug_line_str
                0x0000000000002be2       0x73 kernel/libnoninstrumentables.a.p/arch_amd64_src_boot_multiboot.S.o
 .debug_line_str
                0x0000000000002be2       0x43 kernel/libnoninstrumentables.a.p/arch_amd64_src_context.S.o
 .debug_line_str
                0x0000000000002be2       0xed kernel/libnoninstrumentables.a.p/arch_amd64_src_cpu_cpu.c.o
 .debug_line_str
                0x0000000000002be2      0x139 kernel/libnoninstrumentables.a.p/arch_amd64_src_ddi_ddi.c.o
 .debug_line_str
                0x0000000000002be2       0x50 kernel/libnoninstrumentables.a.p/arch_amd64_src_debug_stacktrace_asm.S.o
 .debug_line_str
                0x0000000000002be2       0xd3 kernel/libnoninstrumentables.a.p/arch_amd64_src_debug_stacktrace.c.o
 .debug_line_str
                0x0000000000002be2       0x41 kernel/libnoninstrumentables.a.p/arch_amd64_src_delay.S.o
 .debug_line_str
                0x0000000000002be2      0x199 kernel/libnoninstrumentables.a.p/arch_amd64_src_drivers_i8254.c.o
 .debug_line_str
                0x0000000000002be2       0x9c kernel/libnoninstrumentables.a.p/arch_amd64_src_fpu_context.c.o
 .debug_line_str
                0x0000000000002be2      0x216 kernel/libnoninstrumentables.a.p/arch_amd64_src_interrupt.c.o
 .debug_line_str
                0x0000000000002be2       0xfb kernel/libnoninstrumentables.a.p/arch_amd64_src_kseg.c.o
 .debug_line_str
                0x0000000000002be2       0xe2 kernel/libnoninstrumentables.a.p/arch_amd64_src_mm_as.c.o
 .debug_line_str
                0x0000000000002be2      0x126 kernel/libnoninstrumentables.a.p/arch_amd64_src_mm_frame.c.o
 .debug_line_str
                0x0000000000002be2       0xdf kernel/libnoninstrumentables.a.p/arch_amd64_src_mm_km.c.o
 .debug_line_str
                0x0000000000002be2      0x158 kernel/libnoninstrumentables.a.p/arch_amd64_src_mm_page.c.o
 .debug_line_str
                0x0000000000002be2       0xb7 kernel/libnoninstrumentables.a.p/arch_amd64_src_mm_tlb.c.o
 .debug_line_str
                0x0000000000002be2      0x131 kernel/libnoninstrumentables.a.p/arch_amd64_src_pm.c.o
 .debug_line_str
                0x0000000000002be2       0xfe kernel/libnoninstrumentables.a.p/arch_amd64_src_proc_scheduler.c.o
 .debug_line_str
                0x0000000000002be2       0xd5 kernel/libnoninstrumentables.a.p/arch_amd64_src_proc_task.c.o
 .debug_line_str
                0x0000000000002be2       0x97 kernel/libnoninstrumentables.a.p/arch_amd64_src_proc_thread.c.o
 .debug_line_str
                0x0000000000002be2       0xad kernel/libnoninstrumentables.a.p/arch_amd64_src_smc.c.o
 .debug_line_str
                0x0000000000002be2       0xbd kernel/libnoninstrumentables.a.p/arch_amd64_src_syscall.c.o
 .debug_line_str
                0x0000000000002be2       0xea kernel/libnoninstrumentables.a.p/arch_amd64_src_userspace.c.o
 .debug_line_str
                0x0000000000002be2      0x111 kernel/libnoninstrumentables.a.p/arch_amd64_src_vreg.c.o
 .debug_line_str
                0x0000000000002be2      0x1f4 kernel/libnoninstrumentables.a.p/arch_amd64_src_smp_apic.c.o
 .debug_line_str
                0x0000000000002be2       0x42 kernel/libnoninstrumentables.a.p/arch_amd64_src_smp_ap.S.o
 .debug_line_str
                0x0000000000002be2       0xbe kernel/libnoninstrumentables.a.p/arch_amd64_src_smp_ipi.c.o
 .debug_line_str
                0x0000000000002be2      0x12d kernel/libnoninstrumentables.a.p/arch_amd64_src_smp_mps.c.o
 .debug_line_str
                0x0000000000002be2      0x24f kernel/libnoninstrumentables.a.p/arch_amd64_src_smp_smp.c.o
 .debug_line_str
                0x0000000000002be2      0x14c kernel/libnoninstrumentables.a.p/genarch_src_acpi_acpi.c.o
 .debug_line_str
                0x0000000000002be2      0x14e kernel/libnoninstrumentables.a.p/genarch_src_acpi_madt.c.o
 .debug_line_str
                0x0000000000002be2      0x183 kernel/libnoninstrumentables.a.p/genarch_src_mm_page_pt.c.o
 .debug_line_str
                0x0000000000002be2      0x140 kernel/libnoninstrumentables.a.p/genarch_src_mm_as_pt.c.o
 .debug_line_str
                0x0000000000002be2       0xcc kernel/libnoninstrumentables.a.p/genarch_src_fb_font-8x16.c.o
 .debug_line_str
                0x0000000000002be2      0x1fb kernel/libnoninstrumentables.a.p/genarch_src_fb_fb.c.o
 .debug_line_str
                0x0000000000002be2      0x111 kernel/libnoninstrumentables.a.p/genarch_src_fb_bfb.c.o
 .debug_line_str
                0x0000000000002be2      0x19a kernel/libnoninstrumentables.a.p/genarch_src_drivers_i8042_i8042.c.o
 .debug_line_str
                0x0000000000002be2      0x10a kernel/libnoninstrumentables.a.p/genarch_src_drivers_i8259_i8259.c.o
 .debug_line_str
                0x0000000000002be2      0x184 kernel/libnoninstrumentables.a.p/genarch_src_drivers_ns16550_ns16550.c.o
 .debug_line_str
                0x0000000000002be2      0x198 kernel/libnoninstrumentables.a.p/genarch_src_drivers_pl011_pl011.c.o
 .debug_line_str
                0x0000000000002be2      0x194 kernel/libnoninstrumentables.a.p/genarch_src_kbrd_kbrd.c.o
 .debug_line_str
                0x0000000000002be2       0xcb kernel/libnoninstrumentables.a.p/genarch_src_kbrd_scanc_pc.c.o
 .debug_line_str
                0x0000000000002be2      0x130 kernel/libnoninstrumentables.a.p/genarch_src_srln_srln.c.o
 .debug_line_str
                0x0000000000002be2       0xc3 kernel/libnoninstrumentables.a.p/genarch_src_multiboot_common.c.o
 .debug_line_str
                0x0000000000002be2      0x15b kernel/libnoninstrumentables.a.p/genarch_src_multiboot_multiboot.c.o
 .debug_line_str
                0x0000000000002be2      0x171 kernel/libnoninstrumentables.a.p/genarch_src_multiboot_multiboot2.c.o
 .debug_line_str
                0x0000000000002be2      0x1fb kernel/libnoninstrumentables.a.p/genarch_src_drivers_ega_ega.c.o
 .debug_line_str
                0x0000000000002be2       0xdf kernel/libnoninstrumentables.a.p/genarch_src_ddi_ddi-bitmap.c.o
 .debug_line_str
                0x0000000000002be2       0xbc kernel/libnoninstrumentables.a.p/generic_common_adt_bitmap.c.o
 .debug_line_str
                0x0000000000002be2      0x10a kernel/libnoninstrumentables.a.p/generic_common_adt_hash_table.c.o
 .debug_line_str
                0x0000000000002be2       0xb1 kernel/libnoninstrumentables.a.p/generic_common_adt_list.c.o
 .debug_line_str
                0x0000000000002be2       0xe3 kernel/libnoninstrumentables.a.p/generic_common_adt_odict.c.o
 .debug_line_str
                0x0000000000002be2       0xc7 kernel/libnoninstrumentables.a.p/generic_common_printf_printf_core.c.o
 .debug_line_str
                0x0000000000002be2       0xb7 kernel/libnoninstrumentables.a.p/generic_common_stdc_calloc.c.o
 .debug_line_str
                0x0000000000002be2       0x94 kernel/libnoninstrumentables.a.p/generic_common_stdc_ctype.c.o
 .debug_line_str
                0x0000000000002be2       0x8e kernel/libnoninstrumentables.a.p/generic_common_stdc_mem.c.o
 .debug_line_str
                0x0000000000002be2       0xaa kernel/libnoninstrumentables.a.p/generic_common_gsort.c.o
 .debug_line_str
                0x0000000000002be2       0xd3 kernel/libnoninstrumentables.a.p/generic_common_str.c.o
 .debug_line_str
                0x0000000000002be2       0x96 kernel/libnoninstrumentables.a.p/generic_common_str_error.c.o
 .debug_line_str
                0x0000000000002be2       0xd3 kernel/libnoninstrumentables.a.p/generic_common_strtol.c.o
 .debug_line_str
                0x0000000000002be2      0x20b kernel/libnoninstrumentables.a.p/generic_src_cap_cap.c.o
 .debug_line_str
                0x0000000000002be2      0x15b kernel/libnoninstrumentables.a.p/generic_src_console_chardev.c.o
 .debug_line_str
                0x0000000000002be2      0x229 kernel/libnoninstrumentables.a.p/generic_src_console_console.c.o
 .debug_line_str
                0x0000000000002be2       0xf7 kernel/libnoninstrumentables.a.p/generic_src_console_prompt.c.o
 .debug_line_str
                0x0000000000002be2       0xc5 kernel/libnoninstrumentables.a.p/generic_src_cpu_cpu_mask.c.o
 .debug_line_str
                0x0000000000002be2      0x171 kernel/libnoninstrumentables.a.p/generic_src_ddi_irq.c.o
 .debug_line_str
                0x0000000000002be2       0xf7 kernel/libnoninstrumentables.a.p/generic_src_debug_line.c.o
 .debug_line_str
                0x0000000000002be2       0x90 kernel/libnoninstrumentables.a.p/generic_src_debug_names.c.o
 .debug_line_str
                0x0000000000002be2       0xdf kernel/libnoninstrumentables.a.p/generic_src_debug_panic.c.o
 .debug_line_str
                0x0000000000002be2      0x115 kernel/libnoninstrumentables.a.p/generic_src_debug_sections.c.o
 .debug_line_str
                0x0000000000002be2      0x143 kernel/libnoninstrumentables.a.p/generic_src_debug_stacktrace.c.o
 .debug_line_str
                0x0000000000002be2      0x125 kernel/libnoninstrumentables.a.p/generic_src_debug_symtab.c.o
 .debug_line_str
                0x0000000000002be2       0xf0 kernel/libnoninstrumentables.a.p/generic_src_debug_util.c.o
 .debug_line_str
                0x0000000000002be2      0x158 kernel/libnoninstrumentables.a.p/generic_src_ipc_event.c.o
 .debug_line_str
                0x0000000000002be2      0x25a kernel/libnoninstrumentables.a.p/generic_src_ipc_ipc.c.o
 .debug_line_str
                0x0000000000002be2      0x133 kernel/libnoninstrumentables.a.p/generic_src_ipc_ipcrsc.c.o
 .debug_line_str
                0x0000000000002be2      0x269 kernel/libnoninstrumentables.a.p/generic_src_ipc_irq.c.o
 .debug_line_str
                0x0000000000002be2      0x148 kernel/libnoninstrumentables.a.p/generic_src_ipc_ops_conctmeto.c.o
 .debug_line_str
                0x0000000000002be2      0x148 kernel/libnoninstrumentables.a.p/generic_src_ipc_ops_concttome.c.o
 .debug_line_str
                0x0000000000002be2      0x164 kernel/libnoninstrumentables.a.p/generic_src_ipc_ops_dataread.c.o
 .debug_line_str
                0x0000000000002be2      0x167 kernel/libnoninstrumentables.a.p/generic_src_ipc_ops_datawrite.c.o
 .debug_line_str
                0x0000000000002be2      0x147 kernel/libnoninstrumentables.a.p/generic_src_ipc_ops_debug.c.o
 .debug_line_str
                0x0000000000002be2      0x11a kernel/libnoninstrumentables.a.p/generic_src_ipc_ops_pagein.c.o
 .debug_line_str
                0x0000000000002be2      0x143 kernel/libnoninstrumentables.a.p/generic_src_ipc_ops_sharein.c.o
 .debug_line_str
                0x0000000000002be2      0x174 kernel/libnoninstrumentables.a.p/generic_src_ipc_ops_shareout.c.o
 .debug_line_str
                0x0000000000002be2      0x150 kernel/libnoninstrumentables.a.p/generic_src_ipc_ops_stchngath.c.o
 .debug_line_str
                0x0000000000002be2      0x24c kernel/libnoninstrumentables.a.p/generic_src_ipc_sysipc.c.o
 .debug_line_str
                0x0000000000002be2       0x9b kernel/libnoninstrumentables.a.p/generic_src_ipc_sysipc_ops.c.o
 .debug_line_str
                0x0000000000002be2       0xad kernel/libnoninstrumentables.a.p/generic_src_lib_elf.c.o
 .debug_line_str
                0x0000000000002be2      0x114 kernel/libnoninstrumentables.a.p/generic_src_lib_halt.c.o
 .debug_line_str
                0x0000000000002be2       0x86 kernel/libnoninstrumentables.a.p/generic_src_lib_mem.c.o
 .debug_line_str
                0x0000000000002be2      0x16b kernel/libnoninstrumentables.a.p/generic_src_lib_ra.c.o
 .debug_line_str
                0x0000000000002be2      0x10a kernel/libnoninstrumentables.a.p/generic_src_lib_rd.c.o
 .debug_line_str
                0x0000000000002be2       0xbb kernel/libnoninstrumentables.a.p/generic_src_lib_ubsan.c.o
 .debug_line_str
                0x0000000000002be2      0x19a kernel/libnoninstrumentables.a.p/generic_src_log_log.c.o
 .debug_line_str
                0x0000000000002be2       0xf5 kernel/libnoninstrumentables.a.p/generic_src_main_shutdown.c.o
 .debug_line_str
                0x0000000000002be2      0x108 kernel/libnoninstrumentables.a.p/generic_src_main_uinit.c.o
 .debug_line_str
                0x0000000000002be2       0xbb kernel/libnoninstrumentables.a.p/generic_src_main_version.c.o
 .debug_line_str
                0x0000000000002be2      0x13f kernel/libnoninstrumentables.a.p/generic_src_mm_backend_anon.c.o
 .debug_line_str
                0x0000000000002be2      0x146 kernel/libnoninstrumentables.a.p/generic_src_mm_backend_elf.c.o
 .debug_line_str
                0x0000000000002be2      0x172 kernel/libnoninstrumentables.a.p/generic_src_mm_backend_phys.c.o
 .debug_line_str
                0x0000000000002be2      0x1a0 kernel/libnoninstrumentables.a.p/generic_src_mm_backend_user.c.o
 .debug_line_str
                0x0000000000002be2      0x14d kernel/libnoninstrumentables.a.p/generic_src_mm_km.c.o
 .debug_line_str
                0x0000000000002be2       0xe6 kernel/libnoninstrumentables.a.p/generic_src_mm_malloc.c.o
 .debug_line_str
                0x0000000000002be2      0x118 kernel/libnoninstrumentables.a.p/generic_src_mm_reserve.c.o
 .debug_line_str
                0x0000000000002be2       0xbc kernel/libnoninstrumentables.a.p/generic_src_printf_printf.c.o
 .debug_line_str
                0x0000000000002be2       0xc2 kernel/libnoninstrumentables.a.p/generic_src_printf_snprintf.c.o
 .debug_line_str
                0x0000000000002be2      0x112 kernel/libnoninstrumentables.a.p/generic_src_printf_vprintf.c.o
 .debug_line_str
                0x0000000000002be2       0xef kernel/libnoninstrumentables.a.p/generic_src_printf_vsnprintf.c.o
 .debug_line_str
                0x0000000000002be2      0x20e kernel/libnoninstrumentables.a.p/generic_src_proc_program.c.o
 .debug_line_str
                0x0000000000002be2      0x20a kernel/libnoninstrumentables.a.p/generic_src_proc_scheduler.c.o
 .debug_line_str
                0x0000000000002be2      0x2bf kernel/libnoninstrumentables.a.p/generic_src_proc_task.c.o
 .debug_line_str
                0x0000000000002be2      0x340 kernel/libnoninstrumentables.a.p/generic_src_proc_thread.c.o
 .debug_line_str
                0x0000000000002be2       0xee kernel/libnoninstrumentables.a.p/generic_src_security_perm.c.o
 .debug_line_str
                0x0000000000002be2       0xd7 kernel/libnoninstrumentables.a.p/generic_src_smp_ipi.c.o
 .debug_line_str
                0x0000000000002be2       0xaf kernel/libnoninstrumentables.a.p/generic_src_smp_smp.c.o
 .debug_line_str
                0x0000000000002be2       0xd6 kernel/libnoninstrumentables.a.p/generic_src_synch_condvar.c.o
 .debug_line_str
                0x0000000000002be2      0x129 kernel/libnoninstrumentables.a.p/generic_src_synch_irq_spinlock.c.o
 .debug_line_str
                0x0000000000002be2       0xfd kernel/libnoninstrumentables.a.p/generic_src_synch_mutex.c.o
 .debug_line_str
                0x0000000000002be2       0xf0 kernel/libnoninstrumentables.a.p/generic_src_synch_semaphore.c.o
 .debug_line_str
                0x0000000000002be2       0xbc kernel/libnoninstrumentables.a.p/generic_src_synch_smc.c.o
 .debug_line_str
                0x0000000000002be2      0x115 kernel/libnoninstrumentables.a.p/generic_src_synch_spinlock.c.o
 .debug_line_str
                0x0000000000002be2      0x180 kernel/libnoninstrumentables.a.p/generic_src_synch_syswaitq.c.o
 .debug_line_str
                0x0000000000002be2      0x198 kernel/libnoninstrumentables.a.p/generic_src_synch_waitq.c.o
 .debug_line_str
                0x0000000000002be2      0x11c kernel/libnoninstrumentables.a.p/generic_src_syscall_copy.c.o
 .debug_line_str
                0x0000000000002be2      0x2b7 kernel/libnoninstrumentables.a.p/generic_src_syscall_syscall.c.o
 .debug_line_str
                0x0000000000002be2      0x233 kernel/libnoninstrumentables.a.p/generic_src_sysinfo_stats.c.o
 .debug_line_str
                0x0000000000002be2      0x25e kernel/libnoninstrumentables.a.p/generic_src_time_clock.c.o
 .debug_line_str
                0x0000000000002be2       0xe8 kernel/libnoninstrumentables.a.p/generic_src_time_delay.c.o
 .debug_line_str
                0x0000000000002be2      0x13a kernel/libnoninstrumentables.a.p/generic_src_time_timeout.c.o
 .debug_line_str
                0x0000000000002be2      0x351 kernel/libnoninstrumentables.a.p/generic_src_console_cmd.c.o
 .debug_line_str
                0x0000000000002be2      0x1f7 kernel/libnoninstrumentables.a.p/generic_src_ipc_kbox.c.o
 .debug_line_str
                0x0000000000002be2      0x17b kernel/libnoninstrumentables.a.p/generic_src_udebug_udebug.c.o
 .debug_line_str
                0x0000000000002be2      0x20d kernel/libnoninstrumentables.a.p/generic_src_udebug_udebug_ops.c.o
 .debug_line_str
                0x0000000000002be2      0x16d kernel/libnoninstrumentables.a.p/generic_src_udebug_udebug_ipc.c.o
 .debug_line_str
                0x0000000000002be2       0x97 kernel/libnoninstrumentables.a.p/test_test.c.o
 .debug_line_str
                0x0000000000002be2       0x8a kernel/libnoninstrumentables.a.p/test_atomic_atomic1.c.o
 .debug_line_str
                0x0000000000002be2       0x85 kernel/libnoninstrumentables.a.p/test_fault_fault1.c.o
 .debug_line_str
                0x0000000000002be2      0x10e kernel/libnoninstrumentables.a.p/test_mm_falloc1.c.o
 .debug_line_str
                0x0000000000002be2      0x142 kernel/libnoninstrumentables.a.p/test_mm_falloc2.c.o
 .debug_line_str
                0x0000000000002be2       0xf6 kernel/libnoninstrumentables.a.p/test_mm_mapping1.c.o
 .debug_line_str
                0x0000000000002be2      0x11b kernel/libnoninstrumentables.a.p/test_mm_slab1.c.o
 .debug_line_str
                0x0000000000002be2      0x152 kernel/libnoninstrumentables.a.p/test_mm_slab2.c.o
 .debug_line_str
                0x0000000000002be2      0x139 kernel/libnoninstrumentables.a.p/test_synch_semaphore1.c.o
 .debug_line_str
                0x0000000000002be2      0x144 kernel/libnoninstrumentables.a.p/test_synch_semaphore2.c.o
 .debug_line_str
                0x0000000000002be2       0xc7 kernel/libnoninstrumentables.a.p/test_print_print1.c.o
 .debug_line_str
                0x0000000000002be2       0xc7 kernel/libnoninstrumentables.a.p/test_print_print2.c.o
 .debug_line_str
                0x0000000000002be2       0xc7 kernel/libnoninstrumentables.a.p/test_print_print3.c.o
 .debug_line_str
                0x0000000000002be2       0xc7 kernel/libnoninstrumentables.a.p/test_print_print4.c.o
 .debug_line_str
                0x0000000000002be2       0xc7 kernel/libnoninstrumentables.a.p/test_print_print5.c.o
 .debug_line_str
                0x0000000000002be2       0xf9 kernel/libnoninstrumentables.a.p/test_thread_thread1.c.o
 .debug_line_str
                0x0000000000002be2       0x91 kernel/libnoninstrumentables.a.p/test_debug_mips1_skip.c.o
 .debug_line_str
                0x0000000000002be2       0x8e kernel/libnoninstrumentables.a.p/test_mm_purge1_skip.c.o

.debug_loc
 *(.debug_loc)

.debug_loclists
 *(.debug_loclists)

.debug_loclists.dwo
 *(.debug_loclists.dwo)

.debug_macinfo
 *(.debug_macinfo)

.debug_macro
 *(.debug_macro)

.debug_macro.dwo
 *(.debug_macro.dwo)

.debug_names
 *(.debug_names)

.debug_pubnames
 *(.debug_pubnames)

.debug_pubtypes
 *(.debug_pubtypes)

.debug_ranges
 *(.debug_ranges)

.debug_rnglists
                0x0000000000000000     0x9086
 *(.debug_rnglists)
 .debug_rnglists
                0x0000000000000000       0x45 kernel/libinstrumentables.a.p/generic_src_cpu_cpu.c.o
 .debug_rnglists
                0x0000000000000045      0x14f kernel/libinstrumentables.a.p/generic_src_ddi_ddi.c.o
 .debug_rnglists
                0x0000000000000194       0x9f kernel/libinstrumentables.a.p/generic_src_interrupt_interrupt.c.o
 .debug_rnglists
                0x0000000000000233       0x18 kernel/libinstrumentables.a.p/generic_src_main_kinit.c.o
 .debug_rnglists
                0x000000000000024b       0xc6 kernel/libinstrumentables.a.p/generic_src_main_main.c.o
 .debug_rnglists
                0x0000000000000311      0x657 kernel/libinstrumentables.a.p/generic_src_mm_as.c.o
 .debug_rnglists
                0x0000000000000968      0x4e8 kernel/libinstrumentables.a.p/generic_src_mm_frame.c.o
 .debug_rnglists
                0x0000000000000e50       0xab kernel/libinstrumentables.a.p/generic_src_mm_page.c.o
 .debug_rnglists
                0x0000000000000efb      0x412 kernel/libinstrumentables.a.p/generic_src_mm_slab.c.o
 .debug_rnglists
                0x000000000000130d       0x41 kernel/libinstrumentables.a.p/generic_src_mm_tlb.c.o
 .debug_rnglists
                0x000000000000134e       0x22 kernel/libinstrumentables.a.p/generic_src_proc_current.c.o
 .debug_rnglists
                0x0000000000001370      0x2f0 kernel/libinstrumentables.a.p/generic_src_sysinfo_sysinfo.c.o
 .debug_rnglists
                0x0000000000001660      0x1aa kernel/libinstrumentables.a.p/generic_src_console_kconsole.c.o
 .debug_rnglists
                0x000000000000180a       0xd3 kernel/libnoninstrumentables.a.p/arch_amd64_src_amd64.c.o
 .debug_rnglists
                0x00000000000018dd       0x17 kernel/libnoninstrumentables.a.p/arch_amd64_src_bios_bios.c.o
 .debug_rnglists
                0x00000000000018f4       0x4a kernel/libnoninstrumentables.a.p/arch_amd64_src_cpu_cpu.c.o
 .debug_rnglists
                0x000000000000193e       0x18 kernel/libnoninstrumentables.a.p/arch_amd64_src_ddi_ddi.c.o
 .debug_rnglists
                0x0000000000001956       0x49 kernel/libnoninstrumentables.a.p/arch_amd64_src_debug_stacktrace.c.o
 .debug_rnglists
                0x000000000000199f       0xd0 kernel/libnoninstrumentables.a.p/arch_amd64_src_drivers_i8254.c.o
 .debug_rnglists
                0x0000000000001a6f       0x2b kernel/libnoninstrumentables.a.p/arch_amd64_src_fpu_context.c.o
 .debug_rnglists
                0x0000000000001a9a       0x76 kernel/libnoninstrumentables.a.p/arch_amd64_src_interrupt.c.o
 .debug_rnglists
                0x0000000000001b10       0x3d kernel/libnoninstrumentables.a.p/arch_amd64_src_kseg.c.o
 .debug_rnglists
                0x0000000000001b4d       0x17 kernel/libnoninstrumentables.a.p/arch_amd64_src_mm_as.c.o
 .debug_rnglists
                0x0000000000001b64       0x36 kernel/libnoninstrumentables.a.p/arch_amd64_src_mm_frame.c.o
 .debug_rnglists
                0x0000000000001b9a       0x3e kernel/libnoninstrumentables.a.p/arch_amd64_src_mm_km.c.o
 .debug_rnglists
                0x0000000000001bd8       0x32 kernel/libnoninstrumentables.a.p/arch_amd64_src_mm_page.c.o
 .debug_rnglists
                0x0000000000001c0a       0x3f kernel/libnoninstrumentables.a.p/arch_amd64_src_mm_tlb.c.o
 .debug_rnglists
                0x0000000000001c49      0x40b kernel/libnoninstrumentables.a.p/arch_amd64_src_pm.c.o
 .debug_rnglists
                0x0000000000002054       0x3b kernel/libnoninstrumentables.a.p/arch_amd64_src_proc_scheduler.c.o
 .debug_rnglists
                0x000000000000208f       0x21 kernel/libnoninstrumentables.a.p/arch_amd64_src_proc_task.c.o
 .debug_rnglists
                0x00000000000020b0       0x17 kernel/libnoninstrumentables.a.p/arch_amd64_src_proc_thread.c.o
 .debug_rnglists
                0x00000000000020c7       0x17 kernel/libnoninstrumentables.a.p/arch_amd64_src_smc.c.o
 .debug_rnglists
                0x00000000000020de       0x37 kernel/libnoninstrumentables.a.p/arch_amd64_src_syscall.c.o
 .debug_rnglists
                0x0000000000002115       0x21 kernel/libnoninstrumentables.a.p/arch_amd64_src_userspace.c.o
 .debug_rnglists
                0x0000000000002136       0x17 kernel/libnoninstrumentables.a.p/arch_amd64_src_vreg.c.o
 .debug_rnglists
                0x000000000000214d      0x1b6 kernel/libnoninstrumentables.a.p/arch_amd64_src_smp_apic.c.o
 .debug_rnglists
                0x0000000000002303       0x17 kernel/libnoninstrumentables.a.p/arch_amd64_src_smp_ipi.c.o
 .debug_rnglists
                0x000000000000231a       0xbe kernel/libnoninstrumentables.a.p/arch_amd64_src_smp_mps.c.o
 .debug_rnglists
                0x00000000000023d8       0x4f kernel/libnoninstrumentables.a.p/arch_amd64_src_smp_smp.c.o
 .debug_rnglists
                0x0000000000002427      0x113 kernel/libnoninstrumentables.a.p/genarch_src_acpi_acpi.c.o
 .debug_rnglists
                0x000000000000253a       0x9d kernel/libnoninstrumentables.a.p/genarch_src_acpi_madt.c.o
 .debug_rnglists
                0x00000000000025d7       0xe5 kernel/libnoninstrumentables.a.p/genarch_src_mm_page_pt.c.o
 .debug_rnglists
                0x00000000000026bc       0x40 kernel/libnoninstrumentables.a.p/genarch_src_mm_as_pt.c.o
 .debug_rnglists
                0x00000000000026fc       0x18 kernel/libnoninstrumentables.a.p/genarch_src_fb_font-8x16.c.o
 .debug_rnglists
                0x0000000000002714      0x18f kernel/libnoninstrumentables.a.p/genarch_src_fb_fb.c.o
 .debug_rnglists
                0x00000000000028a3       0x18 kernel/libnoninstrumentables.a.p/genarch_src_fb_bfb.c.o
 .debug_rnglists
                0x00000000000028bb      0x13c kernel/libnoninstrumentables.a.p/genarch_src_drivers_i8042_i8042.c.o
 .debug_rnglists
                0x00000000000029f7      0x29e kernel/libnoninstrumentables.a.p/genarch_src_drivers_i8259_i8259.c.o
 .debug_rnglists
                0x0000000000002c95      0x300 kernel/libnoninstrumentables.a.p/genarch_src_drivers_ns16550_ns16550.c.o
 .debug_rnglists
                0x0000000000002f95      0x10e kernel/libnoninstrumentables.a.p/genarch_src_drivers_pl011_pl011.c.o
 .debug_rnglists
                0x00000000000030a3       0x65 kernel/libnoninstrumentables.a.p/genarch_src_kbrd_kbrd.c.o
 .debug_rnglists
                0x0000000000003108       0x2e kernel/libnoninstrumentables.a.p/genarch_src_srln_srln.c.o
 .debug_rnglists
                0x0000000000003136       0x17 kernel/libnoninstrumentables.a.p/genarch_src_multiboot_common.c.o
 .debug_rnglists
                0x000000000000314d       0x89 kernel/libnoninstrumentables.a.p/genarch_src_multiboot_multiboot.c.o
 .debug_rnglists
                0x00000000000031d6       0x4a kernel/libnoninstrumentables.a.p/genarch_src_multiboot_multiboot2.c.o
 .debug_rnglists
                0x0000000000003220      0x380 kernel/libnoninstrumentables.a.p/genarch_src_drivers_ega_ega.c.o
 .debug_rnglists
                0x00000000000035a0       0x22 kernel/libnoninstrumentables.a.p/genarch_src_ddi_ddi-bitmap.c.o
 .debug_rnglists
                0x00000000000035c2       0x80 kernel/libnoninstrumentables.a.p/generic_common_adt_bitmap.c.o
 .debug_rnglists
                0x0000000000003642      0x248 kernel/libnoninstrumentables.a.p/generic_common_adt_hash_table.c.o
 .debug_rnglists
                0x000000000000388a       0x4b kernel/libnoninstrumentables.a.p/generic_common_adt_list.c.o
 .debug_rnglists
                0x00000000000038d5      0x6bc kernel/libnoninstrumentables.a.p/generic_common_adt_odict.c.o
 .debug_rnglists
                0x0000000000003f91      0x2ea kernel/libnoninstrumentables.a.p/generic_common_printf_printf_core.c.o
 .debug_rnglists
                0x000000000000427b       0x17 kernel/libnoninstrumentables.a.p/generic_common_stdc_calloc.c.o
 .debug_rnglists
                0x0000000000004292      0x10e kernel/libnoninstrumentables.a.p/generic_common_stdc_ctype.c.o
 .debug_rnglists
                0x00000000000043a0       0x55 kernel/libnoninstrumentables.a.p/generic_common_stdc_mem.c.o
 .debug_rnglists
                0x00000000000043f5       0x2e kernel/libnoninstrumentables.a.p/generic_common_gsort.c.o
 .debug_rnglists
                0x0000000000004423      0x8ba kernel/libnoninstrumentables.a.p/generic_common_str.c.o
 .debug_rnglists
                0x0000000000004cdd       0x21 kernel/libnoninstrumentables.a.p/generic_common_str_error.c.o
 .debug_rnglists
                0x0000000000004cfe      0x307 kernel/libnoninstrumentables.a.p/generic_common_strtol.c.o
 .debug_rnglists
                0x0000000000005005      0x1fe kernel/libnoninstrumentables.a.p/generic_src_cap_cap.c.o
 .debug_rnglists
                0x0000000000005203       0x5b kernel/libnoninstrumentables.a.p/generic_src_console_chardev.c.o
 .debug_rnglists
                0x000000000000525e      0x16b kernel/libnoninstrumentables.a.p/generic_src_console_console.c.o
 .debug_rnglists
                0x00000000000053c9       0x23 kernel/libnoninstrumentables.a.p/generic_src_console_prompt.c.o
 .debug_rnglists
                0x00000000000053ec       0xc8 kernel/libnoninstrumentables.a.p/generic_src_cpu_cpu_mask.c.o
 .debug_rnglists
                0x00000000000054b4       0xac kernel/libnoninstrumentables.a.p/generic_src_ddi_irq.c.o
 .debug_rnglists
                0x0000000000005560      0x5ef kernel/libnoninstrumentables.a.p/generic_src_debug_line.c.o
 .debug_rnglists
                0x0000000000005b4f      0x111 kernel/libnoninstrumentables.a.p/generic_src_debug_names.c.o
 .debug_rnglists
                0x0000000000005c60       0x18 kernel/libnoninstrumentables.a.p/generic_src_debug_panic.c.o
 .debug_rnglists
                0x0000000000005c78       0x52 kernel/libnoninstrumentables.a.p/generic_src_debug_sections.c.o
 .debug_rnglists
                0x0000000000005cca       0x52 kernel/libnoninstrumentables.a.p/generic_src_debug_stacktrace.c.o
 .debug_rnglists
                0x0000000000005d1c      0x172 kernel/libnoninstrumentables.a.p/generic_src_debug_symtab.c.o
 .debug_rnglists
                0x0000000000005e8e      0x110 kernel/libnoninstrumentables.a.p/generic_src_debug_util.c.o
 .debug_rnglists
                0x0000000000005f9e      0x18f kernel/libnoninstrumentables.a.p/generic_src_ipc_event.c.o
 .debug_rnglists
                0x000000000000612d      0x52f kernel/libnoninstrumentables.a.p/generic_src_ipc_ipc.c.o
 .debug_rnglists
                0x000000000000665c       0x2c kernel/libnoninstrumentables.a.p/generic_src_ipc_ipcrsc.c.o
 .debug_rnglists
                0x0000000000006688      0x1d6 kernel/libnoninstrumentables.a.p/generic_src_ipc_irq.c.o
 .debug_rnglists
                0x000000000000685e       0x46 kernel/libnoninstrumentables.a.p/generic_src_ipc_ops_conctmeto.c.o
 .debug_rnglists
                0x00000000000068a4       0x3c kernel/libnoninstrumentables.a.p/generic_src_ipc_ops_concttome.c.o
 .debug_rnglists
                0x00000000000068e0       0x2c kernel/libnoninstrumentables.a.p/generic_src_ipc_ops_dataread.c.o
 .debug_rnglists
                0x000000000000690c       0x23 kernel/libnoninstrumentables.a.p/generic_src_ipc_ops_datawrite.c.o
 .debug_rnglists
                0x000000000000692f       0x21 kernel/libnoninstrumentables.a.p/generic_src_ipc_ops_debug.c.o
 .debug_rnglists
                0x0000000000006950       0x38 kernel/libnoninstrumentables.a.p/generic_src_ipc_ops_pagein.c.o
 .debug_rnglists
                0x0000000000006988       0x54 kernel/libnoninstrumentables.a.p/generic_src_ipc_ops_sharein.c.o
 .debug_rnglists
                0x00000000000069dc       0x4f kernel/libnoninstrumentables.a.p/generic_src_ipc_ops_shareout.c.o
 .debug_rnglists
                0x0000000000006a2b       0x59 kernel/libnoninstrumentables.a.p/generic_src_ipc_ops_stchngath.c.o
 .debug_rnglists
                0x0000000000006a84      0x2c7 kernel/libnoninstrumentables.a.p/generic_src_ipc_sysipc.c.o
 .debug_rnglists
                0x0000000000006d4b       0x53 kernel/libnoninstrumentables.a.p/generic_src_ipc_sysipc_ops.c.o
 .debug_rnglists
                0x0000000000006d9e       0x30 kernel/libnoninstrumentables.a.p/generic_src_lib_elf.c.o
 .debug_rnglists
                0x0000000000006dce       0x38 kernel/libnoninstrumentables.a.p/generic_src_lib_halt.c.o
 .debug_rnglists
                0x0000000000006e06       0x22 kernel/libnoninstrumentables.a.p/generic_src_lib_mem.c.o
 .debug_rnglists
                0x0000000000006e28      0x3cd kernel/libnoninstrumentables.a.p/generic_src_lib_ra.c.o
 .debug_rnglists
                0x00000000000071f5       0x18 kernel/libnoninstrumentables.a.p/generic_src_lib_rd.c.o
 .debug_rnglists
                0x000000000000720d       0xd5 kernel/libnoninstrumentables.a.p/generic_src_lib_ubsan.c.o
 .debug_rnglists
                0x00000000000072e2      0x126 kernel/libnoninstrumentables.a.p/generic_src_log_log.c.o
 .debug_rnglists
                0x0000000000007408       0x17 kernel/libnoninstrumentables.a.p/generic_src_main_shutdown.c.o
 .debug_rnglists
                0x000000000000741f       0x17 kernel/libnoninstrumentables.a.p/generic_src_main_uinit.c.o
 .debug_rnglists
                0x0000000000007436       0x17 kernel/libnoninstrumentables.a.p/generic_src_main_version.c.o
 .debug_rnglists
                0x000000000000744d       0x60 kernel/libnoninstrumentables.a.p/generic_src_mm_backend_anon.c.o
 .debug_rnglists
                0x00000000000074ad       0xbd kernel/libnoninstrumentables.a.p/generic_src_mm_backend_elf.c.o
 .debug_rnglists
                0x000000000000756a       0x71 kernel/libnoninstrumentables.a.p/generic_src_mm_backend_phys.c.o
 .debug_rnglists
                0x00000000000075db       0x6b kernel/libnoninstrumentables.a.p/generic_src_mm_backend_user.c.o
 .debug_rnglists
                0x0000000000007646      0x131 kernel/libnoninstrumentables.a.p/generic_src_mm_km.c.o
 .debug_rnglists
                0x0000000000007777      0x1c7 kernel/libnoninstrumentables.a.p/generic_src_mm_malloc.c.o
 .debug_rnglists
                0x000000000000793e       0x36 kernel/libnoninstrumentables.a.p/generic_src_mm_reserve.c.o
 .debug_rnglists
                0x0000000000007974       0x17 kernel/libnoninstrumentables.a.p/generic_src_printf_printf.c.o
 .debug_rnglists
                0x000000000000798b       0x17 kernel/libnoninstrumentables.a.p/generic_src_printf_snprintf.c.o
 .debug_rnglists
                0x00000000000079a2       0x35 kernel/libnoninstrumentables.a.p/generic_src_printf_vprintf.c.o
 .debug_rnglists
                0x00000000000079d7       0x2d kernel/libnoninstrumentables.a.p/generic_src_printf_vsnprintf.c.o
 .debug_rnglists
                0x0000000000007a04       0x43 kernel/libnoninstrumentables.a.p/generic_src_proc_program.c.o
 .debug_rnglists
                0x0000000000007a47      0x256 kernel/libnoninstrumentables.a.p/generic_src_proc_scheduler.c.o
 .debug_rnglists
                0x0000000000007c9d      0x251 kernel/libnoninstrumentables.a.p/generic_src_proc_task.c.o
 .debug_rnglists
                0x0000000000007eee      0x318 kernel/libnoninstrumentables.a.p/generic_src_proc_thread.c.o
 .debug_rnglists
                0x0000000000008206       0x66 kernel/libnoninstrumentables.a.p/generic_src_security_perm.c.o
 .debug_rnglists
                0x000000000000826c       0x17 kernel/libnoninstrumentables.a.p/generic_src_smp_ipi.c.o
 .debug_rnglists
                0x0000000000008283       0x54 kernel/libnoninstrumentables.a.p/generic_src_synch_condvar.c.o
 .debug_rnglists
                0x00000000000082d7       0xae kernel/libnoninstrumentables.a.p/generic_src_synch_irq_spinlock.c.o
 .debug_rnglists
                0x0000000000008385       0x7e kernel/libnoninstrumentables.a.p/generic_src_synch_mutex.c.o
 .debug_rnglists
                0x0000000000008403       0x59 kernel/libnoninstrumentables.a.p/generic_src_synch_semaphore.c.o
 .debug_rnglists
                0x000000000000845c       0x3a kernel/libnoninstrumentables.a.p/generic_src_synch_smc.c.o
 .debug_rnglists
                0x0000000000008496       0x54 kernel/libnoninstrumentables.a.p/generic_src_synch_spinlock.c.o
 .debug_rnglists
                0x00000000000084ea       0x5e kernel/libnoninstrumentables.a.p/generic_src_synch_syswaitq.c.o
 .debug_rnglists
                0x0000000000008548      0x1a1 kernel/libnoninstrumentables.a.p/generic_src_synch_waitq.c.o
 .debug_rnglists
                0x00000000000086e9       0x4d kernel/libnoninstrumentables.a.p/generic_src_syscall_copy.c.o
 .debug_rnglists
                0x0000000000008736       0x18 kernel/libnoninstrumentables.a.p/generic_src_syscall_syscall.c.o
 .debug_rnglists
                0x000000000000874e       0xe7 kernel/libnoninstrumentables.a.p/generic_src_sysinfo_stats.c.o
 .debug_rnglists
                0x0000000000008835       0x8d kernel/libnoninstrumentables.a.p/generic_src_time_clock.c.o
 .debug_rnglists
                0x00000000000088c2       0x17 kernel/libnoninstrumentables.a.p/generic_src_time_delay.c.o
 .debug_rnglists
                0x00000000000088d9       0x8d kernel/libnoninstrumentables.a.p/generic_src_time_timeout.c.o
 .debug_rnglists
                0x0000000000008966      0x270 kernel/libnoninstrumentables.a.p/generic_src_console_cmd.c.o
 .debug_rnglists
                0x0000000000008bd6       0x41 kernel/libnoninstrumentables.a.p/generic_src_ipc_kbox.c.o
 .debug_rnglists
                0x0000000000008c17       0x77 kernel/libnoninstrumentables.a.p/generic_src_udebug_udebug.c.o
 .debug_rnglists
                0x0000000000008c8e      0x109 kernel/libnoninstrumentables.a.p/generic_src_udebug_udebug_ops.c.o
 .debug_rnglists
                0x0000000000008d97       0x76 kernel/libnoninstrumentables.a.p/generic_src_udebug_udebug_ipc.c.o
 .debug_rnglists
                0x0000000000008e0d       0x18 kernel/libnoninstrumentables.a.p/test_test.c.o
 .debug_rnglists
                0x0000000000008e25       0x18 kernel/libnoninstrumentables.a.p/test_atomic_atomic1.c.o
 .debug_rnglists
                0x0000000000008e3d       0x17 kernel/libnoninstrumentables.a.p/test_fault_fault1.c.o
 .debug_rnglists
                0x0000000000008e54       0x18 kernel/libnoninstrumentables.a.p/test_mm_falloc1.c.o
 .debug_rnglists
                0x0000000000008e6c       0x23 kernel/libnoninstrumentables.a.p/test_mm_falloc2.c.o
 .debug_rnglists
                0x0000000000008e8f       0x18 kernel/libnoninstrumentables.a.p/test_mm_mapping1.c.o
 .debug_rnglists
                0x0000000000008ea7       0x8f kernel/libnoninstrumentables.a.p/test_mm_slab1.c.o
 .debug_rnglists
                0x0000000000008f36       0x39 kernel/libnoninstrumentables.a.p/test_mm_slab2.c.o
 .debug_rnglists
                0x0000000000008f6f       0x2c kernel/libnoninstrumentables.a.p/test_synch_semaphore1.c.o
 .debug_rnglists
                0x0000000000008f9b       0x23 kernel/libnoninstrumentables.a.p/test_synch_semaphore2.c.o
 .debug_rnglists
                0x0000000000008fbe       0x18 kernel/libnoninstrumentables.a.p/test_print_print1.c.o
 .debug_rnglists
                0x0000000000008fd6       0x18 kernel/libnoninstrumentables.a.p/test_print_print2.c.o
 .debug_rnglists
                0x0000000000008fee       0x18 kernel/libnoninstrumentables.a.p/test_print_print3.c.o
 .debug_rnglists
                0x0000000000009006       0x18 kernel/libnoninstrumentables.a.p/test_print_print4.c.o
 .debug_rnglists
                0x000000000000901e       0x18 kernel/libnoninstrumentables.a.p/test_print_print5.c.o
 .debug_rnglists
                0x0000000000009036       0x22 kernel/libnoninstrumentables.a.p/test_thread_thread1.c.o
 .debug_rnglists
                0x0000000000009058       0x17 kernel/libnoninstrumentables.a.p/test_debug_mips1_skip.c.o
 .debug_rnglists
                0x000000000000906f       0x17 kernel/libnoninstrumentables.a.p/test_mm_purge1_skip.c.o

.debug_str      0x0000000000000000     0x5a69
 *(.debug_str)
 .debug_str     0x0000000000000000     0x5a69 kernel/libinstrumentables.a.p/generic_src_cpu_cpu.c.o
                                        0x20d (size before relaxing)
 .debug_str     0x0000000000005a69      0x429 kernel/libinstrumentables.a.p/generic_src_ddi_ddi.c.o
 .debug_str     0x0000000000005a69      0x336 kernel/libinstrumentables.a.p/generic_src_interrupt_interrupt.c.o
 .debug_str     0x0000000000005a69      0x367 kernel/libinstrumentables.a.p/generic_src_main_kinit.c.o
 .debug_str     0x0000000000005a69      0x4ba kernel/libinstrumentables.a.p/generic_src_main_main.c.o
 .debug_str     0x0000000000005a69      0x935 kernel/libinstrumentables.a.p/generic_src_mm_as.c.o
 .debug_str     0x0000000000005a69      0x608 kernel/libinstrumentables.a.p/generic_src_mm_frame.c.o
 .debug_str     0x0000000000005a69      0x281 kernel/libinstrumentables.a.p/generic_src_mm_page.c.o
 .debug_str     0x0000000000005a69      0x494 kernel/libinstrumentables.a.p/generic_src_mm_slab.c.o
 .debug_str     0x0000000000005a69      0x2aa kernel/libinstrumentables.a.p/generic_src_mm_tlb.c.o
 .debug_str     0x0000000000005a69      0x18f kernel/libinstrumentables.a.p/generic_src_proc_current.c.o
 .debug_str     0x0000000000005a69      0x42e kernel/libinstrumentables.a.p/generic_src_sysinfo_sysinfo.c.o
 .debug_str     0x0000000000005a69      0x3c7 kernel/libinstrumentables.a.p/generic_src_console_kconsole.c.o
 .debug_str     0x0000000000005a69      0x4a3 kernel/libnoninstrumentables.a.p/arch_amd64_src_amd64.c.o
 .debug_str     0x0000000000005a69       0xa3 kernel/libnoninstrumentables.a.p/arch_amd64_src_asm.S.o
 .debug_str     0x0000000000005a69      0x171 kernel/libnoninstrumentables.a.p/arch_amd64_src_bios_bios.c.o
 .debug_str     0x0000000000005a69      0x178 kernel/libnoninstrumentables.a.p/arch_amd64_src_boot_memmap.c.o
 .debug_str     0x0000000000005a69       0x57 kernel/libnoninstrumentables.a.p/arch_amd64_src_boot_multiboot2.S.o
 .debug_str     0x0000000000005a69       0x56 kernel/libnoninstrumentables.a.p/arch_amd64_src_boot_multiboot.S.o
 .debug_str     0x0000000000005a69       0x76 kernel/libnoninstrumentables.a.p/arch_amd64_src_context.S.o
 .debug_str     0x0000000000005a69      0x1f6 kernel/libnoninstrumentables.a.p/arch_amd64_src_cpu_cpu.c.o
 .debug_str     0x0000000000005a69      0x215 kernel/libnoninstrumentables.a.p/arch_amd64_src_ddi_ddi.c.o
 .debug_str     0x0000000000005a69       0x82 kernel/libnoninstrumentables.a.p/arch_amd64_src_debug_stacktrace_asm.S.o
 .debug_str     0x0000000000005a69      0x223 kernel/libnoninstrumentables.a.p/arch_amd64_src_debug_stacktrace.c.o
 .debug_str     0x0000000000005a69       0x6a kernel/libnoninstrumentables.a.p/arch_amd64_src_delay.S.o
 .debug_str     0x0000000000005a69      0x26e kernel/libnoninstrumentables.a.p/arch_amd64_src_drivers_i8254.c.o
 .debug_str     0x0000000000005a69      0x190 kernel/libnoninstrumentables.a.p/arch_amd64_src_fpu_context.c.o
 .debug_str     0x0000000000005a69      0x2b9 kernel/libnoninstrumentables.a.p/arch_amd64_src_interrupt.c.o
 .debug_str     0x0000000000005a69      0x193 kernel/libnoninstrumentables.a.p/arch_amd64_src_kseg.c.o
 .debug_str     0x0000000000005a69      0x18e kernel/libnoninstrumentables.a.p/arch_amd64_src_mm_as.c.o
 .debug_str     0x0000000000005a69      0x230 kernel/libnoninstrumentables.a.p/arch_amd64_src_mm_frame.c.o
 .debug_str     0x0000000000005a69      0x1d3 kernel/libnoninstrumentables.a.p/arch_amd64_src_mm_km.c.o
 .debug_str     0x0000000000005a69      0x22c kernel/libnoninstrumentables.a.p/arch_amd64_src_mm_page.c.o
 .debug_str     0x0000000000005a69      0x1d0 kernel/libnoninstrumentables.a.p/arch_amd64_src_mm_tlb.c.o
 .debug_str     0x0000000000005a69      0x3ca kernel/libnoninstrumentables.a.p/arch_amd64_src_pm.c.o
 .debug_str     0x0000000000005a69      0x1c6 kernel/libnoninstrumentables.a.p/arch_amd64_src_proc_scheduler.c.o
 .debug_str     0x0000000000005a69      0x19c kernel/libnoninstrumentables.a.p/arch_amd64_src_proc_task.c.o
 .debug_str     0x0000000000005a69      0x175 kernel/libnoninstrumentables.a.p/arch_amd64_src_proc_thread.c.o
 .debug_str     0x0000000000005a69      0x181 kernel/libnoninstrumentables.a.p/arch_amd64_src_smc.c.o
 .debug_str     0x0000000000005a69      0x195 kernel/libnoninstrumentables.a.p/arch_amd64_src_syscall.c.o
 .debug_str     0x0000000000005a69      0x199 kernel/libnoninstrumentables.a.p/arch_amd64_src_userspace.c.o
 .debug_str     0x0000000000005a69      0x19f kernel/libnoninstrumentables.a.p/arch_amd64_src_vreg.c.o
 .debug_str     0x0000000000005a69      0x3c7 kernel/libnoninstrumentables.a.p/arch_amd64_src_smp_apic.c.o
 .debug_str     0x0000000000005a69       0x4e kernel/libnoninstrumentables.a.p/arch_amd64_src_smp_ap.S.o
 .debug_str     0x0000000000005a69      0x191 kernel/libnoninstrumentables.a.p/arch_amd64_src_smp_ipi.c.o
 .debug_str     0x0000000000005a69      0x29e kernel/libnoninstrumentables.a.p/arch_amd64_src_smp_mps.c.o
 .debug_str     0x0000000000005a69      0x2b0 kernel/libnoninstrumentables.a.p/arch_amd64_src_smp_smp.c.o
 .debug_str     0x0000000000005a69      0x20f kernel/libnoninstrumentables.a.p/genarch_src_acpi_acpi.c.o
 .debug_str     0x0000000000005a69      0x296 kernel/libnoninstrumentables.a.p/genarch_src_acpi_madt.c.o
 .debug_str     0x0000000000005a69      0x2c5 kernel/libnoninstrumentables.a.p/genarch_src_mm_page_pt.c.o
 .debug_str     0x0000000000005a69      0x1f6 kernel/libnoninstrumentables.a.p/genarch_src_mm_as_pt.c.o
 .debug_str     0x0000000000005a69      0x178 kernel/libnoninstrumentables.a.p/genarch_src_fb_font-8x16.c.o
 .debug_str     0x0000000000005a69      0x37c kernel/libnoninstrumentables.a.p/genarch_src_fb_fb.c.o
 .debug_str     0x0000000000005a69      0x210 kernel/libnoninstrumentables.a.p/genarch_src_fb_bfb.c.o
 .debug_str     0x0000000000005a69      0x25d kernel/libnoninstrumentables.a.p/genarch_src_drivers_i8042_i8042.c.o
 .debug_str     0x0000000000005a69      0x1f8 kernel/libnoninstrumentables.a.p/genarch_src_drivers_i8259_i8259.c.o
 .debug_str     0x0000000000005a69      0x2cc kernel/libnoninstrumentables.a.p/genarch_src_drivers_ns16550_ns16550.c.o
 .debug_str     0x0000000000005a69      0x284 kernel/libnoninstrumentables.a.p/genarch_src_drivers_pl011_pl011.c.o
 .debug_str     0x0000000000005a69      0x262 kernel/libnoninstrumentables.a.p/genarch_src_kbrd_kbrd.c.o
 .debug_str     0x0000000000005a69      0x182 kernel/libnoninstrumentables.a.p/genarch_src_kbrd_scanc_pc.c.o
 .debug_str     0x0000000000005a69      0x1ea kernel/libnoninstrumentables.a.p/genarch_src_srln_srln.c.o
 .debug_str     0x0000000000005a69      0x17a kernel/libnoninstrumentables.a.p/genarch_src_multiboot_common.c.o
 .debug_str     0x0000000000005a69      0x21e kernel/libnoninstrumentables.a.p/genarch_src_multiboot_multiboot.c.o
 .debug_str     0x0000000000005a69      0x2a7 kernel/libnoninstrumentables.a.p/genarch_src_multiboot_multiboot2.c.o
 .debug_str     0x0000000000005a69      0x2ee kernel/libnoninstrumentables.a.p/genarch_src_drivers_ega_ega.c.o
 .debug_str     0x0000000000005a69      0x1ed kernel/libnoninstrumentables.a.p/genarch_src_ddi_ddi-bitmap.c.o
 .debug_str     0x0000000000005a69      0x1f6 kernel/libnoninstrumentables.a.p/generic_common_adt_bitmap.c.o
 .debug_str     0x0000000000005a69      0x314 kernel/libnoninstrumentables.a.p/generic_common_adt_hash_table.c.o
 .debug_str     0x0000000000005a69      0x1b5 kernel/libnoninstrumentables.a.p/generic_common_adt_list.c.o
 .debug_str     0x0000000000005a69      0x3e7 kernel/libnoninstrumentables.a.p/generic_common_adt_odict.c.o
 .debug_str     0x0000000000005a69      0x24d kernel/libnoninstrumentables.a.p/generic_common_printf_printf_core.c.o
 .debug_str     0x0000000000005a69      0x170 kernel/libnoninstrumentables.a.p/generic_common_stdc_calloc.c.o
 .debug_str     0x0000000000005a69      0x1d3 kernel/libnoninstrumentables.a.p/generic_common_stdc_ctype.c.o
 .debug_str     0x0000000000005a69      0x197 kernel/libnoninstrumentables.a.p/generic_common_stdc_mem.c.o
 .debug_str     0x0000000000005a69      0x17b kernel/libnoninstrumentables.a.p/generic_common_gsort.c.o
 .debug_str     0x0000000000005a69      0x38a kernel/libnoninstrumentables.a.p/generic_common_str.c.o
 .debug_str     0x0000000000005a69      0x186 kernel/libnoninstrumentables.a.p/generic_common_str_error.c.o
 .debug_str     0x0000000000005a69      0x268 kernel/libnoninstrumentables.a.p/generic_common_strtol.c.o
 .debug_str     0x0000000000005a69      0x475 kernel/libnoninstrumentables.a.p/generic_src_cap_cap.c.o
 .debug_str     0x0000000000005a69      0x2bf kernel/libnoninstrumentables.a.p/generic_src_console_chardev.c.o
 .debug_str     0x0000000000005a69      0x371 kernel/libnoninstrumentables.a.p/generic_src_console_console.c.o
 .debug_str     0x0000000000005a69      0x1c5 kernel/libnoninstrumentables.a.p/generic_src_console_prompt.c.o
 .debug_str     0x0000000000005a69      0x1fb kernel/libnoninstrumentables.a.p/generic_src_cpu_cpu_mask.c.o
 .debug_str     0x0000000000005a69      0x31e kernel/libnoninstrumentables.a.p/generic_src_ddi_irq.c.o
 .debug_str     0x0000000000005a69      0x3d6 kernel/libnoninstrumentables.a.p/generic_src_debug_line.c.o
 .debug_str     0x0000000000005a69      0x2a9 kernel/libnoninstrumentables.a.p/generic_src_debug_names.c.o
 .debug_str     0x0000000000005a69      0x1ae kernel/libnoninstrumentables.a.p/generic_src_debug_panic.c.o
 .debug_str     0x0000000000005a69      0x1cb kernel/libnoninstrumentables.a.p/generic_src_debug_sections.c.o
 .debug_str     0x0000000000005a69      0x31a kernel/libnoninstrumentables.a.p/generic_src_debug_stacktrace.c.o
 .debug_str     0x0000000000005a69      0x238 kernel/libnoninstrumentables.a.p/generic_src_debug_symtab.c.o
 .debug_str     0x0000000000005a69      0x271 kernel/libnoninstrumentables.a.p/generic_src_debug_util.c.o
 .debug_str     0x0000000000005a69      0x39b kernel/libnoninstrumentables.a.p/generic_src_ipc_event.c.o
 .debug_str     0x0000000000005a69      0x6b4 kernel/libnoninstrumentables.a.p/generic_src_ipc_ipc.c.o
 .debug_str     0x0000000000005a69      0x23a kernel/libnoninstrumentables.a.p/generic_src_ipc_ipcrsc.c.o
 .debug_str     0x0000000000005a69      0x4b2 kernel/libnoninstrumentables.a.p/generic_src_ipc_irq.c.o
 .debug_str     0x0000000000005a69      0x26d kernel/libnoninstrumentables.a.p/generic_src_ipc_ops_conctmeto.c.o
 .debug_str     0x0000000000005a69      0x292 kernel/libnoninstrumentables.a.p/generic_src_ipc_ops_concttome.c.o
 .debug_str     0x0000000000005a69      0x27a kernel/libnoninstrumentables.a.p/generic_src_ipc_ops_dataread.c.o
 .debug_str     0x0000000000005a69      0x273 kernel/libnoninstrumentables.a.p/generic_src_ipc_ops_datawrite.c.o
 .debug_str     0x0000000000005a69      0x222 kernel/libnoninstrumentables.a.p/generic_src_ipc_ops_debug.c.o
 .debug_str     0x0000000000005a69      0x282 kernel/libnoninstrumentables.a.p/generic_src_ipc_ops_pagein.c.o
 .debug_str     0x0000000000005a69      0x269 kernel/libnoninstrumentables.a.p/generic_src_ipc_ops_sharein.c.o
 .debug_str     0x0000000000005a69      0x292 kernel/libnoninstrumentables.a.p/generic_src_ipc_ops_shareout.c.o
 .debug_str     0x0000000000005a69      0x29a kernel/libnoninstrumentables.a.p/generic_src_ipc_ops_stchngath.c.o
 .debug_str     0x0000000000005a69      0x5fd kernel/libnoninstrumentables.a.p/generic_src_ipc_sysipc.c.o
 .debug_str     0x0000000000005a69      0x2b4 kernel/libnoninstrumentables.a.p/generic_src_ipc_sysipc_ops.c.o
 .debug_str     0x0000000000005a69      0x193 kernel/libnoninstrumentables.a.p/generic_src_lib_elf.c.o
 .debug_str     0x0000000000005a69      0x1c6 kernel/libnoninstrumentables.a.p/generic_src_lib_halt.c.o
 .debug_str     0x0000000000005a69      0x172 kernel/libnoninstrumentables.a.p/generic_src_lib_mem.c.o
 .debug_str     0x0000000000005a69      0x3bc kernel/libnoninstrumentables.a.p/generic_src_lib_ra.c.o
 .debug_str     0x0000000000005a69      0x1ae kernel/libnoninstrumentables.a.p/generic_src_lib_rd.c.o
 .debug_str     0x0000000000005a69      0x3b9 kernel/libnoninstrumentables.a.p/generic_src_lib_ubsan.c.o
 .debug_str     0x0000000000005a69      0x2d5 kernel/libnoninstrumentables.a.p/generic_src_log_log.c.o
 .debug_str     0x0000000000005a69      0x184 kernel/libnoninstrumentables.a.p/generic_src_main_shutdown.c.o
 .debug_str     0x0000000000005a69      0x18c kernel/libnoninstrumentables.a.p/generic_src_main_uinit.c.o
 .debug_str     0x0000000000005a69      0x177 kernel/libnoninstrumentables.a.p/generic_src_main_version.c.o
 .debug_str     0x0000000000005a69      0x372 kernel/libnoninstrumentables.a.p/generic_src_mm_backend_anon.c.o
 .debug_str     0x0000000000005a69      0x3af kernel/libnoninstrumentables.a.p/generic_src_mm_backend_elf.c.o
 .debug_str     0x0000000000005a69      0x29f kernel/libnoninstrumentables.a.p/generic_src_mm_backend_phys.c.o
 .debug_str     0x0000000000005a69      0x2e7 kernel/libnoninstrumentables.a.p/generic_src_mm_backend_user.c.o
 .debug_str     0x0000000000005a69      0x3b3 kernel/libnoninstrumentables.a.p/generic_src_mm_km.c.o
 .debug_str     0x0000000000005a69      0x1ff kernel/libnoninstrumentables.a.p/generic_src_mm_malloc.c.o
 .debug_str     0x0000000000005a69      0x1f7 kernel/libnoninstrumentables.a.p/generic_src_mm_reserve.c.o
 .debug_str     0x0000000000005a69      0x171 kernel/libnoninstrumentables.a.p/generic_src_printf_printf.c.o
 .debug_str     0x0000000000005a69      0x175 kernel/libnoninstrumentables.a.p/generic_src_printf_snprintf.c.o
 .debug_str     0x0000000000005a69      0x1b4 kernel/libnoninstrumentables.a.p/generic_src_printf_vprintf.c.o
 .debug_str     0x0000000000005a69      0x1b7 kernel/libnoninstrumentables.a.p/generic_src_printf_vsnprintf.c.o
 .debug_str     0x0000000000005a69      0x2d0 kernel/libnoninstrumentables.a.p/generic_src_proc_program.c.o
 .debug_str     0x0000000000005a69      0x5a9 kernel/libnoninstrumentables.a.p/generic_src_proc_scheduler.c.o
 .debug_str     0x0000000000005a69      0x59d kernel/libnoninstrumentables.a.p/generic_src_proc_task.c.o
 .debug_str     0x0000000000005a69      0x830 kernel/libnoninstrumentables.a.p/generic_src_proc_thread.c.o
 .debug_str     0x0000000000005a69      0x1ed kernel/libnoninstrumentables.a.p/generic_src_security_perm.c.o
 .debug_str     0x0000000000005a69      0x18a kernel/libnoninstrumentables.a.p/generic_src_smp_ipi.c.o
 .debug_str     0x0000000000005a69      0x17a kernel/libnoninstrumentables.a.p/generic_src_smp_smp.c.o
 .debug_str     0x0000000000005a69      0x2a4 kernel/libnoninstrumentables.a.p/generic_src_synch_condvar.c.o
 .debug_str     0x0000000000005a69      0x2ca kernel/libnoninstrumentables.a.p/generic_src_synch_irq_spinlock.c.o
 .debug_str     0x0000000000005a69      0x245 kernel/libnoninstrumentables.a.p/generic_src_synch_mutex.c.o
 .debug_str     0x0000000000005a69      0x214 kernel/libnoninstrumentables.a.p/generic_src_synch_semaphore.c.o
 .debug_str     0x0000000000005a69      0x18b kernel/libnoninstrumentables.a.p/generic_src_synch_smc.c.o
 .debug_str     0x0000000000005a69      0x20b kernel/libnoninstrumentables.a.p/generic_src_synch_spinlock.c.o
 .debug_str     0x0000000000005a69      0x326 kernel/libnoninstrumentables.a.p/generic_src_synch_syswaitq.c.o
 .debug_str     0x0000000000005a69      0x3ac kernel/libnoninstrumentables.a.p/generic_src_synch_waitq.c.o
 .debug_str     0x0000000000005a69      0x20b kernel/libnoninstrumentables.a.p/generic_src_syscall_copy.c.o
 .debug_str     0x0000000000005a69      0x63a kernel/libnoninstrumentables.a.p/generic_src_syscall_syscall.c.o
 .debug_str     0x0000000000005a69      0x4a4 kernel/libnoninstrumentables.a.p/generic_src_sysinfo_stats.c.o
 .debug_str     0x0000000000005a69      0x2b3 kernel/libnoninstrumentables.a.p/generic_src_time_clock.c.o
 .debug_str     0x0000000000005a69      0x1a8 kernel/libnoninstrumentables.a.p/generic_src_time_delay.c.o
 .debug_str     0x0000000000005a69      0x2c9 kernel/libnoninstrumentables.a.p/generic_src_time_timeout.c.o
 .debug_str     0x0000000000005a69      0x6c6 kernel/libnoninstrumentables.a.p/generic_src_console_cmd.c.o
 .debug_str     0x0000000000005a69      0x30f kernel/libnoninstrumentables.a.p/generic_src_ipc_kbox.c.o
 .debug_str     0x0000000000005a69      0x34f kernel/libnoninstrumentables.a.p/generic_src_udebug_udebug.c.o
 .debug_str     0x0000000000005a69      0x2ff kernel/libnoninstrumentables.a.p/generic_src_udebug_udebug_ops.c.o
 .debug_str     0x0000000000005a69      0x3b9 kernel/libnoninstrumentables.a.p/generic_src_udebug_udebug_ipc.c.o
 .debug_str     0x0000000000005a69      0x273 kernel/libnoninstrumentables.a.p/test_test.c.o
 .debug_str     0x0000000000005a69      0x16f kernel/libnoninstrumentables.a.p/test_atomic_atomic1.c.o
 .debug_str     0x0000000000005a69      0x16e kernel/libnoninstrumentables.a.p/test_fault_fault1.c.o
 .debug_str     0x0000000000005a69      0x1a4 kernel/libnoninstrumentables.a.p/test_mm_falloc1.c.o
 .debug_str     0x0000000000005a69      0x1da kernel/libnoninstrumentables.a.p/test_mm_falloc2.c.o
 .debug_str     0x0000000000005a69      0x1a9 kernel/libnoninstrumentables.a.p/test_mm_mapping1.c.o
 .debug_str     0x0000000000005a69      0x20f kernel/libnoninstrumentables.a.p/test_mm_slab1.c.o
 .debug_str     0x0000000000005a69      0x280 kernel/libnoninstrumentables.a.p/test_mm_slab2.c.o
 .debug_str     0x0000000000005a69      0x237 kernel/libnoninstrumentables.a.p/test_synch_semaphore1.c.o
 .debug_str     0x0000000000005a69      0x257 kernel/libnoninstrumentables.a.p/test_synch_semaphore2.c.o
 .debug_str     0x0000000000005a69      0x180 kernel/libnoninstrumentables.a.p/test_print_print1.c.o
 .debug_str     0x0000000000005a69      0x180 kernel/libnoninstrumentables.a.p/test_print_print2.c.o
 .debug_str     0x0000000000005a69      0x189 kernel/libnoninstrumentables.a.p/test_print_print3.c.o
 .debug_str     0x0000000000005a69      0x180 kernel/libnoninstrumentables.a.p/test_print_print4.c.o
 .debug_str     0x0000000000005a69      0x180 kernel/libnoninstrumentables.a.p/test_print_print5.c.o
 .debug_str     0x0000000000005a69      0x1ce kernel/libnoninstrumentables.a.p/test_thread_thread1.c.o
 .debug_str     0x0000000000005a69      0x16d kernel/libnoninstrumentables.a.p/test_debug_mips1_skip.c.o
 .debug_str     0x0000000000005a69      0x16e kernel/libnoninstrumentables.a.p/test_mm_purge1_skip.c.o

.debug_str.dwo
 *(.debug_str.dwo)

.debug_str_offsets
 *(.debug_str_offsets)

.debug_str_offsets.dwo
 *(.debug_str_offsets.dwo)

.debug_tu_index
 *(.debug_tu_index)

.debug_types
 *(.debug_types)

/DISCARD/
 *(*)
                0x0000000000009000                ap_boot = ((unmapped_ap_boot - 0x108000) + 0x8000)
                0x0000000000009213                ap_gdtr = ((unmapped_ap_gdtr - 0x108000) + 0x8000)
                0xffffffff80009213                protected_ap_gdtr = (ap_gdtr + 0xffffffff80000000)
OUTPUT(kernel/kernel.elf elf64-x86-64)
