
Discarded input sections

 .text          0x0000000000000000        0x0 uspace/lib/libpixconv.so.0.0.p/pixconv_pixconv.c.o
 .data          0x0000000000000000        0x0 uspace/lib/libpixconv.so.0.0.p/pixconv_pixconv.c.o
 .bss           0x0000000000000000        0x0 uspace/lib/libpixconv.so.0.0.p/pixconv_pixconv.c.o

Memory Configuration

Name             Origin             Length             Attributes
*default*        0x0000000000000000 0xffffffffffffffff

Linker script and memory map

LOAD uspace/lib/libpixconv.so.0.0.p/pixconv_pixconv.c.o
START GROUP
LOAD uspace/lib/libc.so.0.0
LOAD /home/zyc/.local/share/HelenOS/cross/lib/gcc/amd64-helenos/13.2.0/libgcc.a
END GROUP
                0x0000000000000120                . = (SEGMENT_START ("text-segment", 0x0) + SIZEOF_HEADERS)

.note.gnu.build-id
 *(.note.gnu.build-id)

.hash           0x0000000000000120      0x140
 *(.hash)
 .hash          0x0000000000000120      0x140 uspace/lib/libpixconv.so.0.0.p/pixconv_pixconv.c.o

.gnu.hash
 *(.gnu.hash)

.dynsym         0x0000000000000260      0x3d8
 *(.dynsym)
 .dynsym        0x0000000000000260      0x3d8 uspace/lib/libpixconv.so.0.0.p/pixconv_pixconv.c.o

.dynstr         0x0000000000000638      0x299
 *(.dynstr)
 .dynstr        0x0000000000000638      0x299 uspace/lib/libpixconv.so.0.0.p/pixconv_pixconv.c.o

.gnu.version    0x00000000000008d2        0x0
 *(.gnu.version)
 .gnu.version   0x00000000000008d2        0x0 uspace/lib/libpixconv.so.0.0.p/pixconv_pixconv.c.o

.gnu.version_d  0x00000000000008d8        0x0
 *(.gnu.version_d)
 .gnu.version_d
                0x00000000000008d8        0x0 uspace/lib/libpixconv.so.0.0.p/pixconv_pixconv.c.o

.gnu.version_r  0x00000000000008d8        0x0
 *(.gnu.version_r)
 .gnu.version_r
                0x00000000000008d8        0x0 uspace/lib/libpixconv.so.0.0.p/pixconv_pixconv.c.o

.rela.dyn       0x00000000000008d8        0x0
 *(.rela.init)
 *(.rela.text .rela.text.* .rela.gnu.linkonce.t.*)
 *(.rela.fini)
 *(.rela.rodata .rela.rodata.* .rela.gnu.linkonce.r.*)
 *(.rela.data .rela.data.* .rela.gnu.linkonce.d.*)
 *(.rela.tdata .rela.tdata.* .rela.gnu.linkonce.td.*)
 *(.rela.tbss .rela.tbss.* .rela.gnu.linkonce.tb.*)
 *(.rela.ctors)
 *(.rela.dtors)
 *(.rela.got)
 .rela.got      0x00000000000008d8        0x0 uspace/lib/libpixconv.so.0.0.p/pixconv_pixconv.c.o
 *(.rela.bss .rela.bss.* .rela.gnu.linkonce.b.*)
 *(.rela.ldata .rela.ldata.* .rela.gnu.linkonce.l.*)
 *(.rela.lbss .rela.lbss.* .rela.gnu.linkonce.lb.*)
 *(.rela.lrodata .rela.lrodata.* .rela.gnu.linkonce.lr.*)
 *(.rela.ifunc)
 .rela.ifunc    0x00000000000008d8        0x0 uspace/lib/libpixconv.so.0.0.p/pixconv_pixconv.c.o

.rela.plt       0x00000000000008d8       0xc0
 *(.rela.plt)
 .rela.plt      0x00000000000008d8       0xc0 uspace/lib/libpixconv.so.0.0.p/pixconv_pixconv.c.o
 *(.rela.iplt)

.relr.dyn
 *(.relr.dyn)

.init
 *(SORT_NONE(.init))

.plt            0x00000000000009a0       0x90
 *(.plt)
 .plt           0x00000000000009a0       0x90 uspace/lib/libpixconv.so.0.0.p/pixconv_pixconv.c.o
 *(.iplt)

.plt.got        0x0000000000000a30        0x0
 *(.plt.got)
 .plt.got       0x0000000000000a30        0x0 uspace/lib/libpixconv.so.0.0.p/pixconv_pixconv.c.o

.plt.sec
 *(.plt.sec)

.text           0x0000000000000a30      0x5c4
 *(.text.unlikely .text.*_unlikely .text.unlikely.*)
 *(.text.exit .text.exit.*)
 *(.text.startup .text.startup.*)
 *(.text.hot .text.hot.*)
 *(SORT_BY_NAME(.text.sorted.*))
 *(.text .stub .text.* .gnu.linkonce.t.*)
 .text.pixel2argb_8888
                0x0000000000000a30        0xa uspace/lib/libpixconv.so.0.0.p/pixconv_pixconv.c.o
                0x0000000000000a30                pixel2argb_8888
 *fill*         0x0000000000000a3a        0x6 
 .text.pixel2abgr_8888
                0x0000000000000a40       0x3f uspace/lib/libpixconv.so.0.0.p/pixconv_pixconv.c.o
                0x0000000000000a40                pixel2abgr_8888
 *fill*         0x0000000000000a7f        0x1 
 .text.pixel2rgba_8888
                0x0000000000000a80       0x4e uspace/lib/libpixconv.so.0.0.p/pixconv_pixconv.c.o
                0x0000000000000a80                pixel2rgba_8888
 *fill*         0x0000000000000ace        0x2 
 .text.pixel2bgra_8888
                0x0000000000000ad0        0x8 uspace/lib/libpixconv.so.0.0.p/pixconv_pixconv.c.o
                0x0000000000000ad0                pixel2bgra_8888
 *fill*         0x0000000000000ad8        0x8 
 .text.pixel2rgb_0888
                0x0000000000000ae0        0xd uspace/lib/libpixconv.so.0.0.p/pixconv_pixconv.c.o
                0x0000000000000ae0                pixel2rgb_0888
 *fill*         0x0000000000000aed        0x3 
 .text.pixel2bgr_0888
                0x0000000000000af0       0x39 uspace/lib/libpixconv.so.0.0.p/pixconv_pixconv.c.o
                0x0000000000000af0                pixel2bgr_0888
 *fill*         0x0000000000000b29        0x7 
 .text.pixel2rgb_8880
                0x0000000000000b30       0x3a uspace/lib/libpixconv.so.0.0.p/pixconv_pixconv.c.o
                0x0000000000000b30                pixel2rgb_8880
 *fill*         0x0000000000000b6a        0x6 
 .text.pixel2bgr_8880
                0x0000000000000b70       0x29 uspace/lib/libpixconv.so.0.0.p/pixconv_pixconv.c.o
                0x0000000000000b70                pixel2bgr_8880
 *fill*         0x0000000000000b99        0x7 
 .text.pixel2rgb_888
                0x0000000000000ba0       0x15 uspace/lib/libpixconv.so.0.0.p/pixconv_pixconv.c.o
                0x0000000000000ba0                pixel2rgb_888
 *fill*         0x0000000000000bb5        0xb 
 .text.pixel2bgr_888
                0x0000000000000bc0       0x10 uspace/lib/libpixconv.so.0.0.p/pixconv_pixconv.c.o
                0x0000000000000bc0                pixel2bgr_888
 .text.pixel2rgb_555_be
                0x0000000000000bd0       0x30 uspace/lib/libpixconv.so.0.0.p/pixconv_pixconv.c.o
                0x0000000000000bd0                pixel2rgb_555_be
 .text.pixel2rgb_555_le
                0x0000000000000c00       0x2d uspace/lib/libpixconv.so.0.0.p/pixconv_pixconv.c.o
                0x0000000000000c00                pixel2rgb_555_le
 *fill*         0x0000000000000c2d        0x3 
 .text.pixel2rgb_565_be
                0x0000000000000c30       0x2c uspace/lib/libpixconv.so.0.0.p/pixconv_pixconv.c.o
                0x0000000000000c30                pixel2rgb_565_be
 *fill*         0x0000000000000c5c        0x4 
 .text.pixel2rgb_565_le
                0x0000000000000c60       0x28 uspace/lib/libpixconv.so.0.0.p/pixconv_pixconv.c.o
                0x0000000000000c60                pixel2rgb_565_le
 *fill*         0x0000000000000c88        0x8 
 .text.pixel2bgr_323
                0x0000000000000c90       0x24 uspace/lib/libpixconv.so.0.0.p/pixconv_pixconv.c.o
                0x0000000000000c90                pixel2bgr_323
 *fill*         0x0000000000000cb4        0xc 
 .text.pixel2gray_8
                0x0000000000000cc0       0x32 uspace/lib/libpixconv.so.0.0.p/pixconv_pixconv.c.o
                0x0000000000000cc0                pixel2gray_8
 *fill*         0x0000000000000cf2        0xe 
 .text.visual_mask_8888
                0x0000000000000d00       0x10 uspace/lib/libpixconv.so.0.0.p/pixconv_pixconv.c.o
                0x0000000000000d00                visual_mask_8888
 .text.visual_mask_0888
                0x0000000000000d10       0x10 uspace/lib/libpixconv.so.0.0.p/pixconv_pixconv.c.o
                0x0000000000000d10                visual_mask_0888
 .text.visual_mask_8880
                0x0000000000000d20       0x10 uspace/lib/libpixconv.so.0.0.p/pixconv_pixconv.c.o
                0x0000000000000d20                visual_mask_8880
 .text.visual_mask_888
                0x0000000000000d30       0x10 uspace/lib/libpixconv.so.0.0.p/pixconv_pixconv.c.o
                0x0000000000000d30                visual_mask_888
 .text.visual_mask_555
                0x0000000000000d40       0x10 uspace/lib/libpixconv.so.0.0.p/pixconv_pixconv.c.o
                0x0000000000000d40                visual_mask_555
 .text.visual_mask_565
                0x0000000000000d50       0x10 uspace/lib/libpixconv.so.0.0.p/pixconv_pixconv.c.o
                0x0000000000000d50                visual_mask_565
 .text.visual_mask_323
                0x0000000000000d60       0x11 uspace/lib/libpixconv.so.0.0.p/pixconv_pixconv.c.o
                0x0000000000000d60                visual_mask_323
 *fill*         0x0000000000000d71        0xf 
 .text.visual_mask_8
                0x0000000000000d80       0x10 uspace/lib/libpixconv.so.0.0.p/pixconv_pixconv.c.o
                0x0000000000000d80                visual_mask_8
 .text.argb_8888_2pixel
                0x0000000000000d90        0xa uspace/lib/libpixconv.so.0.0.p/pixconv_pixconv.c.o
                0x0000000000000d90                argb_8888_2pixel
 *fill*         0x0000000000000d9a        0x6 
 .text.abgr_8888_2pixel
                0x0000000000000da0       0x24 uspace/lib/libpixconv.so.0.0.p/pixconv_pixconv.c.o
                0x0000000000000da0                abgr_8888_2pixel
 *fill*         0x0000000000000dc4        0xc 
 .text.rgba_8888_2pixel
                0x0000000000000dd0        0xd uspace/lib/libpixconv.so.0.0.p/pixconv_pixconv.c.o
                0x0000000000000dd0                rgba_8888_2pixel
 *fill*         0x0000000000000ddd        0x3 
 .text.bgra_8888_2pixel
                0x0000000000000de0        0x8 uspace/lib/libpixconv.so.0.0.p/pixconv_pixconv.c.o
                0x0000000000000de0                bgra_8888_2pixel
 *fill*         0x0000000000000de8        0x8 
 .text.rgb_0888_2pixel
                0x0000000000000df0        0xf uspace/lib/libpixconv.so.0.0.p/pixconv_pixconv.c.o
                0x0000000000000df0                rgb_0888_2pixel
 *fill*         0x0000000000000dff        0x1 
 .text.bgr_0888_2pixel
                0x0000000000000e00       0x29 uspace/lib/libpixconv.so.0.0.p/pixconv_pixconv.c.o
                0x0000000000000e00                bgr_0888_2pixel
 *fill*         0x0000000000000e29        0x7 
 .text.rgb_8880_2pixel
                0x0000000000000e30       0x12 uspace/lib/libpixconv.so.0.0.p/pixconv_pixconv.c.o
                0x0000000000000e30                rgb_8880_2pixel
 *fill*         0x0000000000000e42        0xe 
 .text.bgr_8880_2pixel
                0x0000000000000e50       0x2b uspace/lib/libpixconv.so.0.0.p/pixconv_pixconv.c.o
                0x0000000000000e50                bgr_8880_2pixel
 *fill*         0x0000000000000e7b        0x5 
 .text.rgb_888_2pixel
                0x0000000000000e80       0x20 uspace/lib/libpixconv.so.0.0.p/pixconv_pixconv.c.o
                0x0000000000000e80                rgb_888_2pixel
 .text.bgr_888_2pixel
                0x0000000000000ea0       0x20 uspace/lib/libpixconv.so.0.0.p/pixconv_pixconv.c.o
                0x0000000000000ea0                bgr_888_2pixel
 .text.rgb_555_be_2pixel
                0x0000000000000ec0       0x36 uspace/lib/libpixconv.so.0.0.p/pixconv_pixconv.c.o
                0x0000000000000ec0                rgb_555_be_2pixel
 *fill*         0x0000000000000ef6        0xa 
 .text.rgb_555_le_2pixel
                0x0000000000000f00       0x2f uspace/lib/libpixconv.so.0.0.p/pixconv_pixconv.c.o
                0x0000000000000f00                rgb_555_le_2pixel
 *fill*         0x0000000000000f2f        0x1 
 .text.rgb_565_be_2pixel
                0x0000000000000f30       0x36 uspace/lib/libpixconv.so.0.0.p/pixconv_pixconv.c.o
                0x0000000000000f30                rgb_565_be_2pixel
 *fill*         0x0000000000000f66        0xa 
 .text.rgb_565_le_2pixel
                0x0000000000000f70       0x2f uspace/lib/libpixconv.so.0.0.p/pixconv_pixconv.c.o
                0x0000000000000f70                rgb_565_le_2pixel
 *fill*         0x0000000000000f9f        0x1 
 .text.bgr_323_2pixel
                0x0000000000000fa0       0x32 uspace/lib/libpixconv.so.0.0.p/pixconv_pixconv.c.o
                0x0000000000000fa0                bgr_323_2pixel
 *fill*         0x0000000000000fd2        0xe 
 .text.gray_8_2pixel
                0x0000000000000fe0       0x14 uspace/lib/libpixconv.so.0.0.p/pixconv_pixconv.c.o
                0x0000000000000fe0                gray_8_2pixel
 *(.gnu.warning)

.fini
 *(SORT_NONE(.fini))
                [!provide]                        PROVIDE (__etext = .)
                [!provide]                        PROVIDE (_etext = .)
                [!provide]                        PROVIDE (etext = .)

.rodata
 *(.rodata .rodata.* .gnu.linkonce.r.*)

.rodata1
 *(.rodata1)

.eh_frame_hdr   0x0000000000000ff4      0x154
 *(.eh_frame_hdr)
 .eh_frame_hdr  0x0000000000000ff4      0x154 uspace/lib/libpixconv.so.0.0.p/pixconv_pixconv.c.o
                0x0000000000000ff4                __GNU_EH_FRAME_HDR
 *(.eh_frame_entry .eh_frame_entry.*)

.eh_frame       0x0000000000001148      0x53c
 *(.eh_frame)
 .eh_frame      0x0000000000001148      0x518 uspace/lib/libpixconv.so.0.0.p/pixconv_pixconv.c.o
 .eh_frame      0x0000000000001660       0x24 uspace/lib/libpixconv.so.0.0.p/pixconv_pixconv.c.o
                                         0x40 (size before relaxing)
 .eh_frame      0x0000000000001684        0x0 uspace/lib/libpixconv.so.0.0.p/pixconv_pixconv.c.o
 *(.eh_frame.*)

.sframe         0x0000000000001684        0x0
 *(.sframe)
 .sframe        0x0000000000001684        0x0 uspace/lib/libpixconv.so.0.0.p/pixconv_pixconv.c.o
 *(.sframe.*)

.gcc_except_table
 *(.gcc_except_table .gcc_except_table.*)

.gnu_extab
 *(.gnu_extab*)

.exception_ranges
 *(.exception_ranges*)
                0x0000000000002684                . = DATA_SEGMENT_ALIGN (CONSTANT (MAXPAGESIZE), CONSTANT (COMMONPAGESIZE))

.eh_frame
 *(.eh_frame)
 *(.eh_frame.*)

.sframe
 *(.sframe)
 *(.sframe.*)

.gnu_extab
 *(.gnu_extab)

.gcc_except_table
 *(.gcc_except_table .gcc_except_table.*)

.exception_ranges
 *(.exception_ranges*)

.tdata
 *(.tdata .tdata.* .gnu.linkonce.td.*)

.tbss
 *(.tbss .tbss.* .gnu.linkonce.tb.*)
 *(.tcommon)

.preinit_array
 *(.preinit_array)

.init_array
 *(SORT_BY_INIT_PRIORITY(.init_array.*) SORT_BY_INIT_PRIORITY(.ctors.*))
 *(.init_array EXCLUDE_FILE(*crtend?.o *crtend.o *crtbegin?.o *crtbegin.o) .ctors)

.fini_array
 *(SORT_BY_INIT_PRIORITY(.fini_array.*) SORT_BY_INIT_PRIORITY(.dtors.*))
 *(.fini_array EXCLUDE_FILE(*crtend?.o *crtend.o *crtbegin?.o *crtbegin.o) .dtors)

.ctors
 *crtbegin.o(.ctors)
 *crtbegin?.o(.ctors)
 *(EXCLUDE_FILE(*crtend?.o *crtend.o) .ctors)
 *(SORT_BY_NAME(.ctors.*))
 *(.ctors)

.dtors
 *crtbegin.o(.dtors)
 *crtbegin?.o(.dtors)
 *(EXCLUDE_FILE(*crtend?.o *crtend.o) .dtors)
 *(SORT_BY_NAME(.dtors.*))
 *(.dtors)

.jcr
 *(.jcr)

.data.rel.ro    0x0000000000002684        0x0
 *(.data.rel.ro.local* .gnu.linkonce.d.rel.ro.local.*)
 *(.data.rel.ro .data.rel.ro.* .gnu.linkonce.d.rel.ro.*)
 .data.rel.ro   0x0000000000002684        0x0 uspace/lib/libpixconv.so.0.0.p/pixconv_pixconv.c.o

.dynamic        0x0000000000002688      0x110
 *(.dynamic)
 .dynamic       0x0000000000002688      0x110 uspace/lib/libpixconv.so.0.0.p/pixconv_pixconv.c.o
                0x0000000000002688                _DYNAMIC

.got            0x0000000000002798        0x0
 *(.got)
 .got           0x0000000000002798        0x0 uspace/lib/libpixconv.so.0.0.p/pixconv_pixconv.c.o
 *(.igot)
                0x0000000000002798                . = DATA_SEGMENT_RELRO_END (., (SIZEOF (.got.plt) >= 0x18)?0x18:0x0)

.got.plt        0x0000000000002798       0x58
 *(.got.plt)
 .got.plt       0x0000000000002798       0x58 uspace/lib/libpixconv.so.0.0.p/pixconv_pixconv.c.o
                0x0000000000002798                _GLOBAL_OFFSET_TABLE_
 *(.igot.plt)

.data
 *(.data .data.* .gnu.linkonce.d.*)

.data1
 *(.data1)
                [!provide]                        PROVIDE (_edata = .)
                [!provide]                        PROVIDE (edata = .)
                0x00000000000027f0                . = .
                [!provide]                        PROVIDE (__bss_start = .)

.bss            0x00000000000027f0        0x0
 *(.dynbss)
 .dynbss        0x00000000000027f0        0x0 uspace/lib/libpixconv.so.0.0.p/pixconv_pixconv.c.o
 *(.bss .bss.* .gnu.linkonce.b.*)
 *(COMMON)
                0x00000000000027f0                . = ALIGN ((. != 0x0)?0x8:0x1)

.lbss
 *(.dynlbss)
 *(.lbss .lbss.* .gnu.linkonce.lb.*)
 *(LARGE_COMMON)
                0x00000000000027f0                . = ALIGN (0x8)
                0x00000000000027f0                . = SEGMENT_START ("ldata-segment", .)

.lrodata
 *(.lrodata .lrodata.* .gnu.linkonce.lr.*)

.ldata          0x00000000000047f0        0x0
 *(.ldata .ldata.* .gnu.linkonce.l.*)
                0x00000000000047f0                . = ALIGN ((. != 0x0)?0x8:0x1)
                0x00000000000047f0                . = ALIGN (0x8)
                [!provide]                        PROVIDE (_end = .)
                [!provide]                        PROVIDE (end = .)
                0x00000000000047f0                . = DATA_SEGMENT_END (.)

.stab
 *(.stab)

.stabstr
 *(.stabstr)

.stab.excl
 *(.stab.excl)

.stab.exclstr
 *(.stab.exclstr)

.stab.index
 *(.stab.index)

.stab.indexstr
 *(.stab.indexstr)

.comment        0x0000000000000000       0x12
 *(.comment)
 .comment       0x0000000000000000       0x12 uspace/lib/libpixconv.so.0.0.p/pixconv_pixconv.c.o
                                         0x13 (size before relaxing)

.gnu.build.attributes
 *(.gnu.build.attributes .gnu.build.attributes.*)

.debug
 *(.debug)

.line
 *(.line)

.debug_srcinfo
 *(.debug_srcinfo)

.debug_sfnames
 *(.debug_sfnames)

.debug_aranges
 *(.debug_aranges)

.debug_pubnames
 *(.debug_pubnames)

.debug_info
 *(.debug_info .gnu.linkonce.wi.*)

.debug_abbrev
 *(.debug_abbrev)

.debug_line
 *(.debug_line .debug_line.* .debug_line_end)

.debug_frame
 *(.debug_frame)

.debug_str
 *(.debug_str)

.debug_loc
 *(.debug_loc)

.debug_macinfo
 *(.debug_macinfo)

.debug_weaknames
 *(.debug_weaknames)

.debug_funcnames
 *(.debug_funcnames)

.debug_typenames
 *(.debug_typenames)

.debug_varnames
 *(.debug_varnames)

.debug_pubtypes
 *(.debug_pubtypes)

.debug_ranges
 *(.debug_ranges)

.debug_addr
 *(.debug_addr)

.debug_line_str
 *(.debug_line_str)

.debug_loclists
 *(.debug_loclists)

.debug_macro
 *(.debug_macro)

.debug_names
 *(.debug_names)

.debug_rnglists
 *(.debug_rnglists)

.debug_str_offsets
 *(.debug_str_offsets)

.debug_sup
 *(.debug_sup)

.gnu.attributes
 *(.gnu.attributes)

/DISCARD/
 *(.note.GNU-stack)
 *(.gnu_debuglink)
 *(.gnu.lto_*)
OUTPUT(uspace/lib/libpixconv.so.0.0 elf64-x86-64)
