Archive member included to satisfy reference by file (symbol)

uspace/lib/c/libstartfiles.a.p/arch_amd64_src_crt0.S.o
                              (--whole-archive)
uspace/lib/c/libstartfiles.a.p/generic_crt_crt1.c.o
                              (--whole-archive)
uspace/lib/libdispcfg.a.p/dispcfg_src_dispcfg.c.o
                              uspace/lib/test-libdispcfg.p/dispcfg_test_dispcfg.c.o (dispcfg_open)
uspace/lib/libdispcfg.a.p/dispcfg_src_dispcfg_srv.c.o
                              uspace/lib/test-libdispcfg.p/dispcfg_test_dispcfg.c.o (dispcfg_srv_ev_pending)
uspace/lib/libdispcfg.a.p/dispcfg_src_testdc.c.o
                              uspace/lib/test-libdispcfg.p/dispcfg_test_dispcfg.c.o (test_dispcfg_conn)
uspace/lib/libpcut.a.p/pcut_src_os_helenos.c.o
                              uspace/lib/test-libdispcfg.p/dispcfg_test_dispcfg.c.o (pcut_str_equals)
uspace/lib/libpcut.a.p/pcut_src_assert.c.o
                              uspace/lib/test-libdispcfg.p/dispcfg_test_dispcfg.c.o (pcut_failed_assertion_fmt)
uspace/lib/libpcut.a.p/pcut_src_helper.c.o
                              uspace/lib/libpcut.a.p/pcut_src_assert.c.o (pcut_snprintf)
uspace/lib/libpcut.a.p/pcut_src_main.c.o
                              uspace/lib/test-libdispcfg.p/dispcfg_test_main.c.o (pcut_main)
uspace/lib/libpcut.a.p/pcut_src_print.c.o
                              uspace/lib/libpcut.a.p/pcut_src_main.c.o (pcut_print_tests)
uspace/lib/libpcut.a.p/pcut_src_report_report.c.o
                              uspace/lib/libpcut.a.p/pcut_src_main.c.o (pcut_report_register_handler)
uspace/lib/libpcut.a.p/pcut_src_report_tap.c.o
                              uspace/lib/libpcut.a.p/pcut_src_main.c.o (pcut_report_tap)
uspace/lib/libpcut.a.p/pcut_src_report_xml.c.o
                              uspace/lib/libpcut.a.p/pcut_src_main.c.o (pcut_report_xml)
uspace/lib/libpcut.a.p/pcut_src_run.c.o
                              uspace/lib/libpcut.a.p/pcut_src_assert.c.o (pcut_failed_assertion)
uspace/lib/libpcut.a.p/pcut_src_list.c.o
                              uspace/lib/libpcut.a.p/pcut_src_main.c.o (pcut_get_real_next)

As-needed library included to satisfy reference by file (symbol)

libc.so.0                     uspace/lib/libdispcfg.a.p/dispcfg_src_dispcfg.c.o (loc_service_connect)

Discarded input sections

 .text          0x0000000000000000        0x0 uspace/lib/test-libdispcfg.p/dispcfg_test_main.c.o
 .data          0x0000000000000000        0x0 uspace/lib/test-libdispcfg.p/dispcfg_test_main.c.o
 .bss           0x0000000000000000        0x0 uspace/lib/test-libdispcfg.p/dispcfg_test_main.c.o
 .text          0x0000000000000000        0x0 uspace/lib/test-libdispcfg.p/dispcfg_test_dispcfg.c.o
 .data          0x0000000000000000        0x0 uspace/lib/test-libdispcfg.p/dispcfg_test_dispcfg.c.o
 .bss           0x0000000000000000        0x0 uspace/lib/test-libdispcfg.p/dispcfg_test_dispcfg.c.o
 .data          0x0000000000000000        0x0 uspace/lib/c/libstartfiles.a.p/arch_amd64_src_crt0.S.o
 .bss           0x0000000000000000        0x0 uspace/lib/c/libstartfiles.a.p/arch_amd64_src_crt0.S.o
 .text          0x0000000000000000        0x0 uspace/lib/c/libstartfiles.a.p/generic_crt_crt1.c.o
 .data          0x0000000000000000        0x0 uspace/lib/c/libstartfiles.a.p/generic_crt_crt1.c.o
 .bss           0x0000000000000000        0x0 uspace/lib/c/libstartfiles.a.p/generic_crt_crt1.c.o
 .text          0x0000000000000000        0x0 uspace/lib/libdispcfg.a.p/dispcfg_src_dispcfg.c.o
 .data          0x0000000000000000        0x0 uspace/lib/libdispcfg.a.p/dispcfg_src_dispcfg.c.o
 .bss           0x0000000000000000        0x0 uspace/lib/libdispcfg.a.p/dispcfg_src_dispcfg.c.o
 .text          0x0000000000000000        0x0 uspace/lib/libdispcfg.a.p/dispcfg_src_dispcfg_srv.c.o
 .data          0x0000000000000000        0x0 uspace/lib/libdispcfg.a.p/dispcfg_src_dispcfg_srv.c.o
 .bss           0x0000000000000000        0x0 uspace/lib/libdispcfg.a.p/dispcfg_src_dispcfg_srv.c.o
 .text          0x0000000000000000        0x0 uspace/lib/libdispcfg.a.p/dispcfg_src_testdc.c.o
 .data          0x0000000000000000        0x0 uspace/lib/libdispcfg.a.p/dispcfg_src_testdc.c.o
 .bss           0x0000000000000000        0x0 uspace/lib/libdispcfg.a.p/dispcfg_src_testdc.c.o
 .text          0x0000000000000000        0x0 uspace/lib/libpcut.a.p/pcut_src_os_helenos.c.o
 .data          0x0000000000000000        0x0 uspace/lib/libpcut.a.p/pcut_src_os_helenos.c.o
 .bss           0x0000000000000000        0x0 uspace/lib/libpcut.a.p/pcut_src_os_helenos.c.o
 .text          0x0000000000000000        0x0 uspace/lib/libpcut.a.p/pcut_src_assert.c.o
 .data          0x0000000000000000        0x0 uspace/lib/libpcut.a.p/pcut_src_assert.c.o
 .bss           0x0000000000000000        0x0 uspace/lib/libpcut.a.p/pcut_src_assert.c.o
 .text          0x0000000000000000        0x0 uspace/lib/libpcut.a.p/pcut_src_helper.c.o
 .data          0x0000000000000000        0x0 uspace/lib/libpcut.a.p/pcut_src_helper.c.o
 .bss           0x0000000000000000        0x0 uspace/lib/libpcut.a.p/pcut_src_helper.c.o
 .text          0x0000000000000000        0x0 uspace/lib/libpcut.a.p/pcut_src_main.c.o
 .data          0x0000000000000000        0x0 uspace/lib/libpcut.a.p/pcut_src_main.c.o
 .bss           0x0000000000000000        0x0 uspace/lib/libpcut.a.p/pcut_src_main.c.o
 .text.pcut_is_arg_with_number
                0x0000000000000000       0x4c uspace/lib/libpcut.a.p/pcut_src_main.c.o
 .text          0x0000000000000000        0x0 uspace/lib/libpcut.a.p/pcut_src_print.c.o
 .data          0x0000000000000000        0x0 uspace/lib/libpcut.a.p/pcut_src_print.c.o
 .bss           0x0000000000000000        0x0 uspace/lib/libpcut.a.p/pcut_src_print.c.o
 .rodata.pcut_print_items.str1.1
                0x0000000000000000       0x37 uspace/lib/libpcut.a.p/pcut_src_print.c.o
 .text.pcut_print_items
                0x0000000000000000       0x9e uspace/lib/libpcut.a.p/pcut_src_print.c.o
 .text          0x0000000000000000        0x0 uspace/lib/libpcut.a.p/pcut_src_report_report.c.o
 .data          0x0000000000000000        0x0 uspace/lib/libpcut.a.p/pcut_src_report_report.c.o
 .bss           0x0000000000000000        0x0 uspace/lib/libpcut.a.p/pcut_src_report_report.c.o
 .text          0x0000000000000000        0x0 uspace/lib/libpcut.a.p/pcut_src_report_tap.c.o
 .data          0x0000000000000000        0x0 uspace/lib/libpcut.a.p/pcut_src_report_tap.c.o
 .bss           0x0000000000000000        0x0 uspace/lib/libpcut.a.p/pcut_src_report_tap.c.o
 .text          0x0000000000000000        0x0 uspace/lib/libpcut.a.p/pcut_src_report_xml.c.o
 .data          0x0000000000000000        0x0 uspace/lib/libpcut.a.p/pcut_src_report_xml.c.o
 .bss           0x0000000000000000        0x0 uspace/lib/libpcut.a.p/pcut_src_report_xml.c.o
 .text          0x0000000000000000        0x0 uspace/lib/libpcut.a.p/pcut_src_run.c.o
 .data          0x0000000000000000        0x0 uspace/lib/libpcut.a.p/pcut_src_run.c.o
 .bss           0x0000000000000000        0x0 uspace/lib/libpcut.a.p/pcut_src_run.c.o
 .text          0x0000000000000000        0x0 uspace/lib/libpcut.a.p/pcut_src_list.c.o
 .data          0x0000000000000000        0x0 uspace/lib/libpcut.a.p/pcut_src_list.c.o
 .bss           0x0000000000000000        0x0 uspace/lib/libpcut.a.p/pcut_src_list.c.o

Memory Configuration

Name             Origin             Length             Attributes
*default*        0x0000000000000000 0xffffffffffffffff

Linker script and memory map

LOAD uspace/lib/test-libdispcfg.p/dispcfg_test_main.c.o
LOAD uspace/lib/test-libdispcfg.p/dispcfg_test_dispcfg.c.o
START GROUP
LOAD uspace/lib/c/libstartfiles.a
LOAD uspace/lib/libdispcfg.a
LOAD uspace/lib/libc.so.0.0
LOAD uspace/lib/libpcut.a
LOAD /home/zyc/.local/share/HelenOS/cross/lib/gcc/amd64-helenos/13.2.0/libgcc.a
END GROUP
                0x0000000000400000                PROVIDE (__executable_start = SEGMENT_START ("text-segment", 0x400000))
                0x0000000000400120                . = (SEGMENT_START ("text-segment", 0x400000) + SIZEOF_HEADERS)

.interp
 *(.interp)

.note.gnu.build-id
 *(.note.gnu.build-id)

.hash           0x0000000000400120      0x23c
 *(.hash)
 .hash          0x0000000000400120      0x23c uspace/lib/test-libdispcfg.p/dispcfg_test_main.c.o

.gnu.hash
 *(.gnu.hash)

.dynsym         0x0000000000400360      0x6f0
 *(.dynsym)
 .dynsym        0x0000000000400360      0x6f0 uspace/lib/test-libdispcfg.p/dispcfg_test_main.c.o

.dynstr         0x0000000000400a50      0x43d
 *(.dynstr)
 .dynstr        0x0000000000400a50      0x43d uspace/lib/test-libdispcfg.p/dispcfg_test_main.c.o

.gnu.version    0x0000000000400e8e        0x0
 *(.gnu.version)
 .gnu.version   0x0000000000400e8e        0x0 uspace/lib/test-libdispcfg.p/dispcfg_test_main.c.o

.gnu.version_d  0x0000000000400e90        0x0
 *(.gnu.version_d)
 .gnu.version_d
                0x0000000000400e90        0x0 uspace/lib/test-libdispcfg.p/dispcfg_test_main.c.o

.gnu.version_r  0x0000000000400e90        0x0
 *(.gnu.version_r)
 .gnu.version_r
                0x0000000000400e90        0x0 uspace/lib/test-libdispcfg.p/dispcfg_test_main.c.o

.rela.dyn       0x0000000000400e90       0x48
 *(.rela.init)
 *(.rela.text .rela.text.* .rela.gnu.linkonce.t.*)
 .rela.text.__c_start
                0x0000000000400e90        0x0 uspace/lib/test-libdispcfg.p/dispcfg_test_main.c.o
 .rela.text.pcut_run_test_forking
                0x0000000000400e90        0x0 uspace/lib/test-libdispcfg.p/dispcfg_test_main.c.o
 .rela.text.pcut_main
                0x0000000000400e90        0x0 uspace/lib/test-libdispcfg.p/dispcfg_test_main.c.o
 *(.rela.fini)
 *(.rela.rodata .rela.rodata.* .rela.gnu.linkonce.r.*)
 .rela.rodata.cst8
                0x0000000000400e90        0x0 uspace/lib/test-libdispcfg.p/dispcfg_test_main.c.o
 *(.rela.data .rela.data.* .rela.gnu.linkonce.d.*)
 .rela.data.rel.ro
                0x0000000000400e90        0x0 uspace/lib/test-libdispcfg.p/dispcfg_test_main.c.o
 *(.rela.tdata .rela.tdata.* .rela.gnu.linkonce.td.*)
 *(.rela.tbss .rela.tbss.* .rela.gnu.linkonce.tb.*)
 *(.rela.ctors)
 *(.rela.dtors)
 *(.rela.got)
 .rela.got      0x0000000000400e90        0x0 uspace/lib/test-libdispcfg.p/dispcfg_test_main.c.o
 *(.rela.bss .rela.bss.* .rela.gnu.linkonce.b.*)
 .rela.bss      0x0000000000400e90       0x48 uspace/lib/test-libdispcfg.p/dispcfg_test_main.c.o
 *(.rela.ldata .rela.ldata.* .rela.gnu.linkonce.l.*)
 *(.rela.lbss .rela.lbss.* .rela.gnu.linkonce.lb.*)
 *(.rela.lrodata .rela.lrodata.* .rela.gnu.linkonce.lr.*)
 *(.rela.ifunc)

.rela.plt       0x0000000000400ed8      0x690
 *(.rela.plt)
 .rela.plt      0x0000000000400ed8      0x690 uspace/lib/test-libdispcfg.p/dispcfg_test_main.c.o
                [!provide]                        PROVIDE (__rela_iplt_start = .)
 *(.rela.iplt)
 .rela.iplt     0x0000000000401568        0x0 uspace/lib/test-libdispcfg.p/dispcfg_test_main.c.o
                [!provide]                        PROVIDE (__rela_iplt_end = .)

.relr.dyn
 *(.relr.dyn)

.init
 *(SORT_NONE(.init))

.plt            0x0000000000401570      0x470
 *(.plt)
 .plt           0x0000000000401570      0x470 uspace/lib/test-libdispcfg.p/dispcfg_test_main.c.o
                0x0000000000401580                longjmp
                0x0000000000401590                loc_service_connect
                0x00000000004015a0                printf
                0x00000000004015b0                async_hangup
                0x00000000004015c0                async_wait_for
                0x00000000004015d0                snprintf
                0x00000000004015e0                async_data_write_start
                0x00000000004015f0                task_wait
                0x0000000000401600                loc_service_register
                0x0000000000401610                async_get_call
                0x0000000000401620                async_data_read_finalize
                0x0000000000401630                async_send_1
                0x0000000000401640                memcpy
                0x0000000000401650                setvbuf
                0x0000000000401660                loc_server_unregister
                0x0000000000401670                puts
                0x0000000000401680                async_req_1_0
                0x0000000000401690                vsnprintf
                0x00000000004016a0                fibril_condvar_signal
                0x00000000004016b0                vfs_put
                0x00000000004016c0                loc_service_get_id
                0x00000000004016d0                async_answer_0
                0x00000000004016e0                vfs_unlink_path
                0x00000000004016f0                fibril_condvar_wait
                0x0000000000401700                task_spawnvf
                0x0000000000401710                strtol
                0x0000000000401720                async_exchange_end
                0x0000000000401730                str_chr
                0x0000000000401740                calloc
                0x0000000000401750                fibril_condvar_wait_timeout
                0x0000000000401760                fibril_condvar_initialize
                0x0000000000401770                fibril_condvar_broadcast
                0x0000000000401780                __context_save
                0x0000000000401790                fibril_mutex_unlock
                0x00000000004017a0                str_dup
                0x00000000004017b0                loc_service_unregister
                0x00000000004017c0                fibril_create
                0x00000000004017d0                task_kill
                0x00000000004017e0                async_create_callback_port
                0x00000000004017f0                str_cmp
                0x0000000000401800                async_msg_0
                0x0000000000401810                task_get_id
                0x0000000000401820                strdup
                0x0000000000401830                __helenos_assert_abort
                0x0000000000401840                async_data_read_receive
                0x0000000000401850                async_accept_0
                0x0000000000401860                vfs_read
                0x0000000000401870                async_data_read_start
                0x0000000000401880                str_cpy
                0x0000000000401890                asprintf
                0x00000000004018a0                loc_server_register
                0x00000000004018b0                str_size
                0x00000000004018c0                str_lcmp
                0x00000000004018d0                async_answer_1
                0x00000000004018e0                async_exchange_begin
                0x00000000004018f0                async_send_0
                0x0000000000401900                str_error
                0x0000000000401910                async_data_write_finalize
                0x0000000000401920                __libc_main
                0x0000000000401930                exit
                0x0000000000401940                async_forget
                0x0000000000401950                fibril_add_ready
                0x0000000000401960                fileno
                0x0000000000401970                async_req_2_0
                0x0000000000401980                vfs_lookup_open
                0x0000000000401990                async_set_fallback_port_handler
                0x00000000004019a0                async_data_write_receive
                0x00000000004019b0                async_callback_receive
                0x00000000004019c0                free
                0x00000000004019d0                fibril_mutex_lock
 *(.iplt)
 .iplt          0x00000000004019e0        0x0 uspace/lib/test-libdispcfg.p/dispcfg_test_main.c.o

.plt.got        0x00000000004019e0        0x0
 *(.plt.got)
 .plt.got       0x00000000004019e0        0x0 uspace/lib/test-libdispcfg.p/dispcfg_test_main.c.o

.plt.sec
 *(.plt.sec)

.text           0x00000000004019e0     0x6f6a
 *(.text.unlikely .text.*_unlikely .text.unlikely.*)
 *(.text.exit .text.exit.*)
 *(.text.startup .text.startup.*)
 .text.startup.main
                0x00000000004019e0       0x14 uspace/lib/test-libdispcfg.p/dispcfg_test_main.c.o
                0x00000000004019e0                main
 *(.text.hot .text.hot.*)
 *(SORT_BY_NAME(.text.sorted.*))
 *(.text .stub .text.* .gnu.linkonce.t.*)
 *fill*         0x00000000004019f4        0xc 
 .text.test_seat_removed_deliver
                0x0000000000401a00      0x3a3 uspace/lib/test-libdispcfg.p/dispcfg_test_dispcfg.c.o
 *fill*         0x0000000000401da3        0xd 
 .text.test_seat_added_deliver
                0x0000000000401db0      0x3a3 uspace/lib/test-libdispcfg.p/dispcfg_test_dispcfg.c.o
 *fill*         0x0000000000402153        0xd 
 .text.test_open_close
                0x0000000000402160      0x29b uspace/lib/test-libdispcfg.p/dispcfg_test_dispcfg.c.o
 *fill*         0x00000000004023fb        0x5 
 .text.test_get_asgn_dev_list_failure
                0x0000000000402400      0x3ad uspace/lib/test-libdispcfg.p/dispcfg_test_dispcfg.c.o
 *fill*         0x00000000004027ad        0x3 
 .text.test_get_asgn_dev_list_success
                0x00000000004027b0      0x515 uspace/lib/test-libdispcfg.p/dispcfg_test_dispcfg.c.o
 *fill*         0x0000000000402cc5        0xb 
 .text.test_dev_unassign_success
                0x0000000000402cd0      0x39d uspace/lib/test-libdispcfg.p/dispcfg_test_dispcfg.c.o
 *fill*         0x000000000040306d        0x3 
 .text.test_dev_unassign_failure
                0x0000000000403070      0x39d uspace/lib/test-libdispcfg.p/dispcfg_test_dispcfg.c.o
 *fill*         0x000000000040340d        0x3 
 .text.test_dev_assign_success
                0x0000000000403410      0x3dd uspace/lib/test-libdispcfg.p/dispcfg_test_dispcfg.c.o
 *fill*         0x00000000004037ed        0x3 
 .text.test_dev_assign_failure
                0x00000000004037f0      0x3dd uspace/lib/test-libdispcfg.p/dispcfg_test_dispcfg.c.o
 *fill*         0x0000000000403bcd        0x3 
 .text.test_seat_delete_success
                0x0000000000403bd0      0x39d uspace/lib/test-libdispcfg.p/dispcfg_test_dispcfg.c.o
 *fill*         0x0000000000403f6d        0x3 
 .text.test_seat_delete_failure
                0x0000000000403f70      0x39d uspace/lib/test-libdispcfg.p/dispcfg_test_dispcfg.c.o
 *fill*         0x000000000040430d        0x3 
 .text.test_seat_create_success
                0x0000000000404310      0x44d uspace/lib/test-libdispcfg.p/dispcfg_test_dispcfg.c.o
 *fill*         0x000000000040475d        0x3 
 .text.test_seat_create_failure
                0x0000000000404760      0x40d uspace/lib/test-libdispcfg.p/dispcfg_test_dispcfg.c.o
 *fill*         0x0000000000404b6d        0x3 
 .text.test_get_seat_info_failure
                0x0000000000404b70      0x3ad uspace/lib/test-libdispcfg.p/dispcfg_test_dispcfg.c.o
 *fill*         0x0000000000404f1d        0x3 
 .text.test_get_seat_info_success
                0x0000000000404f20      0x4b7 uspace/lib/test-libdispcfg.p/dispcfg_test_dispcfg.c.o
 *fill*         0x00000000004053d7        0x9 
 .text.test_get_seat_list_failure
                0x00000000004053e0      0x36d uspace/lib/test-libdispcfg.p/dispcfg_test_dispcfg.c.o
 *fill*         0x000000000040574d        0x3 
 .text.test_get_seat_list_success
                0x0000000000405750      0x4d5 uspace/lib/test-libdispcfg.p/dispcfg_test_dispcfg.c.o
 .text          0x0000000000405c25        0xc uspace/lib/c/libstartfiles.a.p/arch_amd64_src_crt0.S.o
                0x0000000000405c25                _start
 *fill*         0x0000000000405c31        0xf 
 .text.__c_start
                0x0000000000405c40       0x8c uspace/lib/c/libstartfiles.a.p/generic_crt_crt1.c.o
                0x0000000000405c40                __c_start
 *fill*         0x0000000000405ccc        0x4 
 .text.dispcfg_cb_conn
                0x0000000000405cd0      0x1b3 uspace/lib/libdispcfg.a.p/dispcfg_src_dispcfg.c.o
 *fill*         0x0000000000405e83        0xd 
 .text.dispcfg_open
                0x0000000000405e90      0x15b uspace/lib/libdispcfg.a.p/dispcfg_src_dispcfg.c.o
                0x0000000000405e90                dispcfg_open
 *fill*         0x0000000000405feb        0x5 
 .text.dispcfg_close
                0x0000000000405ff0       0x63 uspace/lib/libdispcfg.a.p/dispcfg_src_dispcfg.c.o
                0x0000000000405ff0                dispcfg_close
 *fill*         0x0000000000406053        0xd 
 .text.dispcfg_get_seat_list
                0x0000000000406060      0x146 uspace/lib/libdispcfg.a.p/dispcfg_src_dispcfg.c.o
                0x0000000000406060                dispcfg_get_seat_list
 *fill*         0x00000000004061a6        0xa 
 .text.dispcfg_free_seat_list
                0x00000000004061b0       0x22 uspace/lib/libdispcfg.a.p/dispcfg_src_dispcfg.c.o
                0x00000000004061b0                dispcfg_free_seat_list
 *fill*         0x00000000004061d2        0xe 
 .text.dispcfg_get_seat_info
                0x00000000004061e0      0x146 uspace/lib/libdispcfg.a.p/dispcfg_src_dispcfg.c.o
                0x00000000004061e0                dispcfg_get_seat_info
 *fill*         0x0000000000406326        0xa 
 .text.dispcfg_free_seat_info
                0x0000000000406330       0x21 uspace/lib/libdispcfg.a.p/dispcfg_src_dispcfg.c.o
                0x0000000000406330                dispcfg_free_seat_info
 *fill*         0x0000000000406351        0xf 
 .text.dispcfg_seat_create
                0x0000000000406360       0xbd uspace/lib/libdispcfg.a.p/dispcfg_src_dispcfg.c.o
                0x0000000000406360                dispcfg_seat_create
 *fill*         0x000000000040641d        0x3 
 .text.dispcfg_seat_delete
                0x0000000000406420       0x38 uspace/lib/libdispcfg.a.p/dispcfg_src_dispcfg.c.o
                0x0000000000406420                dispcfg_seat_delete
 *fill*         0x0000000000406458        0x8 
 .text.dispcfg_dev_assign
                0x0000000000406460       0x4a uspace/lib/libdispcfg.a.p/dispcfg_src_dispcfg.c.o
                0x0000000000406460                dispcfg_dev_assign
 *fill*         0x00000000004064aa        0x6 
 .text.dispcfg_dev_unassign
                0x00000000004064b0       0x38 uspace/lib/libdispcfg.a.p/dispcfg_src_dispcfg.c.o
                0x00000000004064b0                dispcfg_dev_unassign
 *fill*         0x00000000004064e8        0x8 
 .text.dispcfg_get_asgn_dev_list
                0x00000000004064f0      0x146 uspace/lib/libdispcfg.a.p/dispcfg_src_dispcfg.c.o
                0x00000000004064f0                dispcfg_get_asgn_dev_list
 *fill*         0x0000000000406636        0xa 
 .text.dispcfg_free_dev_list
                0x0000000000406640       0x22 uspace/lib/libdispcfg.a.p/dispcfg_src_dispcfg.c.o
                0x0000000000406640                dispcfg_free_dev_list
 *fill*         0x0000000000406662        0xe 
 .text.dispcfg_conn
                0x0000000000406670      0x6e7 uspace/lib/libdispcfg.a.p/dispcfg_src_dispcfg_srv.c.o
                0x0000000000406670                dispcfg_conn
 *fill*         0x0000000000406d57        0x9 
 .text.dispcfg_srv_initialize
                0x0000000000406d60       0x15 uspace/lib/libdispcfg.a.p/dispcfg_src_dispcfg_srv.c.o
                0x0000000000406d60                dispcfg_srv_initialize
 *fill*         0x0000000000406d75        0xb 
 .text.dispcfg_srv_ev_pending
                0x0000000000406d80       0x2e uspace/lib/libdispcfg.a.p/dispcfg_src_dispcfg_srv.c.o
                0x0000000000406d80                dispcfg_srv_ev_pending
 *fill*         0x0000000000406dae        0x2 
 .text.test_get_seat_list
                0x0000000000406db0       0x17 uspace/lib/libdispcfg.a.p/dispcfg_src_testdc.c.o
 *fill*         0x0000000000406dc7        0x9 
 .text.test_get_seat_info
                0x0000000000406dd0       0x1b uspace/lib/libdispcfg.a.p/dispcfg_src_testdc.c.o
 *fill*         0x0000000000406deb        0x5 
 .text.test_seat_delete
                0x0000000000406df0       0x10 uspace/lib/libdispcfg.a.p/dispcfg_src_testdc.c.o
 .text.test_dev_assign
                0x0000000000406e00       0x1d uspace/lib/libdispcfg.a.p/dispcfg_src_testdc.c.o
 *fill*         0x0000000000406e1d        0x3 
 .text.test_dev_unassign
                0x0000000000406e20       0x16 uspace/lib/libdispcfg.a.p/dispcfg_src_testdc.c.o
 *fill*         0x0000000000406e36        0xa 
 .text.test_get_asgn_dev_list
                0x0000000000406e40       0x24 uspace/lib/libdispcfg.a.p/dispcfg_src_testdc.c.o
 *fill*         0x0000000000406e64        0xc 
 .text.test_get_event
                0x0000000000406e70       0x2b uspace/lib/libdispcfg.a.p/dispcfg_src_testdc.c.o
 *fill*         0x0000000000406e9b        0x5 
 .text.test_seat_removed
                0x0000000000406ea0       0x55 uspace/lib/libdispcfg.a.p/dispcfg_src_testdc.c.o
 *fill*         0x0000000000406ef5        0xb 
 .text.test_seat_added
                0x0000000000406f00       0x55 uspace/lib/libdispcfg.a.p/dispcfg_src_testdc.c.o
 *fill*         0x0000000000406f55        0xb 
 .text.test_seat_create
                0x0000000000406f60       0x2c uspace/lib/libdispcfg.a.p/dispcfg_src_testdc.c.o
 *fill*         0x0000000000406f8c        0x4 
 .text.test_dispcfg_conn
                0x0000000000406f90       0x53 uspace/lib/libdispcfg.a.p/dispcfg_src_testdc.c.o
                0x0000000000406f90                test_dispcfg_conn
 *fill*         0x0000000000406fe3        0xd 
 .text.test_timeout_handler_fibril
                0x0000000000406ff0       0x6c uspace/lib/libpcut.a.p/pcut_src_os_helenos.c.o
 *fill*         0x000000000040705c        0x4 
 .text.pcut_str_equals
                0x0000000000407060       0x13 uspace/lib/libpcut.a.p/pcut_src_os_helenos.c.o
                0x0000000000407060                pcut_str_equals
 *fill*         0x0000000000407073        0xd 
 .text.pcut_str_start_equals
                0x0000000000407080       0x16 uspace/lib/libpcut.a.p/pcut_src_os_helenos.c.o
                0x0000000000407080                pcut_str_start_equals
 *fill*         0x0000000000407096        0xa 
 .text.pcut_str_size
                0x00000000004070a0        0xb uspace/lib/libpcut.a.p/pcut_src_os_helenos.c.o
                0x00000000004070a0                pcut_str_size
 *fill*         0x00000000004070ab        0x5 
 .text.pcut_str_to_int
                0x00000000004070b0       0x12 uspace/lib/libpcut.a.p/pcut_src_os_helenos.c.o
                0x00000000004070b0                pcut_str_to_int
 *fill*         0x00000000004070c2        0xe 
 .text.pcut_str_find_char
                0x00000000004070d0        0xe uspace/lib/libpcut.a.p/pcut_src_os_helenos.c.o
                0x00000000004070d0                pcut_str_find_char
 *fill*         0x00000000004070de        0x2 
 .text.pcut_str_error
                0x00000000004070e0       0x2f uspace/lib/libpcut.a.p/pcut_src_os_helenos.c.o
                0x00000000004070e0                pcut_str_error
 *fill*         0x000000000040710f        0x1 
 .text.pcut_run_test_forking
                0x0000000000407110      0x249 uspace/lib/libpcut.a.p/pcut_src_os_helenos.c.o
                0x0000000000407110                pcut_run_test_forking
 *fill*         0x0000000000407359        0x7 
 .text.pcut_hook_before_test
                0x0000000000407360        0x6 uspace/lib/libpcut.a.p/pcut_src_os_helenos.c.o
                0x0000000000407360                pcut_hook_before_test
 *fill*         0x0000000000407366        0xa 
 .text.pcut_failed_assertion_fmt
                0x0000000000407370      0x10a uspace/lib/libpcut.a.p/pcut_src_assert.c.o
                0x0000000000407370                pcut_failed_assertion_fmt
 *fill*         0x000000000040747a        0x6 
 .text.pcut_snprintf
                0x0000000000407480       0x7f uspace/lib/libpcut.a.p/pcut_src_helper.c.o
                0x0000000000407480                pcut_snprintf
 *fill*         0x00000000004074ff        0x1 
 .text.run_suite
                0x0000000000407500       0xec uspace/lib/libpcut.a.p/pcut_src_main.c.o
 *fill*         0x00000000004075ec        0x4 
 .text.pcut_main
                0x00000000004075f0      0x447 uspace/lib/libpcut.a.p/pcut_src_main.c.o
                0x00000000004075f0                pcut_main
 *fill*         0x0000000000407a37        0x9 
 .text.pcut_print_tests
                0x0000000000407a40       0x99 uspace/lib/libpcut.a.p/pcut_src_print.c.o
                0x0000000000407a40                pcut_print_tests
 *fill*         0x0000000000407ad9        0x7 
 .text.pcut_print_fail_message
                0x0000000000407ae0       0x41 uspace/lib/libpcut.a.p/pcut_src_report_report.c.o
                0x0000000000407ae0                pcut_print_fail_message
 *fill*         0x0000000000407b21        0xf 
 .text.pcut_report_register_handler
                0x0000000000407b30        0xd uspace/lib/libpcut.a.p/pcut_src_report_report.c.o
                0x0000000000407b30                pcut_report_register_handler
 *fill*         0x0000000000407b3d        0x3 
 .text.pcut_report_init
                0x0000000000407b40       0x22 uspace/lib/libpcut.a.p/pcut_src_report_report.c.o
                0x0000000000407b40                pcut_report_init
 *fill*         0x0000000000407b62        0xe 
 .text.pcut_report_suite_start
                0x0000000000407b70       0x22 uspace/lib/libpcut.a.p/pcut_src_report_report.c.o
                0x0000000000407b70                pcut_report_suite_start
 *fill*         0x0000000000407b92        0xe 
 .text.pcut_report_suite_done
                0x0000000000407ba0       0x22 uspace/lib/libpcut.a.p/pcut_src_report_report.c.o
                0x0000000000407ba0                pcut_report_suite_done
 *fill*         0x0000000000407bc2        0xe 
 .text.pcut_report_test_start
                0x0000000000407bd0       0x22 uspace/lib/libpcut.a.p/pcut_src_report_report.c.o
                0x0000000000407bd0                pcut_report_test_start
 *fill*         0x0000000000407bf2        0xe 
 .text.pcut_report_test_done
                0x0000000000407c00       0x22 uspace/lib/libpcut.a.p/pcut_src_report_report.c.o
                0x0000000000407c00                pcut_report_test_done
 *fill*         0x0000000000407c22        0xe 
 .text.pcut_report_test_done_unparsed
                0x0000000000407c30      0x15a uspace/lib/libpcut.a.p/pcut_src_report_report.c.o
                0x0000000000407c30                pcut_report_test_done_unparsed
 *fill*         0x0000000000407d8a        0x6 
 .text.pcut_report_done
                0x0000000000407d90       0x22 uspace/lib/libpcut.a.p/pcut_src_report_report.c.o
                0x0000000000407d90                pcut_report_done
 *fill*         0x0000000000407db2        0xe 
 .text.tap_test_start
                0x0000000000407dc0       0x14 uspace/lib/libpcut.a.p/pcut_src_report_tap.c.o
 *fill*         0x0000000000407dd4        0xc 
 .text.tap_suite_start
                0x0000000000407de0       0x29 uspace/lib/libpcut.a.p/pcut_src_report_tap.c.o
 *fill*         0x0000000000407e09        0x7 
 .text.tap_init
                0x0000000000407e10       0x2c uspace/lib/libpcut.a.p/pcut_src_report_tap.c.o
 *fill*         0x0000000000407e3c        0x4 
 .text.tap_done
                0x0000000000407e40       0x42 uspace/lib/libpcut.a.p/pcut_src_report_tap.c.o
 *fill*         0x0000000000407e82        0xe 
 .text.tap_suite_done
                0x0000000000407e90       0x33 uspace/lib/libpcut.a.p/pcut_src_report_tap.c.o
 *fill*         0x0000000000407ec3        0xd 
 .text.tap_test_done
                0x0000000000407ed0      0x246 uspace/lib/libpcut.a.p/pcut_src_report_tap.c.o
 *fill*         0x0000000000408116        0xa 
 .text.xml_test_start
                0x0000000000408120       0x14 uspace/lib/libpcut.a.p/pcut_src_report_xml.c.o
 *fill*         0x0000000000408134        0xc 
 .text.xml_suite_done
                0x0000000000408140       0x21 uspace/lib/libpcut.a.p/pcut_src_report_xml.c.o
 *fill*         0x0000000000408161        0xf 
 .text.xml_suite_start
                0x0000000000408170       0x29 uspace/lib/libpcut.a.p/pcut_src_report_xml.c.o
 *fill*         0x0000000000408199        0x7 
 .text.xml_done
                0x00000000004081a0        0xf uspace/lib/libpcut.a.p/pcut_src_report_xml.c.o
 *fill*         0x00000000004081af        0x1 
 .text.xml_init
                0x00000000004081b0       0x37 uspace/lib/libpcut.a.p/pcut_src_report_xml.c.o
 *fill*         0x00000000004081e7        0x9 
 .text.xml_test_done
                0x00000000004081f0      0x1dd uspace/lib/libpcut.a.p/pcut_src_report_xml.c.o
 *fill*         0x00000000004083cd        0x3 
 .text.run_test
                0x00000000004083d0      0x135 uspace/lib/libpcut.a.p/pcut_src_run.c.o
 *fill*         0x0000000000408505        0xb 
 .text.pcut_failed_assertion
                0x0000000000408510       0xca uspace/lib/libpcut.a.p/pcut_src_run.c.o
                0x0000000000408510                pcut_failed_assertion
 *fill*         0x00000000004085da        0x6 
 .text.pcut_run_test_forked
                0x00000000004085e0       0x3f uspace/lib/libpcut.a.p/pcut_src_run.c.o
                0x00000000004085e0                pcut_run_test_forked
 *fill*         0x000000000040861f        0x1 
 .text.pcut_run_test_single
                0x0000000000408620       0x3f uspace/lib/libpcut.a.p/pcut_src_run.c.o
                0x0000000000408620                pcut_run_test_single
 *fill*         0x000000000040865f        0x1 
 .text.pcut_get_test_timeout
                0x0000000000408660       0x2f uspace/lib/libpcut.a.p/pcut_src_run.c.o
                0x0000000000408660                pcut_get_test_timeout
 *fill*         0x000000000040868f        0x1 
 .text.pcut_get_real_next
                0x0000000000408690       0x22 uspace/lib/libpcut.a.p/pcut_src_list.c.o
                0x0000000000408690                pcut_get_real_next
 *fill*         0x00000000004086b2        0xe 
 .text.pcut_get_real
                0x00000000004086c0       0x2a uspace/lib/libpcut.a.p/pcut_src_list.c.o
                0x00000000004086c0                pcut_get_real
 *fill*         0x00000000004086ea        0x6 
 .text.pcut_fix_list_get_real_head
                0x00000000004086f0      0x219 uspace/lib/libpcut.a.p/pcut_src_list.c.o
                0x00000000004086f0                pcut_fix_list_get_real_head
 *fill*         0x0000000000408909        0x7 
 .text.pcut_count_tests
                0x0000000000408910       0x3a uspace/lib/libpcut.a.p/pcut_src_list.c.o
                0x0000000000408910                pcut_count_tests
 *(.gnu.warning)

.fini
 *(SORT_NONE(.fini))
                [!provide]                        PROVIDE (__etext = .)
                [!provide]                        PROVIDE (_etext = .)
                [!provide]                        PROVIDE (etext = .)

.rodata         0x0000000000408950      0xad8
 *(.rodata .rodata.* .gnu.linkonce.r.*)
 .rodata.str1.1
                0x0000000000408950      0x604 uspace/lib/test-libdispcfg.p/dispcfg_test_main.c.o
                                         0x21 (size before relaxing)
 .rodata.test_seat_removed_deliver.str1.1
                0x0000000000408f54       0x42 uspace/lib/test-libdispcfg.p/dispcfg_test_dispcfg.c.o
 *fill*         0x0000000000408f54        0x4 
 .rodata.test_seat_removed_deliver.str1.8
                0x0000000000408f58      0x454 uspace/lib/test-libdispcfg.p/dispcfg_test_dispcfg.c.o
                                         0xe2 (size before relaxing)
 .rodata.test_get_asgn_dev_list_failure.str1.1
                0x00000000004093ac       0x49 uspace/lib/test-libdispcfg.p/dispcfg_test_dispcfg.c.o
 .rodata.test_get_asgn_dev_list_failure.str1.8
                0x00000000004093ac       0x1f uspace/lib/test-libdispcfg.p/dispcfg_test_dispcfg.c.o
 .rodata.test_get_asgn_dev_list_success.str1.8
                0x00000000004093ac       0x82 uspace/lib/test-libdispcfg.p/dispcfg_test_dispcfg.c.o
 .rodata.test_get_asgn_dev_list_success.str1.1
                0x00000000004093ac       0x30 uspace/lib/test-libdispcfg.p/dispcfg_test_dispcfg.c.o
 .rodata.test_dev_unassign_success.str1.1
                0x00000000004093ac       0x39 uspace/lib/test-libdispcfg.p/dispcfg_test_dispcfg.c.o
 .rodata.test_dev_assign_success.str1.1
                0x00000000004093ac       0x46 uspace/lib/test-libdispcfg.p/dispcfg_test_dispcfg.c.o
 .rodata.test_seat_delete_success.str1.1
                0x00000000004093ac       0x31 uspace/lib/test-libdispcfg.p/dispcfg_test_dispcfg.c.o
 .rodata.test_seat_create_success.str1.1
                0x00000000004093ac       0x55 uspace/lib/test-libdispcfg.p/dispcfg_test_dispcfg.c.o
 .rodata.test_seat_create_success.str1.8
                0x00000000004093ac       0x5e uspace/lib/test-libdispcfg.p/dispcfg_test_dispcfg.c.o
 .rodata.test_get_seat_info_failure.str1.1
                0x00000000004093ac       0x35 uspace/lib/test-libdispcfg.p/dispcfg_test_dispcfg.c.o
 .rodata.test_get_seat_info_success.str1.8
                0x00000000004093ac       0xa2 uspace/lib/test-libdispcfg.p/dispcfg_test_dispcfg.c.o
 .rodata.test_get_seat_info_success.str1.1
                0x00000000004093ac       0x19 uspace/lib/test-libdispcfg.p/dispcfg_test_dispcfg.c.o
 .rodata.test_get_seat_list_failure.str1.1
                0x00000000004093ac       0x1a uspace/lib/test-libdispcfg.p/dispcfg_test_dispcfg.c.o
 .rodata.test_get_seat_list_success.str1.8
                0x00000000004093ac       0x77 uspace/lib/test-libdispcfg.p/dispcfg_test_dispcfg.c.o
 .rodata.test_get_seat_list_success.str1.1
                0x00000000004093ac       0x31 uspace/lib/test-libdispcfg.p/dispcfg_test_dispcfg.c.o
 .rodata.str1.1
                0x00000000004093ac      0x185 uspace/lib/test-libdispcfg.p/dispcfg_test_dispcfg.c.o
 *fill*         0x00000000004093ac        0x4 
 .rodata.cst16  0x00000000004093b0       0x20 uspace/lib/test-libdispcfg.p/dispcfg_test_dispcfg.c.o
 .rodata.cst8   0x00000000004093d0        0x8 uspace/lib/c/libstartfiles.a.p/generic_crt_crt1.c.o
 .rodata.dispcfg_open.str1.1
                0x00000000004093d8        0xc uspace/lib/libdispcfg.a.p/dispcfg_src_dispcfg.c.o
 .rodata.dispcfg_conn
                0x00000000004093d8       0x48 uspace/lib/libdispcfg.a.p/dispcfg_src_dispcfg_srv.c.o
 .rodata.pcut_str_error.str1.1
                0x0000000000409420       0x13 uspace/lib/libpcut.a.p/pcut_src_os_helenos.c.o
 .rodata.pcut_run_test_forking.str1.1
                0x0000000000409420       0x13 uspace/lib/libpcut.a.p/pcut_src_os_helenos.c.o
 .rodata.pcut_run_test_forking.str1.8
                0x0000000000409420       0x21 uspace/lib/libpcut.a.p/pcut_src_os_helenos.c.o
 .rodata.pcut_failed_assertion_fmt.str1.1
                0x0000000000409420        0x8 uspace/lib/libpcut.a.p/pcut_src_assert.c.o
 .rodata.pcut_main.str1.1
                0x0000000000409420       0x80 uspace/lib/libpcut.a.p/pcut_src_main.c.o
 .rodata.pcut_print_tests.str1.1
                0x0000000000409420       0x27 uspace/lib/libpcut.a.p/pcut_src_print.c.o
 .rodata.pcut_print_tests.str1.8
                0x0000000000409420       0x5c uspace/lib/libpcut.a.p/pcut_src_print.c.o
 .rodata.pcut_print_fail_message.str1.1
                0x0000000000409420        0xc uspace/lib/libpcut.a.p/pcut_src_report_report.c.o
 .rodata.tap_suite_start.str1.1
                0x0000000000409420       0x17 uspace/lib/libpcut.a.p/pcut_src_report_tap.c.o
 .rodata.tap_init.str1.1
                0x0000000000409420        0x7 uspace/lib/libpcut.a.p/pcut_src_report_tap.c.o
 .rodata.tap_done.str1.1
                0x0000000000409420       0x30 uspace/lib/libpcut.a.p/pcut_src_report_tap.c.o
 .rodata.tap_done.str1.8
                0x0000000000409420       0x21 uspace/lib/libpcut.a.p/pcut_src_report_tap.c.o
 .rodata.tap_suite_done.str1.8
                0x0000000000409420       0x49 uspace/lib/libpcut.a.p/pcut_src_report_tap.c.o
 .rodata.tap_test_done.str1.1
                0x0000000000409420       0x49 uspace/lib/libpcut.a.p/pcut_src_report_tap.c.o
 .rodata.xml_suite_done.str1.8
                0x0000000000409420       0x1f uspace/lib/libpcut.a.p/pcut_src_report_xml.c.o
 .rodata.xml_suite_start.str1.1
                0x0000000000409420       0x14 uspace/lib/libpcut.a.p/pcut_src_report_xml.c.o
 .rodata.xml_done.str1.1
                0x0000000000409420        0xa uspace/lib/libpcut.a.p/pcut_src_report_xml.c.o
 .rodata.xml_init.str1.1
                0x0000000000409420       0x31 uspace/lib/libpcut.a.p/pcut_src_report_xml.c.o
 .rodata.xml_test_done.str1.1
                0x0000000000409420       0x63 uspace/lib/libpcut.a.p/pcut_src_report_xml.c.o
 .rodata.xml_test_done.str1.8
                0x0000000000409420       0x24 uspace/lib/libpcut.a.p/pcut_src_report_xml.c.o
 .rodata.run_test.str1.1
                0x0000000000409420        0x8 uspace/lib/libpcut.a.p/pcut_src_run.c.o
 .rodata.cst8   0x0000000000409420        0x8 uspace/lib/libpcut.a.p/pcut_src_run.c.o

.rodata1
 *(.rodata1)

.eh_frame_hdr   0x0000000000409428      0x2e4
 *(.eh_frame_hdr)
 .eh_frame_hdr  0x0000000000409428      0x2e4 uspace/lib/test-libdispcfg.p/dispcfg_test_main.c.o
                0x0000000000409428                __GNU_EH_FRAME_HDR
 *(.eh_frame_entry .eh_frame_entry.*)

.eh_frame       0x0000000000409710      0xdd8
 *(.eh_frame)
 .eh_frame      0x0000000000409710       0x38 uspace/lib/test-libdispcfg.p/dispcfg_test_main.c.o
 .eh_frame      0x0000000000409748       0x28 uspace/lib/test-libdispcfg.p/dispcfg_test_main.c.o
                                         0x40 (size before relaxing)
 .eh_frame      0x0000000000409770        0x0 uspace/lib/test-libdispcfg.p/dispcfg_test_main.c.o
 .eh_frame      0x0000000000409770      0x2e0 uspace/lib/test-libdispcfg.p/dispcfg_test_dispcfg.c.o
                                        0x2f8 (size before relaxing)
 .eh_frame      0x0000000000409a50       0x20 uspace/lib/c/libstartfiles.a.p/generic_crt_crt1.c.o
                                         0x38 (size before relaxing)
 .eh_frame      0x0000000000409a70      0x220 uspace/lib/libdispcfg.a.p/dispcfg_src_dispcfg.c.o
                                        0x238 (size before relaxing)
 .eh_frame      0x0000000000409c90       0x70 uspace/lib/libdispcfg.a.p/dispcfg_src_dispcfg_srv.c.o
                                         0x88 (size before relaxing)
 .eh_frame      0x0000000000409d00      0x180 uspace/lib/libdispcfg.a.p/dispcfg_src_testdc.c.o
                                        0x198 (size before relaxing)
 .eh_frame      0x0000000000409e80      0x140 uspace/lib/libpcut.a.p/pcut_src_os_helenos.c.o
                                        0x158 (size before relaxing)
 .eh_frame      0x0000000000409fc0       0x28 uspace/lib/libpcut.a.p/pcut_src_assert.c.o
                                         0x40 (size before relaxing)
 .eh_frame      0x0000000000409fe8       0x20 uspace/lib/libpcut.a.p/pcut_src_helper.c.o
                                         0x38 (size before relaxing)
 .eh_frame      0x000000000040a008       0x60 uspace/lib/libpcut.a.p/pcut_src_main.c.o
                                         0xa0 (size before relaxing)
 .eh_frame      0x000000000040a068       0x28 uspace/lib/libpcut.a.p/pcut_src_print.c.o
                                         0x60 (size before relaxing)
 .eh_frame      0x000000000040a090      0x160 uspace/lib/libpcut.a.p/pcut_src_report_report.c.o
                                        0x178 (size before relaxing)
 .eh_frame      0x000000000040a1f0       0xe8 uspace/lib/libpcut.a.p/pcut_src_report_tap.c.o
                                        0x100 (size before relaxing)
 .eh_frame      0x000000000040a2d8       0xd0 uspace/lib/libpcut.a.p/pcut_src_report_xml.c.o
                                         0xe8 (size before relaxing)
 .eh_frame      0x000000000040a3a8       0xa8 uspace/lib/libpcut.a.p/pcut_src_run.c.o
                                         0xc0 (size before relaxing)
 .eh_frame      0x000000000040a450       0x98 uspace/lib/libpcut.a.p/pcut_src_list.c.o
                                         0xb0 (size before relaxing)
 *(.eh_frame.*)

.sframe         0x000000000040a4e8        0x0
 *(.sframe)
 .sframe        0x000000000040a4e8        0x0 uspace/lib/test-libdispcfg.p/dispcfg_test_main.c.o
 *(.sframe.*)

.gcc_except_table
 *(.gcc_except_table .gcc_except_table.*)

.gnu_extab
 *(.gnu_extab*)

.exception_ranges
 *(.exception_ranges*)
                0x000000000040b4e8                . = DATA_SEGMENT_ALIGN (CONSTANT (MAXPAGESIZE), CONSTANT (COMMONPAGESIZE))

.eh_frame
 *(.eh_frame)
 *(.eh_frame.*)

.sframe
 *(.sframe)
 *(.sframe.*)

.gnu_extab
 *(.gnu_extab)

.gcc_except_table
 *(.gcc_except_table .gcc_except_table.*)

.exception_ranges
 *(.exception_ranges*)

.tdata          0x000000000040b4e8        0x0
                [!provide]                        PROVIDE (__tdata_start = .)
 *(.tdata .tdata.* .gnu.linkonce.td.*)

.tbss
 *(.tbss .tbss.* .gnu.linkonce.tb.*)
 *(.tcommon)

.preinit_array  0x000000000040b4e8        0x0
                0x000000000040b4e8                PROVIDE (__preinit_array_start = .)
 *(.preinit_array)
                0x000000000040b4e8                PROVIDE (__preinit_array_end = .)

.init_array     0x000000000040b4e8        0x0
                0x000000000040b4e8                PROVIDE (__init_array_start = .)
 *(SORT_BY_INIT_PRIORITY(.init_array.*) SORT_BY_INIT_PRIORITY(.ctors.*))
 *(.init_array EXCLUDE_FILE(*crtend?.o *crtend.o *crtbegin?.o *crtbegin.o) .ctors)
                0x000000000040b4e8                PROVIDE (__init_array_end = .)

.fini_array     0x000000000040b4e8        0x0
                0x000000000040b4e8                PROVIDE (__fini_array_start = .)
 *(SORT_BY_INIT_PRIORITY(.fini_array.*) SORT_BY_INIT_PRIORITY(.dtors.*))
 *(.fini_array EXCLUDE_FILE(*crtend?.o *crtend.o *crtbegin?.o *crtbegin.o) .dtors)
                0x000000000040b4e8                PROVIDE (__fini_array_end = .)

.ctors
 *crtbegin.o(.ctors)
 *crtbegin?.o(.ctors)
 *(EXCLUDE_FILE(*crtend?.o *crtend.o) .ctors)
 *(SORT_BY_NAME(.ctors.*))
 *(.ctors)

.dtors
 *crtbegin.o(.dtors)
 *crtbegin?.o(.dtors)
 *(EXCLUDE_FILE(*crtend?.o *crtend.o) .dtors)
 *(SORT_BY_NAME(.dtors.*))
 *(.dtors)

.jcr
 *(.jcr)

.data.rel.ro    0x000000000040b4e8        0x0
 *(.data.rel.ro.local* .gnu.linkonce.d.rel.ro.local.*)
 *(.data.rel.ro .data.rel.ro.* .gnu.linkonce.d.rel.ro.*)
 .data.rel.ro   0x000000000040b4e8        0x0 uspace/lib/test-libdispcfg.p/dispcfg_test_main.c.o

.dynamic        0x000000000040b4e8      0x150
 *(.dynamic)
 .dynamic       0x000000000040b4e8      0x150 uspace/lib/test-libdispcfg.p/dispcfg_test_main.c.o
                0x000000000040b4e8                _DYNAMIC

.got            0x000000000040b638        0x0
 *(.got)
 .got           0x000000000040b638        0x0 uspace/lib/test-libdispcfg.p/dispcfg_test_main.c.o
 *(.igot)
                0x000000000040b638                . = DATA_SEGMENT_RELRO_END (., (SIZEOF (.got.plt) >= 0x18)?0x18:0x0)

.got.plt        0x000000000040b638      0x248
 *(.got.plt)
 .got.plt       0x000000000040b638      0x248 uspace/lib/test-libdispcfg.p/dispcfg_test_main.c.o
                0x000000000040b638                _GLOBAL_OFFSET_TABLE_
 *(.igot.plt)
 .igot.plt      0x000000000040b880        0x0 uspace/lib/test-libdispcfg.p/dispcfg_test_main.c.o

.data           0x000000000040b880      0xa90
 *(.data .data.* .gnu.linkonce.d.*)
 .data.pcut_item_last
                0x000000000040b880       0x50 uspace/lib/test-libdispcfg.p/dispcfg_test_main.c.o
 .data.pcut_main_extras
                0x000000000040b8d0       0x18 uspace/lib/test-libdispcfg.p/dispcfg_test_main.c.o
 *fill*         0x000000000040b8e8       0x18 
 .data.pcut_item_2
                0x000000000040b900       0x50 uspace/lib/test-libdispcfg.p/dispcfg_test_main.c.o
 *fill*         0x000000000040b950       0x10 
 .data.pcut_item_1
                0x000000000040b960       0x50 uspace/lib/test-libdispcfg.p/dispcfg_test_main.c.o
 *fill*         0x000000000040b9b0       0x10 
 .data.pcut_item_0
                0x000000000040b9c0       0x50 uspace/lib/test-libdispcfg.p/dispcfg_test_main.c.o
 *fill*         0x000000000040ba10       0x10 
 .data.pcut_exported_dispcfg
                0x000000000040ba20       0x50 uspace/lib/test-libdispcfg.p/dispcfg_test_dispcfg.c.o
                0x000000000040ba20                pcut_exported_dispcfg
 *fill*         0x000000000040ba70       0x10 
 .data.pcut_item_19
                0x000000000040ba80       0x50 uspace/lib/test-libdispcfg.p/dispcfg_test_dispcfg.c.o
 .data.pcut_extras_19
                0x000000000040bad0        0x8 uspace/lib/test-libdispcfg.p/dispcfg_test_dispcfg.c.o
 *fill*         0x000000000040bad8        0x8 
 .data.pcut_item_18
                0x000000000040bae0       0x50 uspace/lib/test-libdispcfg.p/dispcfg_test_dispcfg.c.o
 .data.pcut_extras_18
                0x000000000040bb30        0x8 uspace/lib/test-libdispcfg.p/dispcfg_test_dispcfg.c.o
 *fill*         0x000000000040bb38        0x8 
 .data.pcut_item_17
                0x000000000040bb40       0x50 uspace/lib/test-libdispcfg.p/dispcfg_test_dispcfg.c.o
 .data.pcut_extras_17
                0x000000000040bb90        0x8 uspace/lib/test-libdispcfg.p/dispcfg_test_dispcfg.c.o
 *fill*         0x000000000040bb98        0x8 
 .data.pcut_item_16
                0x000000000040bba0       0x50 uspace/lib/test-libdispcfg.p/dispcfg_test_dispcfg.c.o
 .data.pcut_extras_16
                0x000000000040bbf0        0x8 uspace/lib/test-libdispcfg.p/dispcfg_test_dispcfg.c.o
 *fill*         0x000000000040bbf8        0x8 
 .data.pcut_item_15
                0x000000000040bc00       0x50 uspace/lib/test-libdispcfg.p/dispcfg_test_dispcfg.c.o
 .data.pcut_extras_15
                0x000000000040bc50        0x8 uspace/lib/test-libdispcfg.p/dispcfg_test_dispcfg.c.o
 *fill*         0x000000000040bc58        0x8 
 .data.pcut_item_14
                0x000000000040bc60       0x50 uspace/lib/test-libdispcfg.p/dispcfg_test_dispcfg.c.o
 .data.pcut_extras_14
                0x000000000040bcb0        0x8 uspace/lib/test-libdispcfg.p/dispcfg_test_dispcfg.c.o
 *fill*         0x000000000040bcb8        0x8 
 .data.pcut_item_13
                0x000000000040bcc0       0x50 uspace/lib/test-libdispcfg.p/dispcfg_test_dispcfg.c.o
 .data.pcut_extras_13
                0x000000000040bd10        0x8 uspace/lib/test-libdispcfg.p/dispcfg_test_dispcfg.c.o
 *fill*         0x000000000040bd18        0x8 
 .data.pcut_item_12
                0x000000000040bd20       0x50 uspace/lib/test-libdispcfg.p/dispcfg_test_dispcfg.c.o
 .data.pcut_extras_12
                0x000000000040bd70        0x8 uspace/lib/test-libdispcfg.p/dispcfg_test_dispcfg.c.o
 *fill*         0x000000000040bd78        0x8 
 .data.pcut_item_11
                0x000000000040bd80       0x50 uspace/lib/test-libdispcfg.p/dispcfg_test_dispcfg.c.o
 .data.pcut_extras_11
                0x000000000040bdd0        0x8 uspace/lib/test-libdispcfg.p/dispcfg_test_dispcfg.c.o
 *fill*         0x000000000040bdd8        0x8 
 .data.pcut_item_10
                0x000000000040bde0       0x50 uspace/lib/test-libdispcfg.p/dispcfg_test_dispcfg.c.o
 .data.pcut_extras_10
                0x000000000040be30        0x8 uspace/lib/test-libdispcfg.p/dispcfg_test_dispcfg.c.o
 *fill*         0x000000000040be38        0x8 
 .data.pcut_item_9
                0x000000000040be40       0x50 uspace/lib/test-libdispcfg.p/dispcfg_test_dispcfg.c.o
 .data.pcut_extras_9
                0x000000000040be90        0x8 uspace/lib/test-libdispcfg.p/dispcfg_test_dispcfg.c.o
 *fill*         0x000000000040be98        0x8 
 .data.pcut_item_8
                0x000000000040bea0       0x50 uspace/lib/test-libdispcfg.p/dispcfg_test_dispcfg.c.o
 .data.pcut_extras_8
                0x000000000040bef0        0x8 uspace/lib/test-libdispcfg.p/dispcfg_test_dispcfg.c.o
 *fill*         0x000000000040bef8        0x8 
 .data.pcut_item_7
                0x000000000040bf00       0x50 uspace/lib/test-libdispcfg.p/dispcfg_test_dispcfg.c.o
 .data.pcut_extras_7
                0x000000000040bf50        0x8 uspace/lib/test-libdispcfg.p/dispcfg_test_dispcfg.c.o
 *fill*         0x000000000040bf58        0x8 
 .data.pcut_item_6
                0x000000000040bf60       0x50 uspace/lib/test-libdispcfg.p/dispcfg_test_dispcfg.c.o
 .data.pcut_extras_6
                0x000000000040bfb0        0x8 uspace/lib/test-libdispcfg.p/dispcfg_test_dispcfg.c.o
 *fill*         0x000000000040bfb8        0x8 
 .data.pcut_item_5
                0x000000000040bfc0       0x50 uspace/lib/test-libdispcfg.p/dispcfg_test_dispcfg.c.o
 .data.pcut_extras_5
                0x000000000040c010        0x8 uspace/lib/test-libdispcfg.p/dispcfg_test_dispcfg.c.o
 *fill*         0x000000000040c018        0x8 
 .data.pcut_item_4
                0x000000000040c020       0x50 uspace/lib/test-libdispcfg.p/dispcfg_test_dispcfg.c.o
 .data.pcut_extras_4
                0x000000000040c070        0x8 uspace/lib/test-libdispcfg.p/dispcfg_test_dispcfg.c.o
 *fill*         0x000000000040c078        0x8 
 .data.pcut_item_3
                0x000000000040c080       0x50 uspace/lib/test-libdispcfg.p/dispcfg_test_dispcfg.c.o
 .data.pcut_extras_3
                0x000000000040c0d0        0x8 uspace/lib/test-libdispcfg.p/dispcfg_test_dispcfg.c.o
 *fill*         0x000000000040c0d8        0x8 
 .data.pcut_item_2
                0x000000000040c0e0       0x50 uspace/lib/test-libdispcfg.p/dispcfg_test_dispcfg.c.o
 *fill*         0x000000000040c130       0x10 
 .data.pcut_item_1
                0x000000000040c140       0x50 uspace/lib/test-libdispcfg.p/dispcfg_test_dispcfg.c.o
 *fill*         0x000000000040c190       0x10 
 .data.pcut_item_0
                0x000000000040c1a0       0x50 uspace/lib/test-libdispcfg.p/dispcfg_test_dispcfg.c.o
 .data.test_dispcfg_cb
                0x000000000040c1f0       0x10 uspace/lib/libdispcfg.a.p/dispcfg_src_testdc.c.o
                0x000000000040c1f0                test_dispcfg_cb
 .data.test_dispcfg_srv_ops
                0x000000000040c200       0x40 uspace/lib/libdispcfg.a.p/dispcfg_src_testdc.c.o
 .data.forced_termination_cv
                0x000000000040c240       0x10 uspace/lib/libpcut.a.p/pcut_src_os_helenos.c.o
 *fill*         0x000000000040c250       0x10 
 .data.forced_termination_mutex
                0x000000000040c260       0x20 uspace/lib/libpcut.a.p/pcut_src_os_helenos.c.o
 .data.empty_main_extra
                0x000000000040c280       0x18 uspace/lib/libpcut.a.p/pcut_src_main.c.o
 .data.pcut_run_mode
                0x000000000040c298        0x4 uspace/lib/libpcut.a.p/pcut_src_main.c.o
                0x000000000040c298                pcut_run_mode
 *fill*         0x000000000040c29c        0x4 
 .data.pcut_report_tap
                0x000000000040c2a0       0x30 uspace/lib/libpcut.a.p/pcut_src_report_tap.c.o
                0x000000000040c2a0                pcut_report_tap
 *fill*         0x000000000040c2d0       0x10 
 .data.pcut_report_xml
                0x000000000040c2e0       0x30 uspace/lib/libpcut.a.p/pcut_src_report_xml.c.o
                0x000000000040c2e0                pcut_report_xml

.data1
 *(.data1)
                0x000000000040c310                _edata = .
                [!provide]                        PROVIDE (edata = .)
                0x000000000040c310                . = .
                0x000000000040c310                __bss_start = .

.bss            0x000000000040c320     0x63c8
 *(.dynbss)
 .dynbss        0x000000000040c320       0x68 uspace/lib/test-libdispcfg.p/dispcfg_test_main.c.o
                0x000000000040c320                stdout
                0x000000000040c330                stdin
                0x000000000040c340                __progsymbols
 *(.bss .bss.* .gnu.linkonce.b.*)
 .bss.test_running
                0x000000000040c388        0x4 uspace/lib/libpcut.a.p/pcut_src_os_helenos.c.o
 *fill*         0x000000000040c38c        0x4 
 .bss.test_task_id
                0x000000000040c390        0x8 uspace/lib/libpcut.a.p/pcut_src_os_helenos.c.o
 *fill*         0x000000000040c398        0x8 
 .bss.extra_output_buffer
                0x000000000040c3a0     0x2000 uspace/lib/libpcut.a.p/pcut_src_os_helenos.c.o
 .bss.error_message_buffer
                0x000000000040e3a0     0x2000 uspace/lib/libpcut.a.p/pcut_src_os_helenos.c.o
 .bss.message_buffer_index
                0x00000000004103a0        0x4 uspace/lib/libpcut.a.p/pcut_src_assert.c.o
 *fill*         0x00000000004103a4       0x1c 
 .bss.message_buffer
                0x00000000004103c0      0x202 uspace/lib/libpcut.a.p/pcut_src_assert.c.o
 *fill*         0x00000000004105c2       0x1e 
 .bss.buffer_for_error_messages
                0x00000000004105e0     0x1000 uspace/lib/libpcut.a.p/pcut_src_report_report.c.o
 .bss.buffer_for_extra_output
                0x00000000004115e0     0x1000 uspace/lib/libpcut.a.p/pcut_src_report_report.c.o
 .bss.report_ops
                0x00000000004125e0        0x8 uspace/lib/libpcut.a.p/pcut_src_report_report.c.o
 .bss.failed_test_names
                0x00000000004125e8        0x8 uspace/lib/libpcut.a.p/pcut_src_report_tap.c.o
 .bss.failed_tests_in_suite
                0x00000000004125f0        0x4 uspace/lib/libpcut.a.p/pcut_src_report_tap.c.o
 .bss.tests_in_suite
                0x00000000004125f4        0x4 uspace/lib/libpcut.a.p/pcut_src_report_tap.c.o
 .bss.failed_test_counter
                0x00000000004125f8        0x4 uspace/lib/libpcut.a.p/pcut_src_report_tap.c.o
 .bss.test_counter
                0x00000000004125fc        0x4 uspace/lib/libpcut.a.p/pcut_src_report_tap.c.o
 .bss.failed_tests_in_suite
                0x0000000000412600        0x4 uspace/lib/libpcut.a.p/pcut_src_report_xml.c.o
 .bss.tests_in_suite
                0x0000000000412604        0x4 uspace/lib/libpcut.a.p/pcut_src_report_xml.c.o
 .bss.test_counter
                0x0000000000412608        0x4 uspace/lib/libpcut.a.p/pcut_src_report_xml.c.o
 *fill*         0x000000000041260c        0x4 
 .bss.prev_message.0
                0x0000000000412610        0x8 uspace/lib/libpcut.a.p/pcut_src_run.c.o
 *fill*         0x0000000000412618        0x8 
 .bss.default_suite
                0x0000000000412620       0x50 uspace/lib/libpcut.a.p/pcut_src_run.c.o
 .bss.current_suite
                0x0000000000412670        0x8 uspace/lib/libpcut.a.p/pcut_src_run.c.o
 .bss.current_test
                0x0000000000412678        0x8 uspace/lib/libpcut.a.p/pcut_src_run.c.o
 .bss.leave_means_exit
                0x0000000000412680        0x4 uspace/lib/libpcut.a.p/pcut_src_run.c.o
 .bss.print_test_error
                0x0000000000412684        0x4 uspace/lib/libpcut.a.p/pcut_src_run.c.o
 .bss.report_test_result
                0x0000000000412688        0x4 uspace/lib/libpcut.a.p/pcut_src_run.c.o
 .bss.execute_teardown_on_failure
                0x000000000041268c        0x4 uspace/lib/libpcut.a.p/pcut_src_run.c.o
 *fill*         0x0000000000412690       0x10 
 .bss.start_test_jump
                0x00000000004126a0       0x48 uspace/lib/libpcut.a.p/pcut_src_run.c.o
 *(COMMON)
                0x00000000004126e8                . = ALIGN ((. != 0x0)?0x8:0x1)

.lbss
 *(.dynlbss)
 *(.lbss .lbss.* .gnu.linkonce.lb.*)
 *(LARGE_COMMON)
                0x00000000004126e8                . = ALIGN (0x8)
                0x00000000004126e8                . = SEGMENT_START ("ldata-segment", .)

.lrodata
 *(.lrodata .lrodata.* .gnu.linkonce.lr.*)

.ldata          0x00000000004146e8        0x0
 *(.ldata .ldata.* .gnu.linkonce.l.*)
                0x00000000004146e8                . = ALIGN ((. != 0x0)?0x8:0x1)
                0x00000000004146e8                . = ALIGN (0x8)
                0x00000000004126e8                _end = .
                [!provide]                        PROVIDE (end = .)
                0x00000000004146e8                . = DATA_SEGMENT_END (.)

.stab
 *(.stab)

.stabstr
 *(.stabstr)

.stab.excl
 *(.stab.excl)

.stab.exclstr
 *(.stab.exclstr)

.stab.index
 *(.stab.index)

.stab.indexstr
 *(.stab.indexstr)

.comment        0x0000000000000000       0x12
 *(.comment)
 .comment       0x0000000000000000       0x12 uspace/lib/test-libdispcfg.p/dispcfg_test_main.c.o
                                         0x13 (size before relaxing)
 .comment       0x0000000000000012       0x13 uspace/lib/test-libdispcfg.p/dispcfg_test_dispcfg.c.o
 .comment       0x0000000000000012       0x13 uspace/lib/c/libstartfiles.a.p/generic_crt_crt1.c.o
 .comment       0x0000000000000012       0x13 uspace/lib/libdispcfg.a.p/dispcfg_src_dispcfg.c.o
 .comment       0x0000000000000012       0x13 uspace/lib/libdispcfg.a.p/dispcfg_src_dispcfg_srv.c.o
 .comment       0x0000000000000012       0x13 uspace/lib/libdispcfg.a.p/dispcfg_src_testdc.c.o
 .comment       0x0000000000000012       0x13 uspace/lib/libpcut.a.p/pcut_src_os_helenos.c.o
 .comment       0x0000000000000012       0x13 uspace/lib/libpcut.a.p/pcut_src_assert.c.o
 .comment       0x0000000000000012       0x13 uspace/lib/libpcut.a.p/pcut_src_helper.c.o
 .comment       0x0000000000000012       0x13 uspace/lib/libpcut.a.p/pcut_src_main.c.o
 .comment       0x0000000000000012       0x13 uspace/lib/libpcut.a.p/pcut_src_print.c.o
 .comment       0x0000000000000012       0x13 uspace/lib/libpcut.a.p/pcut_src_report_report.c.o
 .comment       0x0000000000000012       0x13 uspace/lib/libpcut.a.p/pcut_src_report_tap.c.o
 .comment       0x0000000000000012       0x13 uspace/lib/libpcut.a.p/pcut_src_report_xml.c.o
 .comment       0x0000000000000012       0x13 uspace/lib/libpcut.a.p/pcut_src_run.c.o
 .comment       0x0000000000000012       0x13 uspace/lib/libpcut.a.p/pcut_src_list.c.o

.gnu.build.attributes
 *(.gnu.build.attributes .gnu.build.attributes.*)

.debug
 *(.debug)

.line
 *(.line)

.debug_srcinfo
 *(.debug_srcinfo)

.debug_sfnames
 *(.debug_sfnames)

.debug_aranges
 *(.debug_aranges)

.debug_pubnames
 *(.debug_pubnames)

.debug_info
 *(.debug_info .gnu.linkonce.wi.*)

.debug_abbrev
 *(.debug_abbrev)

.debug_line
 *(.debug_line .debug_line.* .debug_line_end)

.debug_frame
 *(.debug_frame)

.debug_str
 *(.debug_str)

.debug_loc
 *(.debug_loc)

.debug_macinfo
 *(.debug_macinfo)

.debug_weaknames
 *(.debug_weaknames)

.debug_funcnames
 *(.debug_funcnames)

.debug_typenames
 *(.debug_typenames)

.debug_varnames
 *(.debug_varnames)

.debug_pubtypes
 *(.debug_pubtypes)

.debug_ranges
 *(.debug_ranges)

.debug_addr
 *(.debug_addr)

.debug_line_str
 *(.debug_line_str)

.debug_loclists
 *(.debug_loclists)

.debug_macro
 *(.debug_macro)

.debug_names
 *(.debug_names)

.debug_rnglists
 *(.debug_rnglists)

.debug_str_offsets
 *(.debug_str_offsets)

.debug_sup
 *(.debug_sup)

.gnu.attributes
 *(.gnu.attributes)

/DISCARD/
 *(.note.GNU-stack)
 *(.gnu_debuglink)
 *(.gnu.lto_*)
OUTPUT(uspace/lib/test-libdispcfg elf64-x86-64)
